
 Start         Length     Name                   Class
 0002:00000000 0000586D6H .text                  CODE
 0003:00000000 00000A728H .rdata                 DATA
 0004:00000000 000007AA4H .data                  DATA
 0005:00000000 000002000H .rsrc                  DATA


  Address         Publics by Value

 0001:00000000       sub_401000
 0001:00000030       loc_401030
 0001:00000043       __ultoa
 0001:0000005D       sub_40105D
 0001:00000080       __strtoui64
 0001:00000097       __strtoi64
 0001:000000AE       _strtol
 0001:000000C5       __isctype
 0001:000000E3       loc_4010E3
 0001:00000109       loc_401109
 0001:00000113       loc_401113
 0001:0000013A       loc_40113A
 0001:0000013E       loc_40113E
 0001:00000143       __fltin
 0001:00000183       loc_401183
 0001:0000019C       loc_40119C
 0001:000001A1       loc_4011A1
 0001:000001AB       loc_4011AB
 0001:000001B1       loc_4011B1
 0001:000001DA       _atof
 0001:000001DF       loc_4011DF
 0001:000001F7       loc_4011F7
 0001:00000204       loc_401204
 0001:0000020B       loc_40120B
 0001:00000225       sub_401225
 0001:00000251       loc_401251
 0001:0000025C       __itoa
 0001:00000272       loc_401272
 0001:00000277       loc_401277
 0001:00000286       sub_401286
 0001:000002A9       loc_4012A9
 0001:000002B7       loc_4012B7
 0001:000002C7       loc_4012C7
 0001:000002DA       sub_4012DA
 0001:00000301       loc_401301
 0001:00000307       loc_401307
 0001:00000319       loc_401319
 0001:00000320       loc_401320
 0001:00000332       loc_401332
 0001:00000347       __i64toa
 0001:0000035E       loc_40135E
 0001:00000361       loc_401361
 0001:00000378       j__atol
 0001:0000037D       sub_40137D
 0001:0000039C       loc_40139C
 0001:000003A5       sub_4013A5
 0001:000003D8       loc_4013D8
 0001:000003FB       loc_4013FB
 0001:00000435       loc_401435
 0001:00000438       loc_401438
 0001:0000044B       loc_40144B
 0001:00000457       loc_401457
 0001:0000045A       loc_40145A
 0001:0000046D       loc_40146D
 0001:0000049B       loc_40149B
 0001:0000049D       loc_40149D
 0001:000004A3       loc_4014A3
 0001:000004B1       loc_4014B1
 0001:000004BC       loc_4014BC
 0001:000004C2       loc_4014C2
 0001:000004C6       loc_4014C6
 0001:000004E3       loc_4014E3
 0001:000004F0       loc_4014F0
 0001:00000502       loc_401502
 0001:0000050A       loc_40150A
 0001:00000516       loc_401516
 0001:00000532       loc_401532
 0001:00000537       loc_401537
 0001:00000543       loc_401543
 0001:00000554       loc_401554
 0001:0000055F       loc_40155F
 0001:00000575       loc_401575
 0001:00000588       loc_401588
 0001:0000059C       loc_40159C
 0001:000005A0       loc_4015A0
 0001:000005A8       loc_4015A8
 0001:000005BF       loc_4015BF
 0001:000005E7       loc_4015E7
 0001:000005EB       loc_4015EB
 0001:00000644       loc_401644
 0001:00000649       loc_401649
 0001:00000663       loc_401663
 0001:00000680       loc_401680
 0001:00000684       loc_401684
 0001:0000069F       loc_40169F
 0001:000006B3       loc_4016B3
 0001:000006B8       sub_4016B8
 0001:000006C8       loc_4016C8
 0001:000006E0       loc_4016E0
 0001:000006FB       loc_4016FB
 0001:00000709       loc_401709
 0001:00000713       loc_401713
 0001:00000721       loc_401721
 0001:00000733       loc_401733
 0001:0000073F       loc_40173F
 0001:00000744       loc_401744
 0001:00000747       loc_401747
 0001:0000074D       sub_40174D
 0001:0000075B       loc_40175B
 0001:00000773       loc_401773
 0001:0000077B       loc_40177B
 0001:00000796       loc_401796
 0001:000007A4       loc_4017A4
 0001:000007AE       loc_4017AE
 0001:000007BE       loc_4017BE
 0001:000007CA       loc_4017CA
 0001:000007CF       loc_4017CF
 0001:000007D2       loc_4017D2
 0001:000007D8       sub_4017D8
 0001:000007E3       loc_4017E3
 0001:000007EE       loc_4017EE
 0001:000007FF       loc_4017FF
 0001:0000082A       loc_40182A
 0001:00000843       loc_401843
 0001:00000848       loc_401848
 0001:0000084E       sub_40184E
 0001:00000861       loc_401861
 0001:0000086A       loc_40186A
 0001:00000883       loc_401883
 0001:0000088A       loc_40188A
 0001:000008AF       loc_4018AF
 0001:000008B5       loc_4018B5
 0001:000008C9       loc_4018C9
 0001:000008CE       loc_4018CE
 0001:000008D7       loc_4018D7
 0001:000008ED       loc_4018ED
 0001:00000914       loc_401914
 0001:00000935       loc_401935
 0001:00000957       loc_401957
 0001:00000961       loc_401961
 0001:00000982       loc_401982
 0001:00000991       loc_401991
 0001:000009A0       loc_4019A0
 0001:000009AA       loc_4019AA
 0001:000009B5       loc_4019B5
 0001:000009CA       loc_4019CA
 0001:000009F9       loc_4019F9
 0001:000009FF       loc_4019FF
 0001:00000A08       loc_401A08
 0001:00000A17       loc_401A17
 0001:00000A2E       loc_401A2E
 0001:00000A36       loc_401A36
 0001:00000A3C       loc_401A3C
 0001:00000A4D       loc_401A4D
 0001:00000A63       loc_401A63
 0001:00000A7F       loc_401A7F
 0001:00000A83       loc_401A83
 0001:00000A96       loc_401A96
 0001:00000AAC       loc_401AAC
 0001:00000AAF       loc_401AAF
 0001:00000AB8       loc_401AB8
 0001:00000AB9       loc_401AB9
 0001:00000ABF       sub_401ABF
 0001:00000AD0       loc_401AD0
 0001:00000ADA       loc_401ADA
 0001:00000ADC       loc_401ADC
 0001:00000B13       loc_401B13
 0001:00000B27       loc_401B27
 0001:00000B35       loc_401B35
 0001:00000B39       loc_401B39
 0001:00000B55       loc_401B55
 0001:00000B59       loc_401B59
 0001:00000B5C       loc_401B5C
 0001:00000B5E       loc_401B5E
 0001:00000B6C       loc_401B6C
 0001:00000B71       loc_401B71
 0001:00000B7F       loc_401B7F
 0001:00000B8D       loc_401B8D
 0001:00000B93       sub_401B93
 0001:00000BBF       loc_401BBF
 0001:00000BE2       loc_401BE2
 0001:00000BF3       loc_401BF3
 0001:00000BFE       loc_401BFE
 0001:00000C0E       loc_401C0E
 0001:00000C13       loc_401C13
 0001:00000C1A       loc_401C1A
 0001:00000C1F       sub_401C1F
 0001:00000C2C       loc_401C2C
 0001:00000C2E       loc_401C2E
 0001:00000C58       loc_401C58
 0001:00000C64       loc_401C64
 0001:00000C70       loc_401C70
 0001:00000C7B       loc_401C7B
 0001:00000C7F       sub_401C7F
 0001:00000C8B       loc_401C8B
 0001:00000C8D       loc_401C8D
 0001:00000C9A       loc_401C9A
 0001:00000CC8       loc_401CC8
 0001:00000CCE       loc_401CCE
 0001:00000CD2       sub_401CD2
 0001:00000CF2       loc_401CF2
 0001:00000CFB       loc_401CFB
 0001:00000D07       loc_401D07
 0001:00000D0E       loc_401D0E
 0001:00000D14       sub_401D14
 0001:00000D36       loc_401D36
 0001:00000D50       loc_401D50
 0001:00000D5A       loc_401D5A
 0001:00000D5C       loc_401D5C
 0001:00000D5E       sub_401D5E
 0001:00000D73       sub_401D73
 0001:00000D7C       loc_401D7C
 0001:00000D90       loc_401D90
 0001:00000D9F       sub_401D9F
 0001:00000DAB       loc_401DAB
 0001:00000DAD       loc_401DAD
 0001:00000DC0       loc_401DC0
 0001:00000DC5       loc_401DC5
 0001:00000DCC       sub_401DCC
 0001:00000DE1       loc_401DE1
 0001:00000DE3       loc_401DE3
 0001:00000E16       loc_401E16
 0001:00000E5E       loc_401E5E
 0001:00000E61       sub_401E61
 0001:00000E6D       loc_401E6D
 0001:00000E6F       loc_401E6F
 0001:00000E83       loc_401E83
 0001:00000E8F       loc_401E8F
 0001:00000E9F       loc_401E9F
 0001:00000EA4       loc_401EA4
 0001:00000EA8       sub_401EA8
 0001:00000EAC       loc_401EAC
 0001:00000EB8       loc_401EB8
 0001:00000EBB       locret_401EBB
 0001:00000EBC       sub_401EBC
 0001:00000ECF       loc_401ECF
 0001:00000ED9       loc_401ED9
 0001:00000EDA       loc_401EDA
 0001:00000EEC       loc_401EEC
 0001:00000EFF       loc_401EFF
 0001:00000F02       sub_401F02
 0001:00000F21       loc_401F21
 0001:00000F2A       __atoi64
 0001:00000F34       loc_401F34
 0001:00000F35       loc_401F35
 0001:00000F53       loc_401F53
 0001:00000F57       loc_401F57
 0001:00000F5B       loc_401F5B
 0001:00000F6A       loc_401F6A
 0001:00000F6D       loc_401F6D
 0001:00000F92       loc_401F92
 0001:00000FA2       locret_401FA2
 0001:00000FA3       sub_401FA3
 0001:00000FAE       loc_401FAE
 0001:00000FB8       loc_401FB8
 0001:00000FBC       sub_401FBC
 0001:00000FDF       loc_401FDF
 0001:00000FF0       loc_401FF0
 0001:00000FF4       loc_401FF4
 0001:00000FF5       loc_401FF5
 0001:00001006       loc_402006
 0001:00001020       loc_402020
 0001:0000102B       loc_40202B
 0001:00001031       loc_402031
 0001:0000105C       loc_40205C
 0001:0000106F       loc_40206F
 0001:00001079       loc_402079
 0001:0000107C       loc_40207C
 0001:000010AB       loc_4020AB
 0001:000010AD       loc_4020AD
 0001:000010B8       loc_4020B8
 0001:000010BA       loc_4020BA
 0001:000010BC       loc_4020BC
 0001:000010BF       loc_4020BF
 0001:000010C6       loc_4020C6
 0001:000010C7       loc_4020C7
 0001:000010D3       loc_4020D3
 0001:000010E5       loc_4020E5
 0001:000010ED       loc_4020ED
 0001:000010F5       loc_4020F5
 0001:000010FE       sub_4020FE
 0001:0000110A       loc_40210A
 0001:0000110C       loc_40210C
 0001:00001152       loc_402152
 0001:00001156       loc_402156
 0001:0000115B       loc_40215B
 0001:0000115E       loc_40215E
 0001:00001162       sub_402162
 0001:00001183       loc_402183
 0001:000011A2       loc_4021A2
 0001:000011A5       loc_4021A5
 0001:000011B6       loc_4021B6
 0001:000011BA       sub_4021BA
 0001:000011D6       loc_4021D6
 0001:00001203       loc_402203
 0001:00001207       loc_402207
 0001:00001212       loc_402212
 0001:00001217       sub_402217
 0001:0000124E       loc_40224E
 0001:00001252       loc_402252
 0001:0000125F       loc_40225F
 0001:00001264       sub_402264
 0001:00001271       loc_402271
 0001:00001273       loc_402273
 0001:00001293       loc_402293
 0001:000012A0       loc_4022A0
 0001:000012AE       loc_4022AE
 0001:000012B1       loc_4022B1
 0001:000012B6       sub_4022B6
 0001:000012EE       loc_4022EE
 0001:000012F8       loc_4022F8
 0001:0000131A       loc_40231A
 0001:0000131E       loc_40231E
 0001:00001328       loc_402328
 0001:00001333       loc_402333
 0001:00001334       loc_402334
 0001:00001337       loc_402337
 0001:0000133A       sub_40233A
 0001:00001357       loc_402357
 0001:00001367       loc_402367
 0001:0000136E       loc_40236E
 0001:0000137A       loc_40237A
 0001:0000137D       loc_40237D
 0001:00001380       sub_402380
 0001:00001391       loc_402391
 0001:00001393       loc_402393
 0001:0000139E       loc_40239E
 0001:000013A6       loc_4023A6
 0001:000013D6       loc_4023D6
 0001:000013D9       loc_4023D9
 0001:000013DE       sub_4023DE
 0001:000013F9       loc_4023F9
 0001:00001400       loc_402400
 0001:0000140B       loc_40240B
 0001:00001435       loc_402435
 0001:0000144C       loc_40244C
 0001:00001450       sub_402450
 0001:000014A4       loc_4024A4
 0001:000014A9       loc_4024A9
 0001:000014C3       loc_4024C3
 0001:0000150B       loc_40250B
 0001:00001515       loc_402515
 0001:00001526       loc_402526
 0001:0000152F       loc_40252F
 0001:0000153B       loc_40253B
 0001:00001547       loc_402547
 0001:0000155D       loc_40255D
 0001:0000156A       loc_40256A
 0001:0000156F       loc_40256F
 0001:00001584       loc_402584
 0001:00001588       loc_402588
 0001:00001590       loc_402590
 0001:00001595       sub_402595
 0001:000015DC       loc_4025DC
 0001:000015DF       loc_4025DF
 0001:000015EF       loc_4025EF
 0001:000015FA       loc_4025FA
 0001:0000161B       loc_40261B
 0001:00001647       loc_402647
 0001:0000164F       loc_40264F
 0001:0000165D       loc_40265D
 0001:0000166A       loc_40266A
 0001:0000167E       loc_40267E
 0001:00001691       loc_402691
 0001:00001696       sub_402696
 0001:000016B8       loc_4026B8
 0001:000016BB       loc_4026BB
 0001:000016CA       loc_4026CA
 0001:000016DC       loc_4026DC
 0001:000016E4       sub_4026E4
 0001:0000170F       loc_40270F
 0001:00001721       loc_402721
 0001:00001736       loc_402736
 0001:00001746       loc_402746
 0001:00001769       loc_402769
 0001:0000178E       loc_40278E
 0001:00001792       loc_402792
 0001:00001795       loc_402795
 0001:00001799       loc_402799
 0001:000017A3       loc_4027A3
 0001:000017A9       loc_4027A9
 0001:000017AD       loc_4027AD
 0001:000017BF       loc_4027BF
 0001:000017DE       loc_4027DE
 0001:000017E3       loc_4027E3
 0001:000017E7       loc_4027E7
 0001:000017F1       loc_4027F1
 0001:000017FC       loc_4027FC
 0001:00001803       sub_402803
 0001:00001822       loc_402822
 0001:00001845       loc_402845
 0001:0000184D       loc_40284D
 0001:0000186B       loc_40286B
 0001:00001877       loc_402877
 0001:0000188E       loc_40288E
 0001:000018B2       loc_4028B2
 0001:000018E3       loc_4028E3
 0001:000018E6       loc_4028E6
 0001:000018F7       loc_4028F7
 0001:000018FA       loc_4028FA
 0001:00001901       loc_402901
 0001:00001904       loc_402904
 0001:0000191A       loc_40291A
 0001:00001931       loc_402931
 0001:00001938       sub_402938
 0001:0000195B       loc_40295B
 0001:00001974       loc_402974
 0001:0000197A       loc_40297A
 0001:0000199A       loc_40299A
 0001:0000199F       loc_40299F
 0001:000019A3       loc_4029A3
 0001:000019B0       loc_4029B0
 0001:000019B5       sub_4029B5
 0001:000019E4       loc_4029E4
 0001:000019F7       loc_4029F7
 0001:000019FA       loc_4029FA
 0001:00001A10       loc_402A10
 0001:00001A27       loc_402A27
 0001:00001A4E       loc_402A4E
 0001:00001A6F       loc_402A6F
 0001:00001A7B       loc_402A7B
 0001:00001A8D       loc_402A8D
 0001:00001A92       loc_402A92
 0001:00001AC2       loc_402AC2
 0001:00001AD5       loc_402AD5
 0001:00001B21       loc_402B21
 0001:00001B33       loc_402B33
 0001:00001B54       loc_402B54
 0001:00001B6F       loc_402B6F
 0001:00001B78       loc_402B78
 0001:00001B9F       loc_402B9F
 0001:00001BA7       loc_402BA7
 0001:00001BB7       loc_402BB7
 0001:00001BC2       loc_402BC2
 0001:00001BC5       loc_402BC5
 0001:00001BCC       loc_402BCC
 0001:00001BD2       loc_402BD2
 0001:00001BE9       loc_402BE9
 0001:00001C04       loc_402C04
 0001:00001C0B       loc_402C0B
 0001:00001C2D       loc_402C2D
 0001:00001C52       loc_402C52
 0001:00001C7B       loc_402C7B
 0001:00001C89       loc_402C89
 0001:00001CB7       loc_402CB7
 0001:00001CBA       loc_402CBA
 0001:00001CC4       sub_402CC4
 0001:00001CDA       loc_402CDA
 0001:00001CF9       loc_402CF9
 0001:00001D18       loc_402D18
 0001:00001D56       loc_402D56
 0001:00001D61       loc_402D61
 0001:00001D94       loc_402D94
 0001:00001D9B       loc_402D9B
 0001:00001DAF       loc_402DAF
 0001:00001DC1       loc_402DC1
 0001:00001DC6       loc_402DC6
 0001:00001DDD       loc_402DDD
 0001:00001DE2       loc_402DE2
 0001:00001DE8       loc_402DE8
 0001:00001DEF       loc_402DEF
 0001:00001DF6       loc_402DF6
 0001:00001E4E       loc_402E4E
 0001:00001E72       loc_402E72
 0001:00001EAD       loc_402EAD
 0001:00001ECC       loc_402ECC
 0001:00001EDE       loc_402EDE
 0001:00001F0B       loc_402F0B
 0001:00001F22       loc_402F22
 0001:00001F36       loc_402F36
 0001:00001F39       loc_402F39
 0001:00001F40       loc_402F40
 0001:00001F48       loc_402F48
 0001:00001F67       loc_402F67
 0001:00001F79       loc_402F79
 0001:00001F95       loc_402F95
 0001:00001FA3       loc_402FA3
 0001:00001FAB       loc_402FAB
 0001:00001FF1       loc_402FF1
 0001:00002018       loc_403018
 0001:00002040       loc_403040
 0001:0000206F       loc_40306F
 0001:00002071       loc_403071
 0001:00002075       loc_403075
 0001:00002089       loc_403089
 0001:000020B1       loc_4030B1
 0001:000020E1       loc_4030E1
 0001:00002102       loc_403102
 0001:00002105       loc_403105
 0001:0000210F       loc_40310F
 0001:00002139       loc_403139
 0001:00002158       loc_403158
 0001:00002173       loc_403173
 0001:00002176       loc_403176
 0001:00002179       loc_403179
 0001:00002190       loc_403190
 0001:000021A7       loc_4031A7
 0001:000021AE       loc_4031AE
 0001:000021B3       loc_4031B3
 0001:000021C5       loc_4031C5
 0001:000021DC       loc_4031DC
 0001:000021E1       loc_4031E1
 0001:000021F0       loc_4031F0
 0001:000021F4       loc_4031F4
 0001:00002268       loc_403268
 0001:00002296       loc_403296
 0001:000022A0       loc_4032A0
 0001:000022E5       loc_4032E5
 0001:000022ED       loc_4032ED
 0001:00002338       loc_403338
 0001:00002359       loc_403359
 0001:00002378       loc_403378
 0001:0000237E       loc_40337E
 0001:00002380       loc_403380
 0001:00002384       loc_403384
 0001:0000239C       loc_40339C
 0001:0000239E       loc_40339E
 0001:0000240F       loc_40340F
 0001:00002438       loc_403438
 0001:00002474       loc_403474
 0001:00002481       loc_403481
 0001:000024A9       loc_4034A9
 0001:000024AC       loc_4034AC
 0001:000024B6       loc_4034B6
 0001:000024D1       loc_4034D1
 0001:000024E8       loc_4034E8
 0001:000024F6       loc_4034F6
 0001:000024FD       loc_4034FD
 0001:00002500       loc_403500
 0001:0000250A       loc_40350A
 0001:0000252A       loc_40352A
 0001:0000254F       loc_40354F
 0001:00002558       loc_403558
 0001:0000255A       loc_40355A
 0001:00002569       loc_403569
 0001:00002578       loc_403578
 0001:0000257A       loc_40357A
 0001:000025D0       loc_4035D0
 0001:000025DE       loc_4035DE
 0001:000025EA       loc_4035EA
 0001:00002625       loc_403625
 0001:0000263D       loc_40363D
 0001:0000266B       loc_40366B
 0001:00002673       loc_403673
 0001:0000267B       loc_40367B
 0001:00002681       loc_403681
 0001:000026B4       loc_4036B4
 0001:000026D4       loc_4036D4
 0001:000026E3       loc_4036E3
 0001:000026EF       loc_4036EF
 0001:000026F3       loc_4036F3
 0001:00002701       loc_403701
 0001:00002707       loc_403707
 0001:0000271A       loc_40371A
 0001:00002729       loc_403729
 0001:00002735       loc_403735
 0001:00002745       loc_403745
 0001:0000274A       loc_40374A
 0001:00002757       loc_403757
 0001:000027A6       loc_4037A6
 0001:000027AB       loc_4037AB
 0001:000027AD       loc_4037AD
 0001:000027BC       loc_4037BC
 0001:000027EA       loc_4037EA
 0001:0000280E       loc_40380E
 0001:00002817       loc_403817
 0001:0000281E       loc_40381E
 0001:00002829       loc_403829
 0001:00002830       loc_403830
 0001:00002850       loc_403850
 0001:00002875       loc_403875
 0001:0000287E       loc_40387E
 0001:00002880       loc_403880
 0001:0000288F       loc_40388F
 0001:0000289E       loc_40389E
 0001:000028A0       loc_4038A0
 0001:000028CC       loc_4038CC
 0001:000028DB       loc_4038DB
 0001:000028E7       loc_4038E7
 0001:000028EB       loc_4038EB
 0001:000028FD       loc_4038FD
 0001:00002911       loc_403911
 0001:0000291F       loc_40391F
 0001:0000292B       loc_40392B
 0001:0000293E       loc_40393E
 0001:0000295E       loc_40395E
 0001:00002983       loc_403983
 0001:0000298C       loc_40398C
 0001:0000298E       loc_40398E
 0001:0000299D       loc_40399D
 0001:000029AC       loc_4039AC
 0001:000029AE       loc_4039AE
 0001:000029DA       loc_4039DA
 0001:000029E9       loc_4039E9
 0001:000029F5       loc_4039F5
 0001:000029F9       loc_4039F9
 0001:00002A0B       loc_403A0B
 0001:00002A14       loc_403A14
 0001:00002A28       loc_403A28
 0001:00002A36       loc_403A36
 0001:00002A42       loc_403A42
 0001:00002A50       loc_403A50
 0001:00002A59       loc_403A59
 0001:00002A7B       loc_403A7B
 0001:00002AA0       loc_403AA0
 0001:00002AA9       loc_403AA9
 0001:00002AAB       loc_403AAB
 0001:00002ABC       loc_403ABC
 0001:00002ACA       loc_403ACA
 0001:00002ACC       loc_403ACC
 0001:00002AF5       loc_403AF5
 0001:00002B03       loc_403B03
 0001:00002B0F       loc_403B0F
 0001:00002B13       loc_403B13
 0001:00002B1C       loc_403B1C
 0001:00002B27       loc_403B27
 0001:00002B3B       loc_403B3B
 0001:00002B4D       loc_403B4D
 0001:00002B5B       loc_403B5B
 0001:00002B67       loc_403B67
 0001:00002B8D       loc_403B8D
 0001:00002BA1       loc_403BA1
 0001:00002BB1       loc_403BB1
 0001:00002BBB       loc_403BBB
 0001:00002BCD       loc_403BCD
 0001:00002BDD       loc_403BDD
 0001:00002BEF       loc_403BEF
 0001:00002C18       loc_403C18
 0001:00002C20       loc_403C20
 0001:00002C52       loc_403C52
 0001:00002C58       loc_403C58
 0001:00002C65       loc_403C65
 0001:00002C71       loc_403C71
 0001:00002C7D       loc_403C7D
 0001:00002C8A       loc_403C8A
 0001:00002C90       loc_403C90
 0001:00002CA2       loc_403CA2
 0001:00002CB2       loc_403CB2
 0001:00002CC6       loc_403CC6
 0001:00002CD8       loc_403CD8
 0001:00002CE8       loc_403CE8
 0001:00002CEF       loc_403CEF
 0001:00002CFA       loc_403CFA
 0001:00002D1F       loc_403D1F
 0001:00002D23       loc_403D23
 0001:00002D59       loc_403D59
 0001:00002D87       loc_403D87
 0001:00002D98       loc_403D98
 0001:00002D9E       loc_403D9E
 0001:00002DAC       loc_403DAC
 0001:00002DC4       loc_403DC4
 0001:00002DC7       loc_403DC7
 0001:00002DD5       loc_403DD5
 0001:00002DDF       loc_403DDF
 0001:00002DE1       loc_403DE1
 0001:00002DE7       loc_403DE7
 0001:00002E29       loc_403E29
 0001:00002E30       loc_403E30
 0001:00002E48       loc_403E48
 0001:00002E4D       loc_403E4D
 0001:00002E6C       loc_403E6C
 0001:00002E8C       loc_403E8C
 0001:00002E9C       loc_403E9C
 0001:00002E9F       loc_403E9F
 0001:00002ED3       loc_403ED3
 0001:00002EEE       loc_403EEE
 0001:00002EFA       loc_403EFA
 0001:00002EFF       loc_403EFF
 0001:00002F0F       loc_403F0F
 0001:00002F23       loc_403F23
 0001:00002F48       loc_403F48
 0001:00002F58       loc_403F58
 0001:00002F62       loc_403F62
 0001:00002F6F       loc_403F6F
 0001:00002F8E       loc_403F8E
 0001:00002FB3       loc_403FB3
 0001:00002FC6       loc_403FC6
 0001:00002FDF       loc_403FDF
 0001:00003032       loc_404032
 0001:0000306F       loc_40406F
 0001:00003098       loc_404098
 0001:000030A5       loc_4040A5
 0001:000030A6       loc_4040A6
 0001:000030B9       loc_4040B9
 0001:000030CE       loc_4040CE
 0001:000030D2       loc_4040D2
 0001:000030D6       loc_4040D6
 0001:000030DC       loc_4040DC
 0001:000030E7       loc_4040E7
 0001:000030ED       loc_4040ED
 0001:00003107       loc_404107
 0001:00003119       loc_404119
 0001:00003127       loc_404127
 0001:00003143       loc_404143
 0001:00003162       loc_404162
 0001:0000317A       loc_40417A
 0001:000031A5       loc_4041A5
 0001:000031AD       loc_4041AD
 0001:000031C3       loc_4041C3
 0001:000031D8       loc_4041D8
 0001:000031E1       loc_4041E1
 0001:000031E7       loc_4041E7
 0001:00003218       loc_404218
 0001:0000321A       loc_40421A
 0001:0000323F       loc_40423F
 0001:00003277       loc_404277
 0001:000032A1       loc_4042A1
 0001:000032AD       loc_4042AD
 0001:000032E9       loc_4042E9
 0001:000032EB       loc_4042EB
 0001:00003316       loc_404316
 0001:00003329       loc_404329
 0001:00003342       loc_404342
 0001:0000337A       loc_40437A
 0001:00003393       loc_404393
 0001:000033DA       loc_4043DA
 0001:00003400       loc_404400
 0001:0000340D       loc_40440D
 0001:00003427       loc_404427
 0001:00003429       loc_404429
 0001:0000346D       loc_40446D
 0001:000034C6       loc_4044C6
 0001:000034CE       loc_4044CE
 0001:00003505       loc_404505
 0001:00003512       loc_404512
 0001:0000354F       loc_40454F
 0001:00003561       loc_404561
 0001:0000356B       loc_40456B
 0001:000035BA       loc_4045BA
 0001:000035F1       loc_4045F1
 0001:0000361C       loc_40461C
 0001:00003632       loc_404632
 0001:00003635       loc_404635
 0001:0000366A       loc_40466A
 0001:000036AD       loc_4046AD
 0001:000036D8       loc_4046D8
 0001:000036FD       loc_4046FD
 0001:00003728       loc_404728
 0001:00003759       loc_404759
 0001:00003784       loc_404784
 0001:000037BB       loc_4047BB
 0001:000037F2       loc_4047F2
 0001:0000381D       loc_40481D
 0001:0000385A       loc_40485A
 0001:0000386D       loc_40486D
 0001:0000388C       loc_40488C
 0001:000038BD       loc_4048BD
 0001:000038E8       loc_4048E8
 0001:000038F2       loc_4048F2
 0001:000038FC       loc_4048FC
 0001:00003921       loc_404921
 0001:00003946       loc_404946
 0001:00003971       loc_404971
 0001:00003996       loc_404996
 0001:000039BB       loc_4049BB
 0001:000039D4       loc_4049D4
 0001:000039DD       loc_4049DD
 0001:000039E4       loc_4049E4
 0001:00003A02       loc_404A02
 0001:00003A19       loc_404A19
 0001:00003A2F       loc_404A2F
 0001:00003A3A       loc_404A3A
 0001:00003A44       loc_404A44
 0001:00003A69       loc_404A69
 0001:00003A86       loc_404A86
 0001:00003AC9       loc_404AC9
 0001:00003ACD       loc_404ACD
 0001:00003AD3       loc_404AD3
 0001:00003AEE       loc_404AEE
 0001:00003AF4       loc_404AF4
 0001:00003B07       loc_404B07
 0001:00003B09       loc_404B09
 0001:00003B0E       loc_404B0E
 0001:00003B1B       loc_404B1B
 0001:00003B49       loc_404B49
 0001:00003B4C       loc_404B4C
 0001:00003B73       loc_404B73
 0001:00003B89       loc_404B89
 0001:00003BBF       loc_404BBF
 0001:00003BC1       loc_404BC1
 0001:00003BCC       loc_404BCC
 0001:00003BE5       loc_404BE5
 0001:00003C07       loc_404C07
 0001:00003C19       loc_404C19
 0001:00003C3C       loc_404C3C
 0001:00003C64       loc_404C64
 0001:00003C70       loc_404C70
 0001:00003C95       loc_404C95
 0001:00003CB7       loc_404CB7
 0001:00003CD6       loc_404CD6
 0001:00003CD8       loc_404CD8
 0001:00003CE5       loc_404CE5
 0001:00003D07       loc_404D07
 0001:00003D31       loc_404D31
 0001:00003D50       loc_404D50
 0001:00003D52       loc_404D52
 0001:00003D5F       loc_404D5F
 0001:00003D78       loc_404D78
 0001:00003D94       loc_404D94
 0001:00003DC5       loc_404DC5
 0001:00003DDA       loc_404DDA
 0001:00003DDC       loc_404DDC
 0001:00003DF5       loc_404DF5
 0001:00003DFB       loc_404DFB
 0001:00003E17       loc_404E17
 0001:00003E2E       loc_404E2E
 0001:00003E43       loc_404E43
 0001:00003E5B       loc_404E5B
 0001:00003E60       loc_404E60
 0001:00003E6A       loc_404E6A
 0001:00003E94       loc_404E94
 0001:00003EA3       loc_404EA3
 0001:00003EB8       loc_404EB8
 0001:00003ED7       loc_404ED7
 0001:00003EF0       loc_404EF0
 0001:00003F07       loc_404F07
 0001:00003F09       loc_404F09
 0001:00003F16       loc_404F16
 0001:00003F1B       loc_404F1B
 0001:00003F3C       loc_404F3C
 0001:00003F3F       loc_404F3F
 0001:00003F52       loc_404F52
 0001:00003F57       loc_404F57
 0001:00003F76       loc_404F76
 0001:00003F8D       loc_404F8D
 0001:00003F8F       loc_404F8F
 0001:00003F9A       loc_404F9A
 0001:00003F9F       loc_404F9F
 0001:00003FAD       loc_404FAD
 0001:00003FB4       loc_404FB4
 0001:00003FC1       loc_404FC1
 0001:00003FD9       loc_404FD9
 0001:00003FDE       loc_404FDE
 0001:00003FF4       loc_404FF4
 0001:00003FF9       loc_404FF9
 0001:00004006       loc_405006
 0001:00004026       loc_405026
 0001:0000403B       loc_40503B
 0001:0000403F       loc_40503F
 0001:00004053       loc_405053
 0001:00004061       loc_405061
 0001:00004063       loc_405063
 0001:0000407D       loc_40507D
 0001:00004090       loc_405090
 0001:000040A9       loc_4050A9
 0001:000040B6       loc_4050B6
 0001:000040C9       loc_4050C9
 0001:000040DC       loc_4050DC
 0001:000040FB       loc_4050FB
 0001:00004133       loc_405133
 0001:0000413D       loc_40513D
 0001:0000414F       loc_40514F
 0001:00004159       loc_405159
 0001:00004189       loc_405189
 0001:00004198       loc_405198
 0001:000041BB       loc_4051BB
 0001:000041C3       loc_4051C3
 0001:000041F7       loc_4051F7
 0001:00004210       loc_405210
 0001:0000422E       loc_40522E
 0001:00004241       loc_405241
 0001:00004258       loc_405258
 0001:00004275       loc_405275
 0001:00004277       loc_405277
 0001:00004283       loc_405283
 0001:00004287       loc_405287
 0001:0000428A       loc_40528A
 0001:00004295       loc_405295
 0001:000042AB       loc_4052AB
 0001:000042B9       loc_4052B9
 0001:000042C7       loc_4052C7
 0001:000042D3       loc_4052D3
 0001:000042D5       loc_4052D5
 0001:0000430A       loc_40530A
 0001:00004320       loc_405320
 0001:00004338       loc_405338
 0001:00004346       loc_405346
 0001:00004352       loc_405352
 0001:00004354       loc_405354
 0001:00004392       loc_405392
 0001:000043A8       loc_4053A8
 0001:000043BC       loc_4053BC
 0001:000043D2       loc_4053D2
 0001:000043E0       loc_4053E0
 0001:000043F0       loc_4053F0
 0001:00004415       loc_405415
 0001:00004434       loc_405434
 0001:00004447       loc_405447
 0001:0000448A       loc_40548A
 0001:00004490       loc_405490
 0001:000044AA       loc_4054AA
 0001:000044C4       loc_4054C4
 0001:000044CE       loc_4054CE
 0001:000044DC       loc_4054DC
 0001:000044ED       loc_4054ED
 0001:000044F3       loc_4054F3
 0001:000044F7       loc_4054F7
 0001:00004502       loc_405502
 0001:00004519       loc_405519
 0001:0000451B       loc_40551B
 0001:0000453B       loc_40553B
 0001:00004556       loc_405556
 0001:0000457C       loc_40557C
 0001:00004592       loc_405592
 0001:000045AB       loc_4055AB
 0001:000045B2       loc_4055B2
 0001:000045CA       loc_4055CA
 0001:000045CF       loc_4055CF
 0001:000045E7       loc_4055E7
 0001:000045EC       loc_4055EC
 0001:00004604       loc_405604
 0001:00004609       loc_405609
 0001:00004656       loc_405656
 0001:0000466E       loc_40566E
 0001:00004670       loc_405670
 0001:00004686       loc_405686
 0001:0000468B       loc_40568B
 0001:000046A6       loc_4056A6
 0001:000046C6       loc_4056C6
 0001:000046D2       loc_4056D2
 0001:000046F3       loc_4056F3
 0001:00004700       loc_405700
 0001:00004728       loc_405728
 0001:0000474D       loc_40574D
 0001:00004772       loc_405772
 0001:0000477F       loc_40577F
 0001:000047B8       loc_4057B8
 0001:000047BA       loc_4057BA
 0001:000047DD       loc_4057DD
 0001:000047EA       loc_4057EA
 0001:0000480C       loc_40580C
 0001:00004828       loc_405828
 0001:00004855       loc_405855
 0001:00004875       loc_405875
 0001:00004887       loc_405887
 0001:000048A7       loc_4058A7
 0001:000048CF       loc_4058CF
 0001:000048DC       loc_4058DC
 0001:000048EE       loc_4058EE
 0001:00004900       loc_405900
 0001:0000492F       loc_40592F
 0001:00004954       loc_405954
 0001:0000497D       loc_40597D
 0001:000049AD       loc_4059AD
 0001:000049B9       loc_4059B9
 0001:000049C5       loc_4059C5
 0001:000049D1       loc_4059D1
 0001:000049DD       loc_4059DD
 0001:000049E9       loc_4059E9
 0001:000049F6       loc_4059F6
 0001:00004A54       loc_405A54
 0001:00004A58       loc_405A58
 0001:00004A78       loc_405A78
 0001:00004A9C       loc_405A9C
 0001:00004AAC       loc_405AAC
 0001:00004ACA       loc_405ACA
 0001:00004B02       loc_405B02
 0001:00004B0E       loc_405B0E
 0001:00004B1A       loc_405B1A
 0001:00004B33       loc_405B33
 0001:00004B5D       loc_405B5D
 0001:00004B81       loc_405B81
 0001:00004BA0       loc_405BA0
 0001:00004BBF       loc_405BBF
 0001:00004BE2       loc_405BE2
 0001:00004BF1       loc_405BF1
 0001:00004BF8       loc_405BF8
 0001:00004BFE       loc_405BFE
 0001:00004C08       loc_405C08
 0001:00004C19       loc_405C19
 0001:00004C46       loc_405C46
 0001:00004C6F       loc_405C6F
 0001:00004C93       loc_405C93
 0001:00004CBC       loc_405CBC
 0001:00004CE5       loc_405CE5
 0001:00004D25       loc_405D25
 0001:00004D36       loc_405D36
 0001:00004D40       loc_405D40
 0001:00004D44       loc_405D44
 0001:00004D45       loc_405D45
 0001:00004D4A       loc_405D4A
 0001:00004D50       loc_405D50
 0001:00004D60       loc_405D60
 0001:00004D6D       loc_405D6D
 0001:00004D7C       loc_405D7C
 0001:00004D8E       loc_405D8E
 0001:00004D9E       loc_405D9E
 0001:00004DBE       loc_405DBE
 0001:00004DE3       loc_405DE3
 0001:00004E08       loc_405E08
 0001:00004E30       loc_405E30
 0001:00004E5C       loc_405E5C
 0001:00004E8F       loc_405E8F
 0001:00004EAC       loc_405EAC
 0001:00004EBC       loc_405EBC
 0001:00004EF3       loc_405EF3
 0001:00004F33       loc_405F33
 0001:00004F7B       loc_405F7B
 0001:00004F8B       loc_405F8B
 0001:00004F91       loc_405F91
 0001:00004FB9       loc_405FB9
 0001:00004FCE       loc_405FCE
 0001:00004FDA       loc_405FDA
 0001:00004FDF       loc_405FDF
 0001:00004FFB       loc_405FFB
 0001:00004FFD       loc_405FFD
 0001:00005005       loc_406005
 0001:00005014       loc_406014
 0001:0000504B       loc_40604B
 0001:0000506A       loc_40606A
 0001:0000506C       loc_40606C
 0001:000050C2       loc_4060C2
 0001:000050DE       loc_4060DE
 0001:000050E1       loc_4060E1
 0001:000050EE       loc_4060EE
 0001:000050F8       loc_4060F8
 0001:00005100       loc_406100
 0001:00005104       loc_406104
 0001:0000510F       loc_40610F
 0001:00005152       loc_406152
 0001:00005155       loc_406155
 0001:00005158       loc_406158
 0001:0000515B       loc_40615B
 0001:0000516A       loc_40616A
 0001:0000516C       loc_40616C
 0001:00005173       loc_406173
 0001:00005176       loc_406176
 0001:0000517D       loc_40617D
 0001:000051AA       loc_4061AA
 0001:000051AC       loc_4061AC
 0001:000051B2       loc_4061B2
 0001:000051C1       loc_4061C1
 0001:000051D2       loc_4061D2
 0001:000051E0       loc_4061E0
 0001:000051EE       loc_4061EE
 0001:000051F2       loc_4061F2
 0001:0000520D       loc_40620D
 0001:00005214       loc_406214
 0001:00005222       loc_406222
 0001:00005234       loc_406234
 0001:00005241       loc_406241
 0001:00005244       loc_406244
 0001:0000524E       loc_40624E
 0001:00005255       off_406255
 0001:000054CD       byte_4064CD
 0001:000055A4       sub_4065A4
 0001:000055CF       sub_4065CF
 0001:000055F3       loc_4065F3
 0001:00005614       loc_406614
 0001:0000561F       loc_40661F
 0001:00005620       loc_406620
 0001:00005627       loc_406627
 0001:0000562F       loc_40662F
 0001:00005654       loc_406654
 0001:00005657       loc_406657
 0001:0000566E       loc_40666E
 0001:00005671       loc_406671
 0001:000056D1       loc_4066D1
 0001:000056F6       loc_4066F6
 0001:0000571A       loc_40671A
 0001:00005723       loc_406723
 0001:00005725       loc_406725
 0001:00005735       loc_406735
 0001:00005743       loc_406743
 0001:0000574A       loc_40674A
 0001:00005762       loc_406762
 0001:0000576B       loc_40676B
 0001:0000576D       loc_40676D
 0001:0000577C       loc_40677C
 0001:0000578B       loc_40678B
 0001:000057B4       loc_4067B4
 0001:000057C0       loc_4067C0
 0001:000057DA       loc_4067DA
 0001:000057E9       loc_4067E9
 0001:000057F5       loc_4067F5
 0001:000057FD       loc_4067FD
 0001:00005804       loc_406804
 0001:00005813       loc_406813
 0001:0000581F       loc_40681F
 0001:00005836       loc_406836
 0001:00005845       loc_406845
 0001:00005851       loc_406851
 0001:00005865       loc_406865
 0001:0000586D       loc_40686D
 0001:0000588D       loc_40688D
 0001:00005893       loc_406893
 0001:000058A2       loc_4068A2
 0001:000058A7       loc_4068A7
 0001:000058B0       loc_4068B0
 0001:000058C5       loc_4068C5
 0001:000058CB       loc_4068CB
 0001:000058DA       loc_4068DA
 0001:000058DF       loc_4068DF
 0001:000058E9       loc_4068E9
 0001:000058FA       loc_4068FA
 0001:00005900       loc_406900
 0001:0000590F       loc_40690F
 0001:00005914       loc_406914
 0001:0000591B       loc_40691B
 0001:0000591D       loc_40691D
 0001:00005926       loc_406926
 0001:0000592C       loc_40692C
 0001:00005936       loc_406936
 0001:0000593E       loc_40693E
 0001:00005960       loc_406960
 0001:00005989       loc_406989
 0001:00005992       loc_406992
 0001:00005994       loc_406994
 0001:000059A2       loc_4069A2
 0001:000059AE       loc_4069AE
 0001:000059B0       loc_4069B0
 0001:000059CD       loc_4069CD
 0001:000059D6       loc_4069D6
 0001:000059D8       loc_4069D8
 0001:000059E7       loc_4069E7
 0001:000059F6       loc_4069F6
 0001:00005A1F       loc_406A1F
 0001:00005A2B       loc_406A2B
 0001:00005A45       loc_406A45
 0001:00005A54       loc_406A54
 0001:00005A60       loc_406A60
 0001:00005A6A       loc_406A6A
 0001:00005A6E       loc_406A6E
 0001:00005A75       loc_406A75
 0001:00005A84       loc_406A84
 0001:00005A90       loc_406A90
 0001:00005AA6       loc_406AA6
 0001:00005AB5       loc_406AB5
 0001:00005AC1       loc_406AC1
 0001:00005AD3       loc_406AD3
 0001:00005AD9       loc_406AD9
 0001:00005AF9       loc_406AF9
 0001:00005AFF       loc_406AFF
 0001:00005B0E       loc_406B0E
 0001:00005B13       loc_406B13
 0001:00005B1C       loc_406B1C
 0001:00005B31       loc_406B31
 0001:00005B37       loc_406B37
 0001:00005B46       loc_406B46
 0001:00005B4B       loc_406B4B
 0001:00005B55       loc_406B55
 0001:00005B66       loc_406B66
 0001:00005B6C       loc_406B6C
 0001:00005B7B       loc_406B7B
 0001:00005B80       loc_406B80
 0001:00005B87       loc_406B87
 0001:00005B89       loc_406B89
 0001:00005B92       loc_406B92
 0001:00005B9D       loc_406B9D
 0001:00005BC1       loc_406BC1
 0001:00005BEA       loc_406BEA
 0001:00005BF3       loc_406BF3
 0001:00005BF5       loc_406BF5
 0001:00005C03       loc_406C03
 0001:00005C0F       loc_406C0F
 0001:00005C11       loc_406C11
 0001:00005C2E       loc_406C2E
 0001:00005C37       loc_406C37
 0001:00005C39       loc_406C39
 0001:00005C48       loc_406C48
 0001:00005C57       loc_406C57
 0001:00005C80       loc_406C80
 0001:00005C8C       loc_406C8C
 0001:00005CA6       loc_406CA6
 0001:00005CB5       loc_406CB5
 0001:00005CC1       loc_406CC1
 0001:00005CCB       loc_406CCB
 0001:00005CCF       loc_406CCF
 0001:00005CD6       loc_406CD6
 0001:00005CE5       loc_406CE5
 0001:00005CF1       loc_406CF1
 0001:00005D07       loc_406D07
 0001:00005D16       loc_406D16
 0001:00005D22       loc_406D22
 0001:00005D34       loc_406D34
 0001:00005D3A       loc_406D3A
 0001:00005D5A       loc_406D5A
 0001:00005D60       loc_406D60
 0001:00005D6F       loc_406D6F
 0001:00005D74       loc_406D74
 0001:00005D7D       loc_406D7D
 0001:00005D92       loc_406D92
 0001:00005D98       loc_406D98
 0001:00005DA7       loc_406DA7
 0001:00005DAC       loc_406DAC
 0001:00005DB6       loc_406DB6
 0001:00005DC7       loc_406DC7
 0001:00005DCD       loc_406DCD
 0001:00005DDC       loc_406DDC
 0001:00005DE1       loc_406DE1
 0001:00005DE8       loc_406DE8
 0001:00005DEA       loc_406DEA
 0001:00005DF3       loc_406DF3
 0001:00005DFE       loc_406DFE
 0001:00005E23       loc_406E23
 0001:00005E4E       loc_406E4E
 0001:00005E57       loc_406E57
 0001:00005E59       loc_406E59
 0001:00005E68       loc_406E68
 0001:00005E76       loc_406E76
 0001:00005E96       loc_406E96
 0001:00005E9F       loc_406E9F
 0001:00005EA1       loc_406EA1
 0001:00005EAF       loc_406EAF
 0001:00005EBD       loc_406EBD
 0001:00005EE7       loc_406EE7
 0001:00005F10       loc_406F10
 0001:00005F19       loc_406F19
 0001:00005F1B       loc_406F1B
 0001:00005F29       loc_406F29
 0001:00005F37       loc_406F37
 0001:00005F74       loc_406F74
 0001:00005F80       loc_406F80
 0001:00005F9A       loc_406F9A
 0001:00005FAC       loc_406FAC
 0001:00005FB8       loc_406FB8
 0001:00005FC2       loc_406FC2
 0001:00005FD8       loc_406FD8
 0001:00005FE7       loc_406FE7
 0001:00005FF3       loc_406FF3
 0001:00006005       loc_407005
 0001:00006007       loc_407007
 0001:00006012       loc_407012
 0001:00006021       loc_407021
 0001:0000602D       loc_40702D
 0001:00006042       loc_407042
 0001:00006052       loc_407052
 0001:0000605E       loc_40705E
 0001:0000607C       loc_40707C
 0001:0000608B       loc_40708B
 0001:00006097       loc_407097
 0001:000060AC       loc_4070AC
 0001:000060BD       loc_4070BD
 0001:000060C3       loc_4070C3
 0001:000060D7       loc_4070D7
 0001:000060DD       loc_4070DD
 0001:000060EE       loc_4070EE
 0001:000060F4       loc_4070F4
 0001:0000611D       loc_40711D
 0001:00006146       loc_407146
 0001:0000615C       loc_40715C
 0001:00006166       loc_407166
 0001:0000616E       loc_40716E
 0001:00006190       loc_407190
 0001:0000619B       loc_40719B
 0001:000061A0       loc_4071A0
 0001:000061B6       loc_4071B6
 0001:000061DA       loc_4071DA
 0001:000061FE       loc_4071FE
 0001:00006217       loc_407217
 0001:0000622A       loc_40722A
 0001:00006245       loc_407245
 0001:0000624F       loc_40724F
 0001:00006256       loc_407256
 0001:00006258       loc_407258
 0001:0000626B       loc_40726B
 0001:0000627A       loc_40727A
 0001:0000627D       loc_40727D
 0001:00006287       loc_407287
 0001:0000628B       loc_40728B
 0001:00006295       loc_407295
 0001:000062AA       loc_4072AA
 0001:000062DE       loc_4072DE
 0001:000062E5       loc_4072E5
 0001:000062F0       loc_4072F0
 0001:000062FF       loc_4072FF
 0001:0000630A       loc_40730A
 0001:00006326       loc_407326
 0001:0000632B       loc_40732B
 0001:0000633A       loc_40733A
 0001:00006345       loc_407345
 0001:00006352       loc_407352
 0001:0000635E       loc_40735E
 0001:00006369       loc_407369
 0001:00006376       loc_407376
 0001:00006386       loc_407386
 0001:0000638E       loc_40738E
 0001:0000639B       loc_40739B
 0001:000063AB       loc_4073AB
 0001:000063B3       loc_4073B3
 0001:000063C0       loc_4073C0
 0001:000063D0       loc_4073D0
 0001:000063D8       loc_4073D8
 0001:000063E3       loc_4073E3
 0001:000063F6       loc_4073F6
 0001:000063FE       loc_4073FE
 0001:00006401       loc_407401
 0001:00006416       loc_407416
 0001:00006445       loc_407445
 0001:00006474       loc_407474
 0001:0000649C       loc_40749C
 0001:000064A9       loc_4074A9
 0001:000064D1       loc_4074D1
 0001:000064DA       loc_4074DA
 0001:000064EE       loc_4074EE
 0001:00006506       loc_407506
 0001:00006527       loc_407527
 0001:0000652A       loc_40752A
 0001:00006538       off_407538
 0001:00006598       off_407598
 0001:000065C4       sub_4075C4
 0001:00006614       loc_407614
 0001:00006665       loc_407665
 0001:0000668F       loc_40768F
 0001:0000669D       loc_40769D
 0001:000066AB       loc_4076AB
 0001:000066C2       loc_4076C2
 0001:000066D1       loc_4076D1
 0001:000066F0       loc_4076F0
 0001:000066FE       loc_4076FE
 0001:00006717       loc_407717
 0001:0000673D       loc_40773D
 0001:00006766       loc_407766
 0001:00006769       loc_407769
 0001:00006787       loc_407787
 0001:0000679B       loc_40779B
 0001:000067B1       loc_4077B1
 0001:000067BD       loc_4077BD
 0001:000067C1       loc_4077C1
 0001:000067FC       loc_4077FC
 0001:0000680D       loc_40780D
 0001:0000681B       loc_40781B
 0001:00006820       loc_407820
 0001:00006826       loc_407826
 0001:00006829       loc_407829
 0001:0000683D       loc_40783D
 0001:0000687A       loc_40787A
 0001:0000689A       loc_40789A
 0001:000068A8       loc_4078A8
 0001:0000692C       loc_40792C
 0001:00006930       loc_407930
 0001:00006934       loc_407934
 0001:0000697A       loc_40797A
 0001:000069AB       loc_4079AB
 0001:000069AD       loc_4079AD
 0001:000069C7       loc_4079C7
 0001:000069FE       loc_4079FE
 0001:00006A18       loc_407A18
 0001:00006A25       loc_407A25
 0001:00006A46       loc_407A46
 0001:00006A78       loc_407A78
 0001:00006A88       loc_407A88
 0001:00006AA1       loc_407AA1
 0001:00006AAC       loc_407AAC
 0001:00006AC2       loc_407AC2
 0001:00006AE0       loc_407AE0
 0001:00006AEF       loc_407AEF
 0001:00006AFF       loc_407AFF
 0001:00006B0D       loc_407B0D
 0001:00006B24       loc_407B24
 0001:00006B50       loc_407B50
 0001:00006B53       loc_407B53
 0001:00006B66       loc_407B66
 0001:00006B6E       loc_407B6E
 0001:00006B80       loc_407B80
 0001:00006BED       loc_407BED
 0001:00006BF9       loc_407BF9
 0001:00006C1B       loc_407C1B
 0001:00006C28       loc_407C28
 0001:00006C2D       loc_407C2D
 0001:00006C67       loc_407C67
 0001:00006C8D       loc_407C8D
 0001:00006CBE       loc_407CBE
 0001:00006CCA       loc_407CCA
 0001:00006CF0       loc_407CF0
 0001:00006D07       loc_407D07
 0001:00006D0F       loc_407D0F
 0001:00006D18       loc_407D18
 0001:00006D1A       loc_407D1A
 0001:00006D1B       loc_407D1B
 0001:00006D5F       loc_407D5F
 0001:00006D91       loc_407D91
 0001:00006DC9       loc_407DC9
 0001:00006DCC       loc_407DCC
 0001:00006DE9       loc_407DE9
 0001:00006E23       loc_407E23
 0001:00006E6C       loc_407E6C
 0001:00006E95       loc_407E95
 0001:00006EF6       loc_407EF6
 0001:00006F01       loc_407F01
 0001:00006F20       loc_407F20
 0001:00006F33       loc_407F33
 0001:00006F47       loc_407F47
 0001:00006F49       loc_407F49
 0001:00006F4E       loc_407F4E
 0001:00006F50       loc_407F50
 0001:00006F5C       loc_407F5C
 0001:00006F89       loc_407F89
 0001:00006FBC       loc_407FBC
 0001:00006FC3       loc_407FC3
 0001:00006FEF       loc_407FEF
 0001:00007010       loc_408010
 0001:00007029       loc_408029
 0001:0000702E       loc_40802E
 0001:00007035       loc_408035
 0001:00007048       loc_408048
 0001:0000704F       loc_40804F
 0001:00007057       loc_408057
 0001:00007082       loc_408082
 0001:00007087       loc_408087
 0001:00007096       loc_408096
 0001:000070EE       loc_4080EE
 0001:0000710A       loc_40810A
 0001:0000712A       loc_40812A
 0001:00007133       loc_408133
 0001:0000713C       loc_40813C
 0001:00007145       loc_408145
 0001:0000714E       loc_40814E
 0001:00007157       loc_408157
 0001:00007160       loc_408160
 0001:00007169       loc_408169
 0001:00007172       loc_408172
 0001:0000717B       loc_40817B
 0001:00007184       loc_408184
 0001:0000718B       loc_40818B
 0001:00007190       loc_408190
 0001:000071CC       loc_4081CC
 0001:000071E1       loc_4081E1
 0001:00007238       loc_408238
 0001:00007243       loc_408243
 0001:0000724E       loc_40824E
 0001:0000725B       loc_40825B
 0001:00007268       loc_408268
 0001:00007275       loc_408275
 0001:00007280       loc_408280
 0001:00007282       loc_408282
 0001:0000728B       loc_40828B
 0001:00007295       loc_408295
 0001:0000729F       loc_40829F
 0001:000072A9       loc_4082A9
 0001:000072ED       loc_4082ED
 0001:000072F7       loc_4082F7
 0001:00007302       loc_408302
 0001:0000730C       loc_40830C
 0001:00007310       loc_408310
 0001:0000731D       loc_40831D
 0001:00007353       loc_408353
 0001:0000735F       loc_40835F
 0001:00007368       loc_408368
 0001:00007371       loc_408371
 0001:00007389       loc_408389
 0001:00007396       loc_408396
 0001:0000739D       loc_40839D
 0001:000073A4       loc_4083A4
 0001:000073AD       loc_4083AD
 0001:000073B4       loc_4083B4
 0001:000073BE       loc_4083BE
 0001:000073FD       loc_4083FD
 0001:00007400       loc_408400
 0001:0000743E       loc_40843E
 0001:0000744B       loc_40844B
 0001:00007456       loc_408456
 0001:0000745A       loc_40845A
 0001:0000746B       loc_40846B
 0001:0000747A       loc_40847A
 0001:00007485       loc_408485
 0001:00007487       loc_408487
 0001:00007489       loc_408489
 0001:00007495       loc_408495
 0001:000074DA       loc_4084DA
 0001:00007500       loc_408500
 0001:0000752F       loc_40852F
 0001:00007589       loc_408589
 0001:0000759B       loc_40859B
 0001:000075A8       loc_4085A8
 0001:000075C1       loc_4085C1
 0001:000075C9       loc_4085C9
 0001:000075D1       loc_4085D1
 0001:000075D7       loc_4085D7
 0001:000075DE       loc_4085DE
 0001:000075E5       loc_4085E5
 0001:0000762E       loc_40862E
 0001:00007645       loc_408645
 0001:0000764B       loc_40864B
 0001:00007653       loc_408653
 0001:0000765B       loc_40865B
 0001:00007662       loc_408662
 0001:00007666       loc_408666
 0001:0000767E       loc_40867E
 0001:0000768A       loc_40868A
 0001:0000768F       loc_40868F
 0001:00007691       loc_408691
 0001:000076A0       loc_4086A0
 0001:000076B8       loc_4086B8
 0001:000076C4       loc_4086C4
 0001:000076C9       loc_4086C9
 0001:000076CB       loc_4086CB
 0001:000076CF       loc_4086CF
 0001:000076E7       loc_4086E7
 0001:000076F3       loc_4086F3
 0001:000076F8       loc_4086F8
 0001:000076FA       loc_4086FA
 0001:000076FE       loc_4086FE
 0001:00007716       loc_408716
 0001:00007722       loc_408722
 0001:00007727       loc_408727
 0001:00007729       loc_408729
 0001:0000772C       loc_40872C
 0001:00007733       loc_408733
 0001:0000774B       loc_40874B
 0001:00007757       loc_408757
 0001:0000775C       loc_40875C
 0001:0000775E       loc_40875E
 0001:00007761       loc_408761
 0001:00007767       loc_408767
 0001:00007769       loc_408769
 0001:00007775       loc_408775
 0001:00007786       loc_408786
 0001:0000778F       loc_40878F
 0001:000077B2       loc_4087B2
 0001:000077C3       loc_4087C3
 0001:000077CC       loc_4087CC
 0001:000077FA       loc_4087FA
 0001:00007823       loc_408823
 0001:0000782C       loc_40882C
 0001:0000782E       loc_40882E
 0001:00007854       loc_408854
 0001:00007876       loc_408876
 0001:000078B2       loc_4088B2
 0001:000078D1       loc_4088D1
 0001:000078F7       loc_4088F7
 0001:000078FE       loc_4088FE
 0001:00007925       loc_408925
 0001:00007950       loc_408950
 0001:00007967       loc_408967
 0001:0000799C       loc_40899C
 0001:000079A4       loc_4089A4
 0001:000079CD       loc_4089CD
 0001:000079D2       loc_4089D2
 0001:000079D8       loc_4089D8
 0001:000079E0       loc_4089E0
 0001:00007A06       loc_408A06
 0001:00007A11       loc_408A11
 0001:00007A19       loc_408A19
 0001:00007A1F       loc_408A1F
 0001:00007A2C       loc_408A2C
 0001:00007A37       loc_408A37
 0001:00007A3C       loc_408A3C
 0001:00007A3E       loc_408A3E
 0001:00007A3F       loc_408A3F
 0001:00007A42       loc_408A42
 0001:00007A44       loc_408A44
 0001:00007A47       loc_408A47
 0001:00007A65       loc_408A65
 0001:00007A6B       loc_408A6B
 0001:00007A72       loc_408A72
 0001:00007A78       loc_408A78
 0001:00007A93       loc_408A93
 0001:00007AB0       loc_408AB0
 0001:00007AC4       loc_408AC4
 0001:00007AD3       loc_408AD3
 0001:00007ADD       loc_408ADD
 0001:00007AE9       loc_408AE9
 0001:00007AF4       loc_408AF4
 0001:00007B07       loc_408B07
 0001:00007B11       loc_408B11
 0001:00007B1B       loc_408B1B
 0001:00007B22       loc_408B22
 0001:00007B38       loc_408B38
 0001:00007B4E       loc_408B4E
 0001:00007B80       loc_408B80
 0001:00007B8D       loc_408B8D
 0001:00007BA3       loc_408BA3
 0001:00007BAD       loc_408BAD
 0001:00007BC7       loc_408BC7
 0001:00007BF5       loc_408BF5
 0001:00007C2B       loc_408C2B
 0001:00007C4E       loc_408C4E
 0001:00007C6E       loc_408C6E
 0001:00007C82       loc_408C82
 0001:00007C8A       loc_408C8A
 0001:00007C8D       loc_408C8D
 0001:00007CA7       loc_408CA7
 0001:00007CB3       loc_408CB3
 0001:00007CD7       loc_408CD7
 0001:00007CDA       loc_408CDA
 0001:00007D03       loc_408D03
 0001:00007D08       loc_408D08
 0001:00007D0A       loc_408D0A
 0001:00007D17       loc_408D17
 0001:00007D26       loc_408D26
 0001:00007D34       loc_408D34
 0001:00007D4C       loc_408D4C
 0001:00007D7D       loc_408D7D
 0001:00007D8E       loc_408D8E
 0001:00007DA9       loc_408DA9
 0001:00007DB5       loc_408DB5
 0001:00007DC7       loc_408DC7
 0001:00007DDB       loc_408DDB
 0001:00007DDF       loc_408DDF
 0001:00007E00       loc_408E00
 0001:00007E09       loc_408E09
 0001:00007E1A       loc_408E1A
 0001:00007E21       loc_408E21
 0001:00007E26       loc_408E26
 0001:00007E2B       loc_408E2B
 0001:00007E2F       loc_408E2F
 0001:00007E36       loc_408E36
 0001:00007E3A       loc_408E3A
 0001:00007E3F       loc_408E3F
 0001:00007E48       loc_408E48
 0001:00007E56       loc_408E56
 0001:00007E6A       off_408E6A
 0001:00007E9A       off_408E9A
 0001:00007EC2       off_408EC2
 0001:00007EE2       sub_408EE2
 0001:00007F22       sub_408F22
 0001:00007F35       loc_408F35
 0001:00007F48       loc_408F48
 0001:00007F4F       loc_408F4F
 0001:00007F62       loc_408F62
 0001:00007F75       loc_408F75
 0001:00007FB4       loc_408FB4
 0001:00007FBF       loc_408FBF
 0001:00007FC4       sub_408FC4
 0001:00007FD8       loc_408FD8
 0001:00007FEB       loc_408FEB
 0001:00007FF4       sub_408FF4
 0001:00008019       loc_409019
 0001:0000801D       sub_40901D
 0001:00008039       loc_409039
 0001:0000803D       sub_40903D
 0001:0000804F       loc_40904F
 0001:00008070       loc_409070
 0001:00008072       loc_409072
 0001:00008099       loc_409099
 0001:000080AD       loc_4090AD
 0001:000080B0       loc_4090B0
 0001:000080BF       loc_4090BF
 0001:000080CB       loc_4090CB
 0001:000080CE       locret_4090CE
 0001:000080D1       sub_4090D1
 0001:000080E5       loc_4090E5
 0001:00008106       loc_409106
 0001:00008108       loc_409108
 0001:0000812F       loc_40912F
 0001:00008143       loc_409143
 0001:00008146       loc_409146
 0001:00008155       loc_409155
 0001:00008161       loc_409161
 0001:00008164       locret_409164
 0001:00008167       sub_409167
 0001:0000817D       loc_40917D
 0001:0000819B       loc_40919B
 0001:0000819E       loc_40919E
 0001:000081D9       loc_4091D9
 0001:000081EA       loc_4091EA
 0001:000081EE       loc_4091EE
 0001:000081F1       loc_4091F1
 0001:00008202       loc_409202
 0001:000082A2       loc_4092A2
 0001:000082B9       loc_4092B9
 0001:000082C2       loc_4092C2
 0001:000082CB       loc_4092CB
 0001:000082D4       loc_4092D4
 0001:000082DD       loc_4092DD
 0001:000082E6       loc_4092E6
 0001:000082EF       loc_4092EF
 0001:000082F8       loc_4092F8
 0001:000082FE       loc_4092FE
 0001:00008303       sub_409303
 0001:0000834F       loc_40934F
 0001:00008367       loc_409367
 0001:00008376       loc_409376
 0001:00008378       loc_409378
 0001:0000837D       loc_40937D
 0001:00008380       loc_409380
 0001:000083A5       loc_4093A5
 0001:000083D8       loc_4093D8
 0001:000083DE       loc_4093DE
 0001:0000840C       loc_40940C
 0001:0000842E       loc_40942E
 0001:0000845C       loc_40945C
 0001:00008466       loc_409466
 0001:00008483       loc_409483
 0001:00008487       loc_409487
 0001:0000849A       loc_40949A
 0001:000084D4       loc_4094D4
 0001:000084DD       loc_4094DD
 0001:00008523       loc_409523
 0001:0000854E       loc_40954E
 0001:00008558       loc_409558
 0001:00008565       loc_409565
 0001:00008584       loc_409584
 0001:00008588       loc_409588
 0001:0000858A       loc_40958A
 0001:0000859B       loc_40959B
 0001:000085EB       loc_4095EB
 0001:00008601       loc_409601
 0001:00008608       loc_409608
 0001:0000860A       loc_40960A
 0001:00008647       loc_409647
 0001:00008667       loc_409667
 0001:0000867A       loc_40967A
 0001:0000869B       loc_40969B
 0001:000086BB       loc_4096BB
 0001:000086C6       loc_4096C6
 0001:000086FE       loc_4096FE
 0001:0000871A       loc_40971A
 0001:0000872A       loc_40972A
 0001:0000873E       loc_40973E
 0001:00008744       loc_409744
 0001:0000875F       loc_40975F
 0001:000087B4       loc_4097B4
 0001:000087CD       loc_4097CD
 0001:000087E4       loc_4097E4
 0001:000087EE       loc_4097EE
 0001:000087F1       loc_4097F1
 0001:00008814       loc_409814
 0001:00008822       loc_409822
 0001:00008827       loc_409827
 0001:00008835       loc_409835
 0001:00008848       loc_409848
 0001:0000884D       loc_40984D
 0001:0000885E       loc_40985E
 0001:00008866       loc_409866
 0001:0000886B       loc_40986B
 0001:0000887C       loc_40987C
 0001:00008880       loc_409880
 0001:0000888F       loc_40988F
 0001:00008891       loc_409891
 0001:000088B2       loc_4098B2
 0001:000088E5       loc_4098E5
 0001:0000890C       loc_40990C
 0001:00008927       loc_409927
 0001:00008935       loc_409935
 0001:00008939       loc_409939
 0001:00008947       loc_409947
 0001:0000895A       loc_40995A
 0001:0000895F       loc_40995F
 0001:00008972       loc_409972
 0001:00008977       loc_409977
 0001:00008987       loc_409987
 0001:00008989       loc_409989
 0001:0000898C       loc_40998C
 0001:00008991       loc_409991
 0001:000089A2       loc_4099A2
 0001:000089B3       loc_4099B3
 0001:000089B4       loc_4099B4
 0001:000089BD       loc_4099BD
 0001:000089C8       loc_4099C8
 0001:000089D3       sub_4099D3
 0001:00008A2D       loc_409A2D
 0001:00008A3F       loc_409A3F
 0001:00008A4F       loc_409A4F
 0001:00008A52       loc_409A52
 0001:00008A64       loc_409A64
 0001:00008A6F       loc_409A6F
 0001:00008A77       loc_409A77
 0001:00008A8C       loc_409A8C
 0001:00008A93       loc_409A93
 0001:00008AAA       loc_409AAA
 0001:00008AB8       loc_409AB8
 0001:00008AC9       loc_409AC9
 0001:00008AE2       loc_409AE2
 0001:00008AEC       loc_409AEC
 0001:00008AFF       loc_409AFF
 0001:00008B18       loc_409B18
 0001:00008B46       loc_409B46
 0001:00008B63       loc_409B63
 0001:00008B71       loc_409B71
 0001:00008B7B       loc_409B7B
 0001:00008B92       sub_409B92
 0001:00008BBE       loc_409BBE
 0001:00008BCA       loc_409BCA
 0001:00008BDE       loc_409BDE
 0001:00008BF7       loc_409BF7
 0001:00008C22       loc_409C22
 0001:00008C29       loc_409C29
 0001:00008C54       loc_409C54
 0001:00008C6D       loc_409C6D
 0001:00008C74       loc_409C74
 0001:00008C7D       loc_409C7D
 0001:00008C84       loc_409C84
 0001:00008C9C       loc_409C9C
 0001:00008CB7       loc_409CB7
 0001:00008CBC       loc_409CBC
 0001:00008CC8       loc_409CC8
 0001:00008CD4       loc_409CD4
 0001:00008CE4       loc_409CE4
 0001:00008CED       loc_409CED
 0001:00008CF5       loc_409CF5
 0001:00008CFA       loc_409CFA
 0001:00008D04       loc_409D04
 0001:00008D09       sub_409D09
 0001:00008D3F       loc_409D3F
 0001:00008D49       loc_409D49
 0001:00008D5D       loc_409D5D
 0001:00008D9E       loc_409D9E
 0001:00008DC6       loc_409DC6
 0001:00008DDD       loc_409DDD
 0001:00008DE4       loc_409DE4
 0001:00008DEA       loc_409DEA
 0001:00008DF1       loc_409DF1
 0001:00008E2A       loc_409E2A
 0001:00008E4E       loc_409E4E
 0001:00008E7C       loc_409E7C
 0001:00008E87       loc_409E87
 0001:00008E8E       loc_409E8E
 0001:00008EA0       loc_409EA0
 0001:00008EB4       loc_409EB4
 0001:00008EC5       loc_409EC5
 0001:00008ED2       loc_409ED2
 0001:00008ED4       loc_409ED4
 0001:00008EE5       loc_409EE5
 0001:00008EEF       loc_409EEF
 0001:00008EF4       sub_409EF4
 0001:00008F00       loc_409F00
 0001:00008F02       loc_409F02
 0001:00008F19       loc_409F19
 0001:00008F1B       sub_409F1B
 0001:00008F5C       loc_409F5C
 0001:00008F83       loc_409F83
 0001:00008F87       loc_409F87
 0001:00008FCC       loc_409FCC
 0001:00008FF7       loc_409FF7
 0001:00009021       loc_40A021
 0001:00009024       loc_40A024
 0001:00009077       loc_40A077
 0001:00009085       loc_40A085
 0001:000090A3       loc_40A0A3
 0001:000090B4       loc_40A0B4
 0001:000090C8       loc_40A0C8
 0001:000090E9       loc_40A0E9
 0001:000090F0       loc_40A0F0
 0001:000090FF       loc_40A0FF
 0001:00009104       loc_40A104
 0001:00009110       loc_40A110
 0001:00009115       loc_40A115
 0001:00009124       loc_40A124
 0001:00009127       loc_40A127
 0001:00009134       sub_40A134
 0001:00009175       loc_40A175
 0001:0000919C       loc_40A19C
 0001:000091A0       loc_40A1A0
 0001:000091D2       loc_40A1D2
 0001:000091DE       loc_40A1DE
 0001:000091E2       loc_40A1E2
 0001:00009200       loc_40A200
 0001:0000922C       loc_40A22C
 0001:0000923F       loc_40A23F
 0001:00009242       loc_40A242
 0001:0000928C       loc_40A28C
 0001:0000929A       loc_40A29A
 0001:000092B8       loc_40A2B8
 0001:000092C9       loc_40A2C9
 0001:000092DD       loc_40A2DD
 0001:000092F7       loc_40A2F7
 0001:00009313       loc_40A313
 0001:00009322       loc_40A322
 0001:00009327       loc_40A327
 0001:00009333       loc_40A333
 0001:00009338       loc_40A338
 0001:00009347       loc_40A347
 0001:0000934A       loc_40A34A
 0001:00009357       sub_40A357
 0001:000093B8       loc_40A3B8
 0001:000093D8       loc_40A3D8
 0001:000093F9       loc_40A3F9
 0001:0000942B       loc_40A42B
 0001:0000942F       loc_40A42F
 0001:0000943A       loc_40A43A
 0001:0000944E       loc_40A44E
 0001:00009469       loc_40A469
 0001:00009477       loc_40A477
 0001:00009481       loc_40A481
 0001:00009488       loc_40A488
 0001:000094BE       loc_40A4BE
 0001:000094C6       loc_40A4C6
 0001:000094D0       loc_40A4D0
 0001:000094D7       loc_40A4D7
 0001:000094E3       loc_40A4E3
 0001:000094E8       loc_40A4E8
 0001:000094F7       loc_40A4F7
 0001:00009534       loc_40A534
 0001:0000953C       loc_40A53C
 0001:00009550       loc_40A550
 0001:00009581       loc_40A581
 0001:000095E1       loc_40A5E1
 0001:000095EE       loc_40A5EE
 0001:00009606       loc_40A606
 0001:00009609       loc_40A609
 0001:00009614       loc_40A614
 0001:0000961E       sub_40A61E
 0001:0000962C       loc_40A62C
 0001:00009630       loc_40A630
 0001:0000963A       loc_40A63A
 0001:0000963D       loc_40A63D
 0001:00009657       loc_40A657
 0001:00009659       loc_40A659
 0001:00009667       loc_40A667
 0001:0000966D       sub_40A66D
 0001:00009687       loc_40A687
 0001:0000968B       loc_40A68B
 0001:00009697       loc_40A697
 0001:0000969F       loc_40A69F
 0001:000096A5       loc_40A6A5
 0001:000096B1       loc_40A6B1
 0001:000096B4       loc_40A6B4
 0001:000096B6       loc_40A6B6
 0001:000096B8       sub_40A6B8
 0001:000096D3       sub_40A6D3
 0001:00009708       loc_40A708
 0001:00009712       loc_40A712
 0001:00009714       loc_40A714
 0001:00009718       __vsnprintf
 0001:0000975B       loc_40A75B
 0001:00009768       loc_40A768
 0001:0000976E       sub_40A76E
 0001:0000978A       loc_40A78A
 0001:000097AC       loc_40A7AC
 0001:000097AF       _sprintf
 0001:000097F4       loc_40A7F4
 0001:00009801       loc_40A801
 0001:00009807       _printf
 0001:00009838       sub_40A838
 0001:00009888       sub_40A888
 0001:00009974       sub_40A974
 0001:00009984       loc_40A984
 0001:00009991       loc_40A991
 0001:0000999E       loc_40A99E
 0001:000099C1       loc_40A9C1
 0001:000099C3       loc_40A9C3
 0001:000099C4       loc_40A9C4
 0001:000099C6       loc_40A9C6
 0001:000099CB       loc_40A9CB
 0001:000099E4       loc_40A9E4
 0001:00009A05       loc_40AA05
 0001:00009A23       loc_40AA23
 0001:00009A2D       loc_40AA2D
 0001:00009A3A       loc_40AA3A
 0001:00009A3E       loc_40AA3E
 0001:00009A4B       loc_40AA4B
 0001:00009A52       loc_40AA52
 0001:00009A59       sub_40AA59
 0001:00009A6B       loc_40AA6B
 0001:00009A72       loc_40AA72
 0001:00009A91       loc_40AA91
 0001:00009AA2       loc_40AAA2
 0001:00009AA6       loc_40AAA6
 0001:00009ABC       loc_40AABC
 0001:00009AC4       loc_40AAC4
 0001:00009AC8       loc_40AAC8
 0001:00009AFD       loc_40AAFD
 0001:00009B05       loc_40AB05
 0001:00009B14       loc_40AB14
 0001:00009B26       loc_40AB26
 0001:00009B36       loc_40AB36
 0001:00009B44       loc_40AB44
 0001:00009B49       loc_40AB49
 0001:00009B5B       loc_40AB5B
 0001:00009B86       loc_40AB86
 0001:00009BCF       loc_40ABCF
 0001:00009BF5       loc_40ABF5
 0001:00009C02       loc_40AC02
 0001:00009C05       loc_40AC05
 0001:00009C0A       loc_40AC0A
 0001:00009C0C       loc_40AC0C
 0001:00009C0E       loc_40AC0E
 0001:00009C0F       locret_40AC0F
 0001:00009C13       sub_40AC13
 0001:00009C7E       loc_40AC7E
 0001:00009E6A       loc_40AE6A
 0001:00009EC1       loc_40AEC1
 0001:00009EE2       loc_40AEE2
 0001:00009F03       loc_40AF03
 0001:00009F24       loc_40AF24
 0001:00009F45       loc_40AF45
 0001:00009F66       loc_40AF66
 0001:00009F87       loc_40AF87
 0001:00009FDE       loc_40AFDE
 0001:00009FFF       loc_40AFFF
 0001:0000A020       loc_40B020
 0001:0000A041       loc_40B041
 0001:0000A062       loc_40B062
 0001:0000A083       loc_40B083
 0001:0000A0A4       loc_40B0A4
 0001:0000A0C5       loc_40B0C5
 0001:0000A0E6       loc_40B0E6
 0001:0000A107       loc_40B107
 0001:0000A128       loc_40B128
 0001:0000A149       loc_40B149
 0001:0000A16A       loc_40B16A
 0001:0000A18B       loc_40B18B
 0001:0000A1AC       loc_40B1AC
 0001:0000A1CD       loc_40B1CD
 0001:0000A1EE       loc_40B1EE
 0001:0000A20F       loc_40B20F
 0001:0000A230       loc_40B230
 0001:0000A251       loc_40B251
 0001:0000A272       loc_40B272
 0001:0000A293       loc_40B293
 0001:0000A2B4       loc_40B2B4
 0001:0000A2D5       loc_40B2D5
 0001:0000A32C       loc_40B32C
 0001:0000A34D       loc_40B34D
 0001:0000A364       loc_40B364
 0001:0000A36E       loc_40B36E
 0001:0000A38F       loc_40B38F
 0001:0000A4BE       loc_40B4BE
 0001:0000A4DF       loc_40B4DF
 0001:0000A595       loc_40B595
 0001:0000A5D6       loc_40B5D6
 0001:0000A5F7       loc_40B5F7
 0001:0000A636       loc_40B636
 0001:0000A657       loc_40B657
 0001:0000A678       loc_40B678
 0001:0000A699       loc_40B699
 0001:0000A6BA       loc_40B6BA
 0001:0000A6DB       loc_40B6DB
 0001:0000A6FC       loc_40B6FC
 0001:0000A71D       loc_40B71D
 0001:0000A7AF       loc_40B7AF
 0001:0000A7B9       loc_40B7B9
 0001:0000A7C3       loc_40B7C3
 0001:0000A802       loc_40B802
 0001:0000A823       loc_40B823
 0001:0000A844       loc_40B844
 0001:0000A865       loc_40B865
 0001:0000A88A       loc_40B88A
 0001:0000A8A5       loc_40B8A5
 0001:0000A8C0       loc_40B8C0
 0001:0000A8DB       loc_40B8DB
 0001:0000A8F6       loc_40B8F6
 0001:0000A911       loc_40B911
 0001:0000A92C       loc_40B92C
 0001:0000A947       loc_40B947
 0001:0000A962       loc_40B962
 0001:0000A97D       loc_40B97D
 0001:0000A998       loc_40B998
 0001:0000A9B3       loc_40B9B3
 0001:0000A9CE       loc_40B9CE
 0001:0000A9E9       loc_40B9E9
 0001:0000AA97       loc_40BA97
 0001:0000AAB2       loc_40BAB2
 0001:0000AAEF       loc_40BAEF
 0001:0000AB0A       loc_40BB0A
 0001:0000AB12       loc_40BB12
 0001:0000AB1C       loc_40BB1C
 0001:0000AB26       loc_40BB26
 0001:0000AB30       loc_40BB30
 0001:0000AB3A       loc_40BB3A
 0001:0000AB44       loc_40BB44
 0001:0000AB4E       loc_40BB4E
 0001:0000AB58       loc_40BB58
 0001:0000AB62       loc_40BB62
 0001:0000AB6C       loc_40BB6C
 0001:0000AB76       loc_40BB76
 0001:0000AB80       loc_40BB80
 0001:0000AB8A       loc_40BB8A
 0001:0000AB94       loc_40BB94
 0001:0000AB9E       loc_40BB9E
 0001:0000ABA8       loc_40BBA8
 0001:0000ABF5       loc_40BBF5
 0001:0000AC0E       loc_40BC0E
 0001:0000AC11       loc_40BC11
 0001:0000AC2F       loc_40BC2F
 0001:0000AC4F       loc_40BC4F
 0001:0000AC54       loc_40BC54
 0001:0000AC57       sub_40BC57
 0001:0000AC8B       loc_40BC8B
 0001:0000AC91       locret_40BC91
 0001:0000AC94       sub_40BC94
 0001:0000ACB3       loc_40BCB3
 0001:0000ACC4       loc_40BCC4
 0001:0000ACE2       loc_40BCE2
 0001:0000ACEC       loc_40BCEC
 0001:0000AD4D       loc_40BD4D
 0001:0000AD5C       loc_40BD5C
 0001:0000AD63       loc_40BD63
 0001:0000ADA2       loc_40BDA2
 0001:0000ADAF       loc_40BDAF
 0001:0000ADE5       loc_40BDE5
 0001:0000ADE7       loc_40BDE7
 0001:0000ADF5       loc_40BDF5
 0001:0000AE14       loc_40BE14
 0001:0000AE20       loc_40BE20
 0001:0000AE2E       loc_40BE2E
 0001:0000AE36       loc_40BE36
 0001:0000AE47       loc_40BE47
 0001:0000AE4A       loc_40BE4A
 0001:0000AE70       loc_40BE70
 0001:0000AE8A       loc_40BE8A
 0001:0000AE9B       loc_40BE9B
 0001:0000AEA1       loc_40BEA1
 0001:0000AEB2       loc_40BEB2
 0001:0000AEB8       loc_40BEB8
 0001:0000AEC9       loc_40BEC9
 0001:0000AECF       loc_40BECF
 0001:0000AEE9       loc_40BEE9
 0001:0000AEF3       loc_40BEF3
 0001:0000AF0C       loc_40BF0C
 0001:0000AF3B       loc_40BF3B
 0001:0000AF44       loc_40BF44
 0001:0000AF5A       loc_40BF5A
 0001:0000AF69       loc_40BF69
 0001:0000AF7C       loc_40BF7C
 0001:0000AF7F       loc_40BF7F
 0001:0000AF89       loc_40BF89
 0001:0000AF93       loc_40BF93
 0001:0000AF9D       loc_40BF9D
 0001:0000AFC1       loc_40BFC1
 0001:0000AFD0       loc_40BFD0
 0001:0000AFE5       loc_40BFE5
 0001:0000AFFC       loc_40BFFC
 0001:0000B002       loc_40C002
 0001:0000B00F       loc_40C00F
 0001:0000B029       loc_40C029
 0001:0000B047       loc_40C047
 0001:0000B06A       loc_40C06A
 0001:0000B096       loc_40C096
 0001:0000B09A       loc_40C09A
 0001:0000B09F       loc_40C09F
 0001:0000B0E3       loc_40C0E3
 0001:0000B0F0       loc_40C0F0
 0001:0000B0F1       loc_40C0F1
 0001:0000B0F7       sub_40C0F7
 0001:0000B10A       loc_40C10A
 0001:0000B13A       loc_40C13A
 0001:0000B140       sub_40C140
 0001:0000B168       loc_40C168
 0001:0000B172       loc_40C172
 0001:0000B179       loc_40C179
 0001:0000B1AB       loc_40C1AB
 0001:0000B1C0       loc_40C1C0
 0001:0000B1DE       loc_40C1DE
 0001:0000B1F2       loc_40C1F2
 0001:0000B1F6       loc_40C1F6
 0001:0000B204       loc_40C204
 0001:0000B227       loc_40C227
 0001:0000B23A       loc_40C23A
 0001:0000B255       loc_40C255
 0001:0000B284       loc_40C284
 0001:0000B293       loc_40C293
 0001:0000B297       loc_40C297
 0001:0000B2A3       loc_40C2A3
 0001:0000B2AD       loc_40C2AD
 0001:0000B2BD       loc_40C2BD
 0001:0000B2DE       loc_40C2DE
 0001:0000B2E7       loc_40C2E7
 0001:0000B2F0       loc_40C2F0
 0001:0000B31A       loc_40C31A
 0001:0000B31F       loc_40C31F
 0001:0000B328       loc_40C328
 0001:0000B342       loc_40C342
 0001:0000B34D       loc_40C34D
 0001:0000B359       loc_40C359
 0001:0000B365       loc_40C365
 0001:0000B38F       loc_40C38F
 0001:0000B394       loc_40C394
 0001:0000B3A0       loc_40C3A0
 0001:0000B3A9       loc_40C3A9
 0001:0000B3C8       loc_40C3C8
 0001:0000B3D5       loc_40C3D5
 0001:0000B3E3       loc_40C3E3
 0001:0000B3EA       loc_40C3EA
 0001:0000B3EC       loc_40C3EC
 0001:0000B3ED       loc_40C3ED
 0001:0000B3F3       sub_40C3F3
 0001:0000B400       loc_40C400
 0001:0000B402       loc_40C402
 0001:0000B42A       loc_40C42A
 0001:0000B42D       sub_40C42D
 0001:0000B499       loc_40C499
 0001:0000B507       loc_40C507
 0001:0000B512       loc_40C512
 0001:0000B518       loc_40C518
 0001:0000B536       loc_40C536
 0001:0000B537       loc_40C537
 0001:0000B53B       sub_40C53B
 0001:0000B546       loc_40C546
 0001:0000B552       loc_40C552
 0001:0000B556       sub_40C556
 0001:0000B562       loc_40C562
 0001:0000B57E       loc_40C57E
 0001:0000B591       loc_40C591
 0001:0000B594       locret_40C594
 0001:0000B597       sub_40C597
 0001:0000B5A7       loc_40C5A7
 0001:0000B5C5       loc_40C5C5
 0001:0000B5EC       loc_40C5EC
 0001:0000B5FD       loc_40C5FD
 0001:0000B609       loc_40C609
 0001:0000B60B       locret_40C60B
 0001:0000B60E       sub_40C60E
 0001:0000B62D       loc_40C62D
 0001:0000B64A       loc_40C64A
 0001:0000B654       loc_40C654
 0001:0000B680       loc_40C680
 0001:0000B68B       loc_40C68B
 0001:0000B693       loc_40C693
 0001:0000B6BD       loc_40C6BD
 0001:0000B6C8       loc_40C6C8
 0001:0000B6CB       loc_40C6CB
 0001:0000B6CC       loc_40C6CC
 0001:0000B6D0       sub_40C6D0
 0001:0000B719       loc_40C719
 0001:0000B724       sub_40C724
 0001:0000B735       loc_40C735
 0001:0000B737       loc_40C737
 0001:0000B758       loc_40C758
 0001:0000B7A5       loc_40C7A5
 0001:0000B7AB       sub_40C7AB
 0001:0000B7B7       loc_40C7B7
 0001:0000B7B9       loc_40C7B9
 0001:0000B7C3       loc_40C7C3
 0001:0000B7D1       loc_40C7D1
 0001:0000B7E5       loc_40C7E5
 0001:0000B809       loc_40C809
 0001:0000B80A       loc_40C80A
 0001:0000B80B       loc_40C80B
 0001:0000B80F       sub_40C80F
 0001:0000B829       sub_40C829
 0001:0000B83F       sub_40C83F
 0001:0000B877       sub_40C877
 0001:0000B885       loc_40C885
 0001:0000B88A       sub_40C88A
 0001:0000B898       loc_40C898
 0001:0000B89D       sub_40C89D
 0001:0000B8BF       loc_40C8BF
 0001:0000B8CC       sub_40C8CC
 0001:0000B8F1       loc_40C8F1
 0001:0000B91B       loc_40C91B
 0001:0000B931       loc_40C931
 0001:0000B983       loc_40C983
 0001:0000B9C2       loc_40C9C2
 0001:0000B9F5       loc_40C9F5
 0001:0000BA2A       loc_40CA2A
 0001:0000BA41       loc_40CA41
 0001:0000BA46       loc_40CA46
 0001:0000BA76       loc_40CA76
 0001:0000BA79       loc_40CA79
 0001:0000BA7A       loc_40CA7A
 0001:0000BABA       loc_40CABA
 0001:0000BADC       loc_40CADC
 0001:0000BAEC       loc_40CAEC
 0001:0000BB07       loc_40CB07
 0001:0000BB1F       loc_40CB1F
 0001:0000BB24       loc_40CB24
 0001:0000BB45       loc_40CB45
 0001:0000BB50       loc_40CB50
 0001:0000BB5F       loc_40CB5F
 0001:0000BB8A       loc_40CB8A
 0001:0000BBBF       loc_40CBBF
 0001:0000BBC5       loc_40CBC5
 0001:0000BBE8       loc_40CBE8
 0001:0000BC08       loc_40CC08
 0001:0000BC22       loc_40CC22
 0001:0000BC8B       loc_40CC8B
 0001:0000BCB7       loc_40CCB7
 0001:0000BCC0       loc_40CCC0
 0001:0000BCC8       loc_40CCC8
 0001:0000BCD1       loc_40CCD1
 0001:0000BCEC       loc_40CCEC
 0001:0000BD03       loc_40CD03
 0001:0000BD1D       loc_40CD1D
 0001:0000BD24       loc_40CD24
 0001:0000BD2D       loc_40CD2D
 0001:0000BD6F       loc_40CD6F
 0001:0000BD8D       loc_40CD8D
 0001:0000BDCC       loc_40CDCC
 0001:0000BDD6       loc_40CDD6
 0001:0000BE27       loc_40CE27
 0001:0000BE29       loc_40CE29
 0001:0000BE70       loc_40CE70
 0001:0000BE91       loc_40CE91
 0001:0000BEA1       loc_40CEA1
 0001:0000BEAB       loc_40CEAB
 0001:0000BEB6       loc_40CEB6
 0001:0000BEBF       loc_40CEBF
 0001:0000BEC5       loc_40CEC5
 0001:0000BEF0       loc_40CEF0
 0001:0000BF09       loc_40CF09
 0001:0000BF1C       loc_40CF1C
 0001:0000BF1E       loc_40CF1E
 0001:0000BF24       sub_40CF24
 0001:0000BF5B       loc_40CF5B
 0001:0000BF5F       loc_40CF5F
 0001:0000BF84       loc_40CF84
 0001:0000BF9D       loc_40CF9D
 0001:0000BFA1       loc_40CFA1
 0001:0000BFC1       loc_40CFC1
 0001:0000BFE6       loc_40CFE6
 0001:0000BFFC       loc_40CFFC
 0001:0000C000       loc_40D000
 0001:0000C003       loc_40D003
 0001:0000C02F       loc_40D02F
 0001:0000C036       loc_40D036
 0001:0000C03A       loc_40D03A
 0001:0000C043       loc_40D043
 0001:0000C04C       loc_40D04C
 0001:0000C083       loc_40D083
 0001:0000C08A       loc_40D08A
 0001:0000C099       loc_40D099
 0001:0000C0B6       loc_40D0B6
 0001:0000C0C8       loc_40D0C8
 0001:0000C0E4       loc_40D0E4
 0001:0000C116       loc_40D116
 0001:0000C132       loc_40D132
 0001:0000C14B       loc_40D14B
 0001:0000C18D       loc_40D18D
 0001:0000C194       loc_40D194
 0001:0000C1AA       loc_40D1AA
 0001:0000C1FE       loc_40D1FE
 0001:0000C202       loc_40D202
 0001:0000C23F       loc_40D23F
 0001:0000C246       loc_40D246
 0001:0000C24D       loc_40D24D
 0001:0000C257       loc_40D257
 0001:0000C261       loc_40D261
 0001:0000C286       loc_40D286
 0001:0000C2BA       loc_40D2BA
 0001:0000C2DE       loc_40D2DE
 0001:0000C2FE       loc_40D2FE
 0001:0000C34F       loc_40D34F
 0001:0000C35D       loc_40D35D
 0001:0000C379       loc_40D379
 0001:0000C3A2       loc_40D3A2
 0001:0000C3A7       loc_40D3A7
 0001:0000C3C9       loc_40D3C9
 0001:0000C3E1       loc_40D3E1
 0001:0000C3E6       loc_40D3E6
 0001:0000C3FD       loc_40D3FD
 0001:0000C405       loc_40D405
 0001:0000C40B       loc_40D40B
 0001:0000C411       loc_40D411
 0001:0000C418       loc_40D418
 0001:0000C42F       loc_40D42F
 0001:0000C447       loc_40D447
 0001:0000C463       loc_40D463
 0001:0000C47E       loc_40D47E
 0001:0000C481       loc_40D481
 0001:0000C49C       loc_40D49C
 0001:0000C4B2       loc_40D4B2
 0001:0000C4C2       loc_40D4C2
 0001:0000C4C7       loc_40D4C7
 0001:0000C4CF       loc_40D4CF
 0001:0000C4DB       loc_40D4DB
 0001:0000C4E3       loc_40D4E3
 0001:0000C4FF       loc_40D4FF
 0001:0000C510       loc_40D510
 0001:0000C512       loc_40D512
 0001:0000C54C       loc_40D54C
 0001:0000C555       loc_40D555
 0001:0000C571       loc_40D571
 0001:0000C57E       loc_40D57E
 0001:0000C58A       loc_40D58A
 0001:0000C5C3       loc_40D5C3
 0001:0000C5CA       loc_40D5CA
 0001:0000C5CF       loc_40D5CF
 0001:0000C5D3       loc_40D5D3
 0001:0000C5FF       loc_40D5FF
 0001:0000C62F       loc_40D62F
 0001:0000C663       loc_40D663
 0001:0000C684       loc_40D684
 0001:0000C6D3       loc_40D6D3
 0001:0000C707       loc_40D707
 0001:0000C72C       loc_40D72C
 0001:0000C752       loc_40D752
 0001:0000C769       loc_40D769
 0001:0000C76C       loc_40D76C
 0001:0000C76E       loc_40D76E
 0001:0000C771       loc_40D771
 0001:0000C77A       loc_40D77A
 0001:0000C77E       loc_40D77E
 0001:0000C7A2       loc_40D7A2
 0001:0000C7AF       loc_40D7AF
 0001:0000C7D6       loc_40D7D6
 0001:0000C7DE       loc_40D7DE
 0001:0000C804       loc_40D804
 0001:0000C813       sub_40D813
 0001:0000C82C       loc_40D82C
 0001:0000C84C       locret_40D84C
 0001:0000C84F       sub_40D84F
 0001:0000C895       loc_40D895
 0001:0000C8AA       loc_40D8AA
 0001:0000C8B5       loc_40D8B5
 0001:0000C8C1       loc_40D8C1
 0001:0000C8D4       loc_40D8D4
 0001:0000C8F2       loc_40D8F2
 0001:0000C90B       loc_40D90B
 0001:0000C938       loc_40D938
 0001:0000C939       loc_40D939
 0001:0000C93D       sub_40D93D
 0001:0000C979       loc_40D979
 0001:0000C988       loc_40D988
 0001:0000C9C4       loc_40D9C4
 0001:0000CA01       loc_40DA01
 0001:0000CA95       loc_40DA95
 0001:0000CAC0       loc_40DAC0
 0001:0000CB1E       loc_40DB1E
 0001:0000CB59       loc_40DB59
 0001:0000CB99       loc_40DB99
 0001:0000CBA7       loc_40DBA7
 0001:0000CBB8       loc_40DBB8
 0001:0000CBC8       loc_40DBC8
 0001:0000CBCD       loc_40DBCD
 0001:0000CBCF       loc_40DBCF
 0001:0000CBD4       sub_40DBD4
 0001:0000CC06       sub_40DC06
 0001:0000CC23       loc_40DC23
 0001:0000CC53       loc_40DC53
 0001:0000CC72       loc_40DC72
 0001:0000CC9B       loc_40DC9B
 0001:0000CCAB       loc_40DCAB
 0001:0000CCB3       loc_40DCB3
 0001:0000CCD1       loc_40DCD1
 0001:0000CCE8       loc_40DCE8
 0001:0000CCEC       sub_40DCEC
 0001:0000CD43       loc_40DD43
 0001:0000CDA9       loc_40DDA9
 0001:0000CDB8       loc_40DDB8
 0001:0000CDE1       loc_40DDE1
 0001:0000CE00       loc_40DE00
 0001:0000CE02       loc_40DE02
 0001:0000CE0C       sub_40DE0C
 0001:0000CE63       loc_40DE63
 0001:0000CE6B       loc_40DE6B
 0001:0000CE6E       sub_40DE6E
 0001:0000CEA0       loc_40DEA0
 0001:0000CEB3       loc_40DEB3
 0001:0000CEC8       loc_40DEC8
 0001:0000CED6       loc_40DED6
 0001:0000CEDB       loc_40DEDB
 0001:0000CEE4       loc_40DEE4
 0001:0000CEF1       loc_40DEF1
 0001:0000CF0A       loc_40DF0A
 0001:0000CF49       loc_40DF49
 0001:0000CF54       loc_40DF54
 0001:0000CFB6       loc_40DFB6
 0001:0000CFE3       loc_40DFE3
 0001:0000D04E       loc_40E04E
 0001:0000D0C7       loc_40E0C7
 0001:0000D0D3       loc_40E0D3
 0001:0000D0DF       loc_40E0DF
 0001:0000D0E8       loc_40E0E8
 0001:0000D0F5       loc_40E0F5
 0001:0000D14B       loc_40E14B
 0001:0000D192       loc_40E192
 0001:0000D1D1       loc_40E1D1
 0001:0000D20A       loc_40E20A
 0001:0000D211       loc_40E211
 0001:0000D22C       loc_40E22C
 0001:0000D242       loc_40E242
 0001:0000D244       loc_40E244
 0001:0000D250       loc_40E250
 0001:0000D26E       loc_40E26E
 0001:0000D289       loc_40E289
 0001:0000D2AF       loc_40E2AF
 0001:0000D2DF       loc_40E2DF
 0001:0000D304       loc_40E304
 0001:0000D31C       loc_40E31C
 0001:0000D320       loc_40E320
 0001:0000D324       loc_40E324
 0001:0000D32F       loc_40E32F
 0001:0000D355       loc_40E355
 0001:0000D3B0       loc_40E3B0
 0001:0000D3BF       loc_40E3BF
 0001:0000D3C1       loc_40E3C1
 0001:0000D3CC       loc_40E3CC
 0001:0000D3D8       loc_40E3D8
 0001:0000D3ED       loc_40E3ED
 0001:0000D3F6       loc_40E3F6
 0001:0000D3FE       loc_40E3FE
 0001:0000D405       loc_40E405
 0001:0000D44D       loc_40E44D
 0001:0000D456       loc_40E456
 0001:0000D461       loc_40E461
 0001:0000D4C5       loc_40E4C5
 0001:0000D4DA       loc_40E4DA
 0001:0000D513       loc_40E513
 0001:0000D53C       loc_40E53C
 0001:0000D560       loc_40E560
 0001:0000D56B       loc_40E56B
 0001:0000D57C       loc_40E57C
 0001:0000D5A8       loc_40E5A8
 0001:0000D5B8       loc_40E5B8
 0001:0000D5CD       loc_40E5CD
 0001:0000D5FD       loc_40E5FD
 0001:0000D610       loc_40E610
 0001:0000D672       loc_40E672
 0001:0000D679       loc_40E679
 0001:0000D683       loc_40E683
 0001:0000D6C4       loc_40E6C4
 0001:0000D6D7       loc_40E6D7
 0001:0000D6DA       loc_40E6DA
 0001:0000D722       loc_40E722
 0001:0000D732       loc_40E732
 0001:0000D742       loc_40E742
 0001:0000D755       loc_40E755
 0001:0000D766       loc_40E766
 0001:0000D76B       loc_40E76B
 0001:0000D77E       loc_40E77E
 0001:0000D7A7       loc_40E7A7
 0001:0000D7AF       loc_40E7AF
 0001:0000D7B1       loc_40E7B1
 0001:0000D7C7       loc_40E7C7
 0001:0000D7EC       loc_40E7EC
 0001:0000D837       loc_40E837
 0001:0000D83B       loc_40E83B
 0001:0000D868       loc_40E868
 0001:0000D8AF       loc_40E8AF
 0001:0000D8E5       loc_40E8E5
 0001:0000D8ED       loc_40E8ED
 0001:0000D8F4       loc_40E8F4
 0001:0000D8FA       loc_40E8FA
 0001:0000D901       loc_40E901
 0001:0000D90D       loc_40E90D
 0001:0000D945       loc_40E945
 0001:0000D9DA       loc_40E9DA
 0001:0000D9DE       loc_40E9DE
 0001:0000D9E1       loc_40E9E1
 0001:0000D9E4       loc_40E9E4
 0001:0000D9EE       loc_40E9EE
 0001:0000D9F5       loc_40E9F5
 0001:0000DA14       loc_40EA14
 0001:0000DA3A       loc_40EA3A
 0001:0000DA40       loc_40EA40
 0001:0000DA52       loc_40EA52
 0001:0000DA7D       loc_40EA7D
 0001:0000DAF8       loc_40EAF8
 0001:0000DB0E       loc_40EB0E
 0001:0000DB33       loc_40EB33
 0001:0000DB38       loc_40EB38
 0001:0000DB3A       loc_40EB3A
 0001:0000DB6B       loc_40EB6B
 0001:0000DBD1       loc_40EBD1
 0001:0000DBF4       loc_40EBF4
 0001:0000DC1A       loc_40EC1A
 0001:0000DC27       loc_40EC27
 0001:0000DC32       loc_40EC32
 0001:0000DC3B       loc_40EC3B
 0001:0000DC47       loc_40EC47
 0001:0000DC4A       loc_40EC4A
 0001:0000DC59       loc_40EC59
 0001:0000DC6F       loc_40EC6F
 0001:0000DC81       loc_40EC81
 0001:0000DCB4       loc_40ECB4
 0001:0000DCDF       loc_40ECDF
 0001:0000DCF2       loc_40ECF2
 0001:0000DCFB       loc_40ECFB
 0001:0000DCFE       loc_40ECFE
 0001:0000DD08       loc_40ED08
 0001:0000DD10       loc_40ED10
 0001:0000DD11       loc_40ED11
 0001:0000DD1B       loc_40ED1B
 0001:0000DD23       loc_40ED23
 0001:0000DD24       loc_40ED24
 0001:0000DD2D       loc_40ED2D
 0001:0000DD32       loc_40ED32
 0001:0000DD68       loc_40ED68
 0001:0000DD71       loc_40ED71
 0001:0000DD79       loc_40ED79
 0001:0000DD93       loc_40ED93
 0001:0000DDA0       loc_40EDA0
 0001:0000DDCA       loc_40EDCA
 0001:0000DDCC       loc_40EDCC
 0001:0000DDED       loc_40EDED
 0001:0000DDF3       loc_40EDF3
 0001:0000DDF9       loc_40EDF9
 0001:0000DDFF       loc_40EDFF
 0001:0000DE11       loc_40EE11
 0001:0000DE2B       loc_40EE2B
 0001:0000DE43       loc_40EE43
 0001:0000DE50       loc_40EE50
 0001:0000DE61       loc_40EE61
 0001:0000DE9E       loc_40EE9E
 0001:0000DEAA       loc_40EEAA
 0001:0000DECC       loc_40EECC
 0001:0000DEFF       loc_40EEFF
 0001:0000DF0C       loc_40EF0C
 0001:0000DF48       sub_40EF48
 0001:0000DF68       loc_40EF68
 0001:0000DF80       loc_40EF80
 0001:0000DF89       sub_40EF89
 0001:0000DF92       loc_40EF92
 0001:0000DFD5       loc_40EFD5
 0001:0000DFDE       sub_40EFDE
 0001:0000DFFB       loc_40EFFB
 0001:0000E012       loc_40F012
 0001:0000E04E       loc_40F04E
 0001:0000E070       loc_40F070
 0001:0000E0A4       loc_40F0A4
 0001:0000E10A       loc_40F10A
 0001:0000E112       loc_40F112
 0001:0000E11B       loc_40F11B
 0001:0000E126       loc_40F126
 0001:0000E133       loc_40F133
 0001:0000E135       loc_40F135
 0001:0000E19F       loc_40F19F
 0001:0000E1B4       loc_40F1B4
 0001:0000E1FD       loc_40F1FD
 0001:0000E21E       loc_40F21E
 0001:0000E22A       loc_40F22A
 0001:0000E250       loc_40F250
 0001:0000E29B       loc_40F29B
 0001:0000E2B6       loc_40F2B6
 0001:0000E2EE       loc_40F2EE
 0001:0000E31C       loc_40F31C
 0001:0000E338       loc_40F338
 0001:0000E34F       loc_40F34F
 0001:0000E377       loc_40F377
 0001:0000E3AC       loc_40F3AC
 0001:0000E3B3       loc_40F3B3
 0001:0000E3D3       loc_40F3D3
 0001:0000E3E1       loc_40F3E1
 0001:0000E4A9       loc_40F4A9
 0001:0000E4BB       loc_40F4BB
 0001:0000E4D1       loc_40F4D1
 0001:0000E4D4       loc_40F4D4
 0001:0000E4E8       loc_40F4E8
 0001:0000E502       loc_40F502
 0001:0000E50F       loc_40F50F
 0001:0000E524       loc_40F524
 0001:0000E527       loc_40F527
 0001:0000E537       loc_40F537
 0001:0000E57A       loc_40F57A
 0001:0000E57D       loc_40F57D
 0001:0000E59B       loc_40F59B
 0001:0000E5AD       loc_40F5AD
 0001:0000E5E0       loc_40F5E0
 0001:0000E5E8       loc_40F5E8
 0001:0000E5EF       sub_40F5EF
 0001:0000E628       loc_40F628
 0001:0000E651       loc_40F651
 0001:0000E658       loc_40F658
 0001:0000E65F       loc_40F65F
 0001:0000E6C1       loc_40F6C1
 0001:0000E6CB       loc_40F6CB
 0001:0000E71A       loc_40F71A
 0001:0000E735       loc_40F735
 0001:0000E748       loc_40F748
 0001:0000E754       loc_40F754
 0001:0000E75B       sub_40F75B
 0001:0000E7F2       loc_40F7F2
 0001:0000E882       loc_40F882
 0001:0000E887       loc_40F887
 0001:0000E88F       loc_40F88F
 0001:0000E8A5       loc_40F8A5
 0001:0000E8B2       loc_40F8B2
 0001:0000E8B4       loc_40F8B4
 0001:0000E8B8       loc_40F8B8
 0001:0000E8C1       sub_40F8C1
 0001:0000E8DF       loc_40F8DF
 0001:0000E909       loc_40F909
 0001:0000E939       loc_40F939
 0001:0000E95D       loc_40F95D
 0001:0000E95F       loc_40F95F
 0001:0000E972       loc_40F972
 0001:0000E97C       loc_40F97C
 0001:0000E988       loc_40F988
 0001:0000E9A7       loc_40F9A7
 0001:0000E9AB       loc_40F9AB
 0001:0000E9BB       sub_40F9BB
 0001:0000EA08       loc_40FA08
 0001:0000EA10       loc_40FA10
 0001:0000EA13       loc_40FA13
 0001:0000EA3A       loc_40FA3A
 0001:0000EA3D       loc_40FA3D
 0001:0000EA62       loc_40FA62
 0001:0000EA73       loc_40FA73
 0001:0000EA9E       loc_40FA9E
 0001:0000EAB2       loc_40FAB2
 0001:0000EAFE       loc_40FAFE
 0001:0000EB2D       loc_40FB2D
 0001:0000EB34       sub_40FB34
 0001:0000EB4F       loc_40FB4F
 0001:0000EB99       loc_40FB99
 0001:0000EBA7       loc_40FBA7
 0001:0000EBB1       loc_40FBB1
 0001:0000EBB9       loc_40FBB9
 0001:0000EBC1       loc_40FBC1
 0001:0000EBC6       loc_40FBC6
 0001:0000EBCB       loc_40FBCB
 0001:0000EBD6       loc_40FBD6
 0001:0000EBDB       loc_40FBDB
 0001:0000EBEF       loc_40FBEF
 0001:0000EBF5       loc_40FBF5
 0001:0000EBF9       loc_40FBF9
 0001:0000EC02       loc_40FC02
 0001:0000EC26       loc_40FC26
 0001:0000EC31       loc_40FC31
 0001:0000EC39       loc_40FC39
 0001:0000EC3E       loc_40FC3E
 0001:0000EC48       loc_40FC48
 0001:0000EC4A       loc_40FC4A
 0001:0000EC5A       loc_40FC5A
 0001:0000EC5D       loc_40FC5D
 0001:0000EC5F       sub_40FC5F
 0001:0000EC95       loc_40FC95
 0001:0000ECB4       sub_40FCB4
 0001:0000ECD3       loc_40FCD3
 0001:0000ECEF       loc_40FCEF
 0001:0000ECFB       loc_40FCFB
 0001:0000ED06       loc_40FD06
 0001:0000ED0C       loc_40FD0C
 0001:0000ED20       loc_40FD20
 0001:0000ED3B       loc_40FD3B
 0001:0000ED3D       sub_40FD3D
 0001:0000ED74       loc_40FD74
 0001:0000ED8F       loc_40FD8F
 0001:0000EDA6       loc_40FDA6
 0001:0000EDA9       loc_40FDA9
 0001:0000EDAC       sub_40FDAC
 0001:0000EDE0       loc_40FDE0
 0001:0000EDE9       loc_40FDE9
 0001:0000EE09       loc_40FE09
 0001:0000EE0C       loc_40FE0C
 0001:0000EE1E       loc_40FE1E
 0001:0000EE25       loc_40FE25
 0001:0000EE36       loc_40FE36
 0001:0000EE56       loc_40FE56
 0001:0000EE58       loc_40FE58
 0001:0000EE74       loc_40FE74
 0001:0000EE77       loc_40FE77
 0001:0000EE97       loc_40FE97
 0001:0000EE9F       loc_40FE9F
 0001:0000EEA5       loc_40FEA5
 0001:0000EEA8       loc_40FEA8
 0001:0000EEA9       loc_40FEA9
 0001:0000EEAC       sub_40FEAC
 0001:0000EEBD       loc_40FEBD
 0001:0000EEC2       loc_40FEC2
 0001:0000EECA       loc_40FECA
 0001:0000EED1       loc_40FED1
 0001:0000EED4       sub_40FED4
 0001:0000EEDE       loc_40FEDE
 0001:0000EEE4       loc_40FEE4
 0001:0000EEF2       loc_40FEF2
 0001:0000EEFA       loc_40FEFA
 0001:0000EEFE       sub_40FEFE
 0001:0000EF30       loc_40FF30
 0001:0000EF35       loc_40FF35
 0001:0000EF39       sub_40FF39
 0001:0000EF47       loc_40FF47
 0001:0000EF55       loc_40FF55
 0001:0000EF5B       sub_40FF5B
 0001:0000EFDF       loc_40FFDF
 0001:0000F036       loc_410036
 0001:0000F03B       loc_41003B
 0001:0000F04F       loc_41004F
 0001:0000F06C       loc_41006C
 0001:0000F07B       loc_41007B
 0001:0000F0C3       loc_4100C3
 0001:0000F0F0       loc_4100F0
 0001:0000F0F9       loc_4100F9
 0001:0000F102       loc_410102
 0001:0000F10B       loc_41010B
 0001:0000F114       loc_410114
 0001:0000F127       loc_410127
 0001:0000F16A       loc_41016A
 0001:0000F176       loc_410176
 0001:0000F185       loc_410185
 0001:0000F199       loc_410199
 0001:0000F19F       loc_41019F
 0001:0000F1A5       loc_4101A5
 0001:0000F1A9       loc_4101A9
 0001:0000F1AC       loc_4101AC
 0001:0000F1D1       loc_4101D1
 0001:0000F1E9       loc_4101E9
 0001:0000F215       loc_410215
 0001:0000F221       loc_410221
 0001:0000F242       loc_410242
 0001:0000F246       loc_410246
 0001:0000F297       loc_410297
 0001:0000F29B       loc_41029B
 0001:0000F2A7       loc_4102A7
 0001:0000F2B4       loc_4102B4
 0001:0000F2C4       loc_4102C4
 0001:0000F2DB       loc_4102DB
 0001:0000F2EE       loc_4102EE
 0001:0000F2F1       loc_4102F1
 0001:0000F316       loc_410316
 0001:0000F325       loc_410325
 0001:0000F332       loc_410332
 0001:0000F341       loc_410341
 0001:0000F352       loc_410352
 0001:0000F365       loc_410365
 0001:0000F36D       loc_41036D
 0001:0000F376       sub_410376
 0001:0000F3A7       loc_4103A7
 0001:0000F3A9       loc_4103A9
 0001:0000F3D7       loc_4103D7
 0001:0000F3E6       loc_4103E6
 0001:0000F3EA       loc_4103EA
 0001:0000F401       sub_410401
 0001:0000F42E       loc_41042E
 0001:0000F445       loc_410445
 0001:0000F45C       loc_41045C
 0001:0000F473       loc_410473
 0001:0000F48A       loc_41048A
 0001:0000F4A8       loc_4104A8
 0001:0000F4BF       loc_4104BF
 0001:0000F4D6       loc_4104D6
 0001:0000F4DB       sub_4104DB
 0001:0000F4FD       loc_4104FD
 0001:0000F51C       loc_41051C
 0001:0000F521       loc_410521
 0001:0000F53E       loc_41053E
 0001:0000F541       loc_410541
 0001:0000F545       loc_410545
 0001:0000F55D       loc_41055D
 0001:0000F564       loc_410564
 0001:0000F57F       loc_41057F
 0001:0000F5A5       loc_4105A5
 0001:0000F5F9       loc_4105F9
 0001:0000F605       loc_410605
 0001:0000F615       loc_410615
 0001:0000F61F       loc_41061F
 0001:0000F62A       loc_41062A
 0001:0000F634       loc_410634
 0001:0000F636       loc_410636
 0001:0000F63B       loc_41063B
 0001:0000F647       loc_410647
 0001:0000F655       sub_410655
 0001:0000F6BB       loc_4106BB
 0001:0000F6D7       loc_4106D7
 0001:0000F6F0       loc_4106F0
 0001:0000F703       loc_410703
 0001:0000F70E       loc_41070E
 0001:0000F71E       loc_41071E
 0001:0000F72B       loc_41072B
 0001:0000F788       loc_410788
 0001:0000F790       loc_410790
 0001:0000F79A       loc_41079A
 0001:0000F7BB       loc_4107BB
 0001:0000F7BF       loc_4107BF
 0001:0000F7DF       loc_4107DF
 0001:0000F7F5       loc_4107F5
 0001:0000F802       loc_410802
 0001:0000F81F       loc_41081F
 0001:0000F832       loc_410832
 0001:0000F836       loc_410836
 0001:0000F83A       loc_41083A
 0001:0000F855       loc_410855
 0001:0000F85F       loc_41085F
 0001:0000F871       loc_410871
 0001:0000F879       loc_410879
 0001:0000F87F       loc_41087F
 0001:0000F89A       loc_41089A
 0001:0000F8B1       loc_4108B1
 0001:0000F8CA       loc_4108CA
 0001:0000F8CD       loc_4108CD
 0001:0000F8D1       loc_4108D1
 0001:0000F8D5       loc_4108D5
 0001:0000F8F5       loc_4108F5
 0001:0000F8FC       loc_4108FC
 0001:0000F90C       loc_41090C
 0001:0000F921       loc_410921
 0001:0000F92B       loc_41092B
 0001:0000F92F       loc_41092F
 0001:0000F965       loc_410965
 0001:0000F96F       loc_41096F
 0001:0000F99A       loc_41099A
 0001:0000F9A4       loc_4109A4
 0001:0000F9AC       loc_4109AC
 0001:0000F9B6       loc_4109B6
 0001:0000F9C8       loc_4109C8
 0001:0000FA19       loc_410A19
 0001:0000FA40       loc_410A40
 0001:0000FA51       loc_410A51
 0001:0000FA68       loc_410A68
 0001:0000FA8E       loc_410A8E
 0001:0000FA9A       loc_410A9A
 0001:0000FAA0       loc_410AA0
 0001:0000FACC       loc_410ACC
 0001:0000FAD8       loc_410AD8
 0001:0000FADC       loc_410ADC
 0001:0000FAE8       loc_410AE8
 0001:0000FAF5       loc_410AF5
 0001:0000FB07       loc_410B07
 0001:0000FB12       loc_410B12
 0001:0000FB4D       loc_410B4D
 0001:0000FB4F       loc_410B4F
 0001:0000FB6B       loc_410B6B
 0001:0000FB80       loc_410B80
 0001:0000FB8B       loc_410B8B
 0001:0000FB8E       loc_410B8E
 0001:0000FB8F       loc_410B8F
 0001:0000FB93       sub_410B93
 0001:0000FBC4       loc_410BC4
 0001:0000FC20       loc_410C20
 0001:0000FC2D       loc_410C2D
 0001:0000FC2F       loc_410C2F
 0001:0000FC35       loc_410C35
 0001:0000FC3E       sub_410C3E
 0001:0000FC56       loc_410C56
 0001:0000FC67       loc_410C67
 0001:0000FC6A       locret_410C6A
 0001:0000FC6B       loc_410C6B
 0001:0000FC74       sub_410C74
 0001:0000FCD7       loc_410CD7
 0001:0000FCF0       loc_410CF0
 0001:0000FD00       loc_410D00
 0001:0000FD5C       loc_410D5C
 0001:0000FD5F       sub_410D5F
 0001:0000FD84       loc_410D84
 0001:0000FDC3       loc_410DC3
 0001:0000FDC6       loc_410DC6
 0001:0000FE1A       loc_410E1A
 0001:0000FE2A       loc_410E2A
 0001:0000FE68       loc_410E68
 0001:0000FE86       loc_410E86
 0001:0000FEA3       loc_410EA3
 0001:0000FED4       loc_410ED4
 0001:0000FF10       loc_410F10
 0001:0000FF2E       loc_410F2E
 0001:0000FF44       loc_410F44
 0001:0000FF48       loc_410F48
 0001:0000FF60       loc_410F60
 0001:0000FF6C       loc_410F6C
 0001:0000FF6F       loc_410F6F
 0001:0000FF82       loc_410F82
 0001:0000FFA7       loc_410FA7
 0001:0000FFAA       loc_410FAA
 0001:0000FFAF       sub_410FAF
 0001:0000FFCA       loc_410FCA
 0001:0000FFE2       loc_410FE2
 0001:0000FFEC       loc_410FEC
 0001:0000FFEF       loc_410FEF
 0001:0000FFF8       loc_410FF8
 0001:00010002       loc_411002
 0001:0001000F       loc_41100F
 0001:0001005D       loc_41105D
 0001:00010071       loc_411071
 0001:00010090       loc_411090
 0001:000100A6       loc_4110A6
 0001:000100BA       loc_4110BA
 0001:000100C0       loc_4110C0
 0001:000100C7       loc_4110C7
 0001:000100D2       loc_4110D2
 0001:000100D9       loc_4110D9
 0001:000100ED       loc_4110ED
 0001:000100F3       loc_4110F3
 0001:000100FA       loc_4110FA
 0001:00010107       loc_411107
 0001:00010118       loc_411118
 0001:0001011E       loc_41111E
 0001:00010125       loc_411125
 0001:0001012E       loc_41112E
 0001:00010150       loc_411150
 0001:00010161       loc_411161
 0001:00010167       loc_411167
 0001:0001016E       loc_41116E
 0001:0001017A       loc_41117A
 0001:0001017E       loc_41117E
 0001:00010182       loc_411182
 0001:00010184       loc_411184
 0001:00010193       loc_411193
 0001:000101DF       loc_4111DF
 0001:000101FA       loc_4111FA
 0001:00010201       loc_411201
 0001:0001020D       loc_41120D
 0001:0001023C       loc_41123C
 0001:00010241       loc_411241
 0001:00010244       sub_411244
 0001:00010265       loc_411265
 0001:00010287       loc_411287
 0001:0001028A       loc_41128A
 0001:000102A3       loc_4112A3
 0001:000102AA       loc_4112AA
 0001:000102B1       loc_4112B1
 0001:000102B8       loc_4112B8
 0001:000102BF       loc_4112BF
 0001:000102C4       loc_4112C4
 0001:000102CF       loc_4112CF
 0001:000102E6       loc_4112E6
 0001:000102F5       loc_4112F5
 0001:000102FC       loc_4112FC
 0001:00010304       loc_411304
 0001:0001030A       loc_41130A
 0001:0001030F       loc_41130F
 0001:0001031E       loc_41131E
 0001:0001035A       loc_41135A
 0001:00010366       sub_411366
 0001:00010373       loc_411373
 0001:000103B2       loc_4113B2
 0001:000103BF       loc_4113BF
 0001:000103C1       sub_4113C1
 0001:000103CF       loc_4113CF
 0001:000103F0       sub_4113F0
 0001:00010426       locret_411426
 0001:00010427       sub_411427
 0001:0001045D       locret_41145D
 0001:0001045E       sub_41145E
 0001:00010487       loc_411487
 0001:000104AE       loc_4114AE
 0001:000104B4       sub_4114B4
 0001:000104F2       loc_4114F2
 0001:0001050F       loc_41150F
 0001:0001051E       loc_41151E
 0001:00010521       loc_411521
 0001:00010544       loc_411544
 0001:0001054A       loc_41154A
 0001:00010553       loc_411553
 0001:00010563       loc_411563
 0001:0001056C       loc_41156C
 0001:0001057E       loc_41157E
 0001:00010594       loc_411594
 0001:000105B4       loc_4115B4
 0001:000105C1       loc_4115C1
 0001:000105EC       loc_4115EC
 0001:00010610       loc_411610
 0001:0001061D       loc_41161D
 0001:00010632       loc_411632
 0001:00010644       loc_411644
 0001:0001067B       loc_41167B
 0001:00010698       loc_411698
 0001:0001069B       loc_41169B
 0001:000106A1       loc_4116A1
 0001:000106A4       loc_4116A4
 0001:000106C7       loc_4116C7
 0001:000106DB       loc_4116DB
 0001:000106EF       loc_4116EF
 0001:000106F3       loc_4116F3
 0001:0001070E       loc_41170E
 0001:0001071A       loc_41171A
 0001:00010730       loc_411730
 0001:00010739       loc_411739
 0001:00010740       loc_411740
 0001:00010755       loc_411755
 0001:00010779       loc_411779
 0001:00010780       loc_411780
 0001:00010794       loc_411794
 0001:0001079B       loc_41179B
 0001:000107E7       loc_4117E7
 0001:000107EC       sub_4117EC
 0001:00010828       loc_411828
 0001:0001083A       loc_41183A
 0001:0001083E       loc_41183E
 0001:0001084B       loc_41184B
 0001:00010864       loc_411864
 0001:00010868       loc_411868
 0001:0001086D       loc_41186D
 0001:00010885       loc_411885
 0001:000108A1       loc_4118A1
 0001:000108A4       loc_4118A4
 0001:000108A8       loc_4118A8
 0001:000108B9       loc_4118B9
 0001:000108BB       loc_4118BB
 0001:000108C0       sub_4118C0
 0001:000108CE       loc_4118CE
 0001:000108D8       loc_4118D8
 0001:000108F7       loc_4118F7
 0001:000108FC       loc_4118FC
 0001:00010901       loc_411901
 0001:00010904       loc_411904
 0001:0001092C       sub_41192C
 0001:00010938       loc_411938
 0001:00010944       loc_411944
 0001:0001094B       loc_41194B
 0001:0001095C       locret_41195C
 0001:0001095D       sub_41195D
 0001:00010994       loc_411994
 0001:00010997       locret_411997
 0001:0001099A       sub_41199A
 0001:000109A9       loc_4119A9
 0001:000109B4       sub_4119B4
 0001:000109E0       loc_4119E0
 0001:00010A23       loc_411A23
 0001:00010A27       loc_411A27
 0001:00010A32       loc_411A32
 0001:00010A38       loc_411A38
 0001:00010A3D       loc_411A3D
 0001:00010A42       sub_411A42
 0001:00010A52       loc_411A52
 0001:00010A5D       loc_411A5D
 0001:00010A68       loc_411A68
 0001:00010A80       loc_411A80
 0001:00010A9E       loc_411A9E
 0001:00010AA6       loc_411AA6
 0001:00010AA9       loc_411AA9
 0001:00010AB0       loc_411AB0
 0001:00010AB2       loc_411AB2
 0001:00010AB7       loc_411AB7
 0001:00010ABB       sub_411ABB
 0001:00010ACA       loc_411ACA
 0001:00010AD2       locret_411AD2
 0001:00010AD5       sub_411AD5
 0001:00010AE3       loc_411AE3
 0001:00010AE9       locret_411AE9
 0001:00010AEC       sub_411AEC
 0001:00010AF2       loc_411AF2
 0001:00010B28       loc_411B28
 0001:00010B2B       loc_411B2B
 0001:00010B33       loc_411B33
 0001:00010B37       sub_411B37
 0001:00010B68       loc_411B68
 0001:00010BF5       loc_411BF5
 0001:00010C08       loc_411C08
 0001:00010C0F       loc_411C0F
 0001:00010C1F       loc_411C1F
 0001:00010C3D       loc_411C3D
 0001:00010C5D       loc_411C5D
 0001:00010C67       loc_411C67
 0001:00010C6C       loc_411C6C
 0001:00010C99       loc_411C99
 0001:00010C9B       loc_411C9B
 0001:00010CA0       sub_411CA0
 0001:00010CC8       loc_411CC8
 0001:00010CD4       sub_411CD4
 0001:00010D07       loc_411D07
 0001:00010D1F       loc_411D1F
 0001:00010D47       loc_411D47
 0001:00010D54       loc_411D54
 0001:00010D69       loc_411D69
 0001:00010D6C       sub_411D6C
 0001:00010DB5       loc_411DB5
 0001:00010DD9       loc_411DD9
 0001:00010DEA       loc_411DEA
 0001:00010DF0       loc_411DF0
 0001:00010E2C       loc_411E2C
 0001:00010E4F       loc_411E4F
 0001:00010E6E       loc_411E6E
 0001:00010E76       loc_411E76
 0001:00010E85       loc_411E85
 0001:00010E92       loc_411E92
 0001:00010E9F       loc_411E9F
 0001:00010EA6       loc_411EA6
 0001:00010EAB       sub_411EAB
 0001:00010ED0       loc_411ED0
 0001:00010F2D       loc_411F2D
 0001:00010F66       loc_411F66
 0001:00010F6E       loc_411F6E
 0001:00010F76       loc_411F76
 0001:00010F7E       loc_411F7E
 0001:00010F86       loc_411F86
 0001:00010F8E       loc_411F8E
 0001:00010FB8       loc_411FB8
 0001:00010FC0       loc_411FC0
 0001:00010FC8       loc_411FC8
 0001:00010FD0       loc_411FD0
 0001:00010FD6       loc_411FD6
 0001:00010FEC       loc_411FEC
 0001:00010FFA       loc_411FFA
 0001:00011005       loc_412005
 0001:0001100C       loc_41200C
 0001:0001100F       sub_41200F
 0001:00011024       loc_412024
 0001:00011026       loc_412026
 0001:00011040       sub_412040
 0001:000110CC       loc_4120CC
 0001:000110CE       loc_4120CE
 0001:000110E1       loc_4120E1
 0001:000110E3       loc_4120E3
 0001:000110F6       loc_4120F6
 0001:000110F8       loc_4120F8
 0001:000110FE       sub_4120FE
 0001:00011108       loc_412108
 0001:00011129       loc_412129
 0001:00011149       loc_412149
 0001:0001115A       loc_41215A
 0001:0001116B       loc_41216B
 0001:0001117C       loc_41217C
 0001:0001117E       sub_41217E
 0001:0001118B       loc_41218B
 0001:00011192       loc_412192
 0001:00011199       loc_412199
 0001:000111A0       locret_4121A0
 0001:000111A1       sub_4121A1
 0001:000111AF       loc_4121AF
 0001:000111B7       loc_4121B7
 0001:000111BF       loc_4121BF
 0001:000111C7       locret_4121C7
 0001:000111C8       sub_4121C8
 0001:00011269       loc_412269
 0001:0001127C       loc_41227C
 0001:0001127F       loc_41227F
 0001:00011316       loc_412316
 0001:0001131D       loc_41231D
 0001:00011324       loc_412324
 0001:0001132B       loc_41232B
 0001:00011332       loc_412332
 0001:00011336       loc_412336
 0001:0001133D       loc_41233D
 0001:0001134E       loc_41234E
 0001:0001135E       sub_41235E
 0001:0001138B       loc_41238B
 0001:00011393       loc_412393
 0001:0001139C       loc_41239C
 0001:000113AF       loc_4123AF
 0001:000113B7       loc_4123B7
 0001:000113CB       locret_4123CB
 0001:000113CC       sub_4123CC
 0001:000113F7       loc_4123F7
 0001:00011407       loc_412407
 0001:00011421       locret_412421
 0001:00011422       sub_412422
 0001:00011437       loc_412437
 0001:0001143A       loc_41243A
 0001:0001145B       loc_41245B
 0001:0001146D       loc_41246D
 0001:00011488       loc_412488
 0001:0001148F       locret_41248F
 0001:00011490       sub_412490
 0001:000114A4       loc_4124A4
 0001:000114CA       loc_4124CA
 0001:000114DF       loc_4124DF
 0001:000114E7       loc_4124E7
 0001:000114F1       loc_4124F1
 0001:00011505       loc_412505
 0001:00011510       loc_412510
 0001:0001151E       loc_41251E
 0001:0001152C       loc_41252C
 0001:00011542       loc_412542
 0001:00011548       loc_412548
 0001:00011551       loc_412551
 0001:00011555       loc_412555
 0001:00011558       sub_412558
 0001:0001156E       loc_41256E
 0001:000115A5       loc_4125A5
 0001:000115B4       loc_4125B4
 0001:000115C3       loc_4125C3
 0001:000115D2       loc_4125D2
 0001:000115E1       loc_4125E1
 0001:000115F0       loc_4125F0
 0001:000115FC       loc_4125FC
 0001:0001160E       loc_41260E
 0001:00011632       loc_412632
 0001:00011634       loc_412634
 0001:00011646       loc_412646
 0001:00011649       loc_412649
 0001:0001165B       loc_41265B
 0001:0001165E       loc_41265E
 0001:00011670       loc_412670
 0001:00011673       loc_412673
 0001:00011685       loc_412685
 0001:00011688       loc_412688
 0001:00011689       loc_412689
 0001:000116C6       loc_4126C6
 0001:000116CC       sub_4126CC
 0001:00011705       loc_412705
 0001:0001170C       loc_41270C
 0001:00011710       loc_412710
 0001:00011720       loc_412720
 0001:00011724       loc_412724
 0001:00011735       loc_412735
 0001:0001173A       loc_41273A
 0001:0001174B       loc_41274B
 0001:0001174F       loc_41274F
 0001:00011766       loc_412766
 0001:0001176B       loc_41276B
 0001:00011780       loc_412780
 0001:00011784       loc_412784
 0001:000117AC       loc_4127AC
 0001:000117B0       loc_4127B0
 0001:000117CD       loc_4127CD
 0001:000117D1       loc_4127D1
 0001:000117E5       loc_4127E5
 0001:000117E9       loc_4127E9
 0001:000117FE       loc_4127FE
 0001:00011802       loc_412802
 0001:00011817       loc_412817
 0001:0001181B       loc_41281B
 0001:00011829       loc_412829
 0001:0001182D       loc_41282D
 0001:0001183B       loc_41283B
 0001:0001183F       loc_41283F
 0001:00011876       loc_412876
 0001:0001187E       loc_41287E
 0001:00011894       loc_412894
 0001:0001189D       loc_41289D
 0001:000118BE       loc_4128BE
 0001:000118D8       loc_4128D8
 0001:000118E2       loc_4128E2
 0001:0001190C       loc_41290C
 0001:00011914       loc_412914
 0001:00011935       loc_412935
 0001:0001194F       loc_41294F
 0001:00011959       loc_412959
 0001:00011978       loc_412978
 0001:00011991       loc_412991
 0001:000119BD       loc_4129BD
 0001:000119C4       loc_4129C4
 0001:000119E5       loc_4129E5
 0001:000119FE       loc_4129FE
 0001:00011A08       loc_412A08
 0001:00011A2B       loc_412A2B
 0001:00011A3B       loc_412A3B
 0001:00011A57       loc_412A57
 0001:00011A6B       loc_412A6B
 0001:00011AB0       loc_412AB0
 0001:00011AB9       loc_412AB9
 0001:00011ACF       loc_412ACF
 0001:00011AF0       loc_412AF0
 0001:00011B0F       loc_412B0F
 0001:00011B18       loc_412B18
 0001:00011B29       loc_412B29
 0001:00011B31       loc_412B31
 0001:00011B4D       loc_412B4D
 0001:00011B62       loc_412B62
 0001:00011B6A       loc_412B6A
 0001:00011B83       loc_412B83
 0001:00011B9B       loc_412B9B
 0001:00011BA3       loc_412BA3
 0001:00011BBC       loc_412BBC
 0001:00011BD4       loc_412BD4
 0001:00011BDC       loc_412BDC
 0001:00011BF8       loc_412BF8
 0001:00011C0E       loc_412C0E
 0001:00011C2D       loc_412C2D
 0001:00011C4B       loc_412C4B
 0001:00011C5E       loc_412C5E
 0001:00011C61       loc_412C61
 0001:00011C6E       loc_412C6E
 0001:00011C83       loc_412C83
 0001:00011C9C       loc_412C9C
 0001:00011CAE       loc_412CAE
 0001:00011CAF       loc_412CAF
 0001:00011CB3       loc_412CB3
 0001:00011CB7       sub_412CB7
 0001:00011CFD       sub_412CFD
 0001:00011D2A       loc_412D2A
 0001:00011D4D       loc_412D4D
 0001:00011D51       loc_412D51
 0001:00011D5C       loc_412D5C
 0001:00011D60       loc_412D60
 0001:00011D73       loc_412D73
 0001:00011D86       loc_412D86
 0001:00011D87       loc_412D87
 0001:00011DA5       loc_412DA5
 0001:00011DBD       loc_412DBD
 0001:00011DC1       loc_412DC1
 0001:00011DC3       loc_412DC3
 0001:00011DC6       loc_412DC6
 0001:00011E0A       loc_412E0A
 0001:00011E1C       loc_412E1C
 0001:00011E42       loc_412E42
 0001:00011E4A       loc_412E4A
 0001:00011E5C       loc_412E5C
 0001:00011E64       loc_412E64
 0001:00011E76       loc_412E76
 0001:00011E7C       loc_412E7C
 0001:00011E89       loc_412E89
 0001:00011EB0       loc_412EB0
 0001:00011ECA       loc_412ECA
 0001:00011EEF       loc_412EEF
 0001:00011F15       loc_412F15
 0001:00011F2F       loc_412F2F
 0001:00011F3D       loc_412F3D
 0001:00011F4B       loc_412F4B
 0001:00011F57       loc_412F57
 0001:00011F5B       loc_412F5B
 0001:00011F75       loc_412F75
 0001:00011F7B       loc_412F7B
 0001:00011F8F       loc_412F8F
 0001:00011F91       loc_412F91
 0001:00011FA6       loc_412FA6
 0001:00011FAE       loc_412FAE
 0001:00011FB1       loc_412FB1
 0001:00011FCD       loc_412FCD
 0001:00011FFB       loc_412FFB
 0001:00011FFF       loc_412FFF
 0001:0001201C       loc_41301C
 0001:00012022       loc_413022
 0001:00012026       loc_413026
 0001:00012055       loc_413055
 0001:0001206B       loc_41306B
 0001:0001209B       loc_41309B
 0001:000120B8       loc_4130B8
 0001:000120C7       loc_4130C7
 0001:000120DB       loc_4130DB
 0001:000120F0       loc_4130F0
 0001:0001210F       loc_41310F
 0001:00012112       loc_413112
 0001:00012119       loc_413119
 0001:00012145       loc_413145
 0001:0001215B       loc_41315B
 0001:00012187       loc_413187
 0001:000121A6       loc_4131A6
 0001:000121B5       loc_4131B5
 0001:000121CB       loc_4131CB
 0001:000121D9       loc_4131D9
 0001:000121F4       loc_4131F4
 0001:000121F7       loc_4131F7
 0001:000121FE       loc_4131FE
 0001:00012201       sub_413201
 0001:00012210       loc_413210
 0001:0001224E       loc_41324E
 0001:00012252       loc_413252
 0001:00012271       loc_413271
 0001:0001227B       loc_41327B
 0001:00012280       loc_413280
 0001:0001228C       loc_41328C
 0001:00012298       loc_413298
 0001:000122AB       loc_4132AB
 0001:000122AF       loc_4132AF
 0001:000122B3       loc_4132B3
 0001:000122B7       loc_4132B7
 0001:000122BB       loc_4132BB
 0001:000122BF       loc_4132BF
 0001:000122C9       loc_4132C9
 0001:000122D2       loc_4132D2
 0001:000122D6       loc_4132D6
 0001:000122DA       sub_4132DA
 0001:000122E1       loc_4132E1
 0001:000122F6       loc_4132F6
 0001:000122FE       loc_4132FE
 0001:00012313       loc_413313
 0001:00012329       loc_413329
 0001:00012332       loc_413332
 0001:0001233A       loc_41333A
 0001:00012352       loc_413352
 0001:0001235D       loc_41335D
 0001:00012364       loc_413364
 0001:00012368       loc_413368
 0001:0001236D       sub_41336D
 0001:0001238C       loc_41338C
 0001:0001239D       loc_41339D
 0001:000123AF       loc_4133AF
 0001:000123C1       loc_4133C1
 0001:000123D3       loc_4133D3
 0001:000123E5       loc_4133E5
 0001:000123F7       loc_4133F7
 0001:00012409       loc_413409
 0001:0001240E       sub_41340E
 0001:00012429       loc_413429
 0001:00012432       loc_413432
 0001:0001246C       loc_41346C
 0001:000124BF       loc_4134BF
 0001:000124D5       loc_4134D5
 0001:000124F1       loc_4134F1
 0001:0001256A       loc_41356A
 0001:00012581       loc_413581
 0001:0001259E       loc_41359E
 0001:000125B8       loc_4135B8
 0001:000125BF       loc_4135BF
 0001:000125C1       loc_4135C1
 0001:000125F6       loc_4135F6
 0001:00012606       loc_413606
 0001:00012615       loc_413615
 0001:00012618       loc_413618
 0001:0001262D       loc_41362D
 0001:00012630       loc_413630
 0001:0001263E       loc_41363E
 0001:00012642       loc_413642
 0001:0001266D       loc_41366D
 0001:0001268F       loc_41368F
 0001:00012692       loc_413692
 0001:0001269B       loc_41369B
 0001:000126A0       loc_4136A0
 0001:000126A3       loc_4136A3
 0001:000126AB       loc_4136AB
 0001:000126B0       loc_4136B0
 0001:000126B3       loc_4136B3
 0001:000126B9       loc_4136B9
 0001:000126C9       loc_4136C9
 0001:000126CB       loc_4136CB
 0001:000126CC       locret_4136CC
 0001:000126CE       sub_4136CE
 0001:000126E9       loc_4136E9
 0001:000126F2       loc_4136F2
 0001:00012702       loc_413702
 0001:0001270B       loc_41370B
 0001:00012727       loc_413727
 0001:0001272B       loc_41372B
 0001:00012746       loc_413746
 0001:00012748       loc_413748
 0001:0001277B       loc_41377B
 0001:00012782       loc_413782
 0001:00012789       loc_413789
 0001:0001278E       loc_41378E
 0001:00012791       loc_413791
 0001:00012797       loc_413797
 0001:000127BB       loc_4137BB
 0001:0001280A       loc_41380A
 0001:0001280D       sub_41380D
 0001:0001281F       loc_41381F
 0001:00012851       sub_413851
 0001:000128B5       loc_4138B5
 0001:000128DB       loc_4138DB
 0001:000128E7       loc_4138E7
 0001:000128EB       loc_4138EB
 0001:000128FF       loc_4138FF
 0001:00012916       loc_413916
 0001:0001292D       loc_41392D
 0001:00012968       loc_413968
 0001:000129A6       loc_4139A6
 0001:000129BD       loc_4139BD
 0001:000129BE       loc_4139BE
 0001:000129C2       sub_4139C2
 0001:00012A01       loc_413A01
 0001:00012A06       loc_413A06
 0001:00012A1E       loc_413A1E
 0001:00012A3C       loc_413A3C
 0001:00012A6C       loc_413A6C
 0001:00012A7C       loc_413A7C
 0001:00012A80       loc_413A80
 0001:00012A8B       loc_413A8B
 0001:00012AA3       loc_413AA3
 0001:00012AC7       loc_413AC7
 0001:00012ACF       loc_413ACF
 0001:00012AD5       loc_413AD5
 0001:00012AEC       loc_413AEC
 0001:00012AED       loc_413AED
 0001:00012B04       loc_413B04
 0001:00012B08       sub_413B08
 0001:00012B68       sub_413B68
 0001:00012B7A       loc_413B7A
 0001:00012B9A       loc_413B9A
 0001:00012BC2       loc_413BC2
 0001:00012BD7       loc_413BD7
 0001:00012BDC       loc_413BDC
 0001:00012BE0       loc_413BE0
 0001:00012BF1       loc_413BF1
 0001:00012BFD       loc_413BFD
 0001:00012C19       loc_413C19
 0001:00012C1C       loc_413C1C
 0001:00012C2F       loc_413C2F
 0001:00012C31       loc_413C31
 0001:00012C44       loc_413C44
 0001:00012C46       loc_413C46
 0001:00012C57       loc_413C57
 0001:00012C8F       sub_413C8F
 0001:00012CB6       loc_413CB6
 0001:00012CD2       loc_413CD2
 0001:00012CE6       loc_413CE6
 0001:00012CEA       loc_413CEA
 0001:00012CFD       loc_413CFD
 0001:00012D14       loc_413D14
 0001:00012D20       loc_413D20
 0001:00012D24       loc_413D24
 0001:00012D2B       loc_413D2B
 0001:00012D54       loc_413D54
 0001:00012D59       loc_413D59
 0001:00012D75       loc_413D75
 0001:00012D8F       loc_413D8F
 0001:00012DBB       loc_413DBB
 0001:00012DC4       loc_413DC4
 0001:00012DD7       locret_413DD7
 0001:00012DD9       sub_413DD9
 0001:00012E06       loc_413E06
 0001:00012E09       loc_413E09
 0001:00012E0C       loc_413E0C
 0001:00012E0F       loc_413E0F
 0001:00012E12       loc_413E12
 0001:00012E15       loc_413E15
 0001:00012E29       loc_413E29
 0001:00012E2C       loc_413E2C
 0001:00012E2F       loc_413E2F
 0001:00012E32       loc_413E32
 0001:00012E35       loc_413E35
 0001:00012E38       loc_413E38
 0001:00012E57       loc_413E57
 0001:00012E5A       loc_413E5A
 0001:00012E5D       loc_413E5D
 0001:00012E60       loc_413E60
 0001:00012E63       loc_413E63
 0001:00012E66       loc_413E66
 0001:00012E7E       loc_413E7E
 0001:00012E8D       loc_413E8D
 0001:00012E90       loc_413E90
 0001:00012E93       loc_413E93
 0001:00012E96       loc_413E96
 0001:00012E99       loc_413E99
 0001:00012E9C       sub_413E9C
 0001:00012EC2       loc_413EC2
 0001:00012ECC       loc_413ECC
 0001:00012ED6       loc_413ED6
 0001:00012EDA       loc_413EDA
 0001:00012EDE       loc_413EDE
 0001:00012EE2       loc_413EE2
 0001:00012EE6       loc_413EE6
 0001:00012EEA       loc_413EEA
 0001:00012EEE       loc_413EEE
 0001:00012EF2       loc_413EF2
 0001:00012EF6       loc_413EF6
 0001:00012EFA       loc_413EFA
 0001:00012EFE       loc_413EFE
 0001:00012F02       loc_413F02
 0001:00012F0C       loc_413F0C
 0001:00012F10       loc_413F10
 0001:00012F14       loc_413F14
 0001:00012F18       loc_413F18
 0001:00012F22       loc_413F22
 0001:00012F40       loc_413F40
 0001:00012F44       loc_413F44
 0001:00012F4B       loc_413F4B
 0001:00012F4F       loc_413F4F
 0001:00012F56       loc_413F56
 0001:00012F58       loc_413F58
 0001:00012F5B       loc_413F5B
 0001:00012F6B       loc_413F6B
 0001:00012F90       loc_413F90
 0001:00012FA0       loc_413FA0
 0001:00012FAF       loc_413FAF
 0001:00012FB4       loc_413FB4
 0001:00012FC6       loc_413FC6
 0001:00012FC8       off_413FC8
 0001:0001301C       sub_41401C
 0001:0001302E       loc_41402E
 0001:0001303D       loc_41403D
 0001:00013054       loc_414054
 0001:00013059       loc_414059
 0001:00013070       sub_414070
 0001:00013088       loc_414088
 0001:0001309A       loc_41409A
 0001:000130CF       loc_4140CF
 0001:000130DE       loc_4140DE
 0001:000130ED       loc_4140ED
 0001:000130FC       loc_4140FC
 0001:0001310B       loc_41410B
 0001:0001311A       loc_41411A
 0001:00013126       loc_414126
 0001:00013138       loc_414138
 0001:0001315B       loc_41415B
 0001:0001315D       loc_41415D
 0001:0001316F       loc_41416F
 0001:00013172       loc_414172
 0001:00013184       loc_414184
 0001:00013187       loc_414187
 0001:00013199       loc_414199
 0001:0001319C       loc_41419C
 0001:000131AE       loc_4141AE
 0001:000131B1       loc_4141B1
 0001:000131B3       loc_4141B3
 0001:000131EF       loc_4141EF
 0001:000131F4       loc_4141F4
 0001:00013224       loc_414224
 0001:0001323C       loc_41423C
 0001:00013240       loc_414240
 0001:00013255       sub_414255
 0001:0001328B       loc_41428B
 0001:000132E6       loc_4142E6
 0001:000132F3       loc_4142F3
 0001:0001331E       loc_41431E
 0001:00013363       loc_414363
 0001:00013364       loc_414364
 0001:00013367       sub_414367
 0001:000133F9       loc_4143F9
 0001:0001340B       loc_41440B
 0001:0001342A       loc_41442A
 0001:0001343F       loc_41443F
 0001:0001348E       loc_41448E
 0001:00013499       loc_414499
 0001:000134B7       loc_4144B7
 0001:000134CA       loc_4144CA
 0001:000134EB       loc_4144EB
 0001:000134FA       loc_4144FA
 0001:00013509       loc_414509
 0001:00013518       loc_414518
 0001:00013527       loc_414527
 0001:00013536       loc_414536
 0001:00013542       loc_414542
 0001:00013548       loc_414548
 0001:0001355A       loc_41455A
 0001:0001355C       loc_41455C
 0001:0001356E       loc_41456E
 0001:00013571       loc_414571
 0001:00013583       loc_414583
 0001:00013586       loc_414586
 0001:00013598       loc_414598
 0001:0001359B       loc_41459B
 0001:000135A8       loc_4145A8
 0001:000135AD       loc_4145AD
 0001:000135B0       loc_4145B0
 0001:000135ED       loc_4145ED
 0001:000135F4       loc_4145F4
 0001:0001360D       loc_41460D
 0001:00013647       loc_414647
 0001:00013665       loc_414665
 0001:0001366F       loc_41466F
 0001:0001368E       loc_41468E
 0001:000136A2       loc_4146A2
 0001:000136C3       loc_4146C3
 0001:000136D2       loc_4146D2
 0001:000136E1       loc_4146E1
 0001:000136F0       loc_4146F0
 0001:000136FF       loc_4146FF
 0001:0001370E       loc_41470E
 0001:0001371A       loc_41471A
 0001:00013720       loc_414720
 0001:00013738       loc_414738
 0001:0001373A       loc_41473A
 0001:0001374C       loc_41474C
 0001:0001374F       loc_41474F
 0001:00013761       loc_414761
 0001:00013764       loc_414764
 0001:00013776       loc_414776
 0001:00013779       loc_414779
 0001:00013786       loc_414786
 0001:0001378B       loc_41478B
 0001:0001378E       loc_41478E
 0001:000137CB       loc_4147CB
 0001:000137CD       loc_4147CD
 0001:000137FB       loc_4147FB
 0001:00013803       sub_414803
 0001:0001384A       loc_41484A
 0001:00013861       loc_414861
 0001:00013892       loc_414892
 0001:00013897       loc_414897
 0001:000138A0       loc_4148A0
 0001:000138AF       loc_4148AF
 0001:000138C1       loc_4148C1
 0001:000138C8       loc_4148C8
 0001:00013930       loc_414930
 0001:00013991       loc_414991
 0001:0001399C       loc_41499C
 0001:000139B5       loc_4149B5
 0001:000139C0       loc_4149C0
 0001:000139D2       loc_4149D2
 0001:00013A21       loc_414A21
 0001:00013A23       loc_414A23
 0001:00013A27       loc_414A27
 0001:00013A37       loc_414A37
 0001:00013A56       loc_414A56
 0001:00013A76       loc_414A76
 0001:00013A7D       loc_414A7D
 0001:00013A81       loc_414A81
 0001:00013AA8       loc_414AA8
 0001:00013AAF       loc_414AAF
 0001:00013ABE       loc_414ABE
 0001:00013ADE       loc_414ADE
 0001:00013AE1       loc_414AE1
 0001:00013B04       loc_414B04
 0001:00013B13       loc_414B13
 0001:00013B32       loc_414B32
 0001:00013B49       loc_414B49
 0001:00013B67       loc_414B67
 0001:00013B74       loc_414B74
 0001:00013B7A       loc_414B7A
 0001:00013BCF       loc_414BCF
 0001:00013BD6       loc_414BD6
 0001:00013C69       loc_414C69
 0001:00013C77       loc_414C77
 0001:00013CAB       loc_414CAB
 0001:00013CC7       loc_414CC7
 0001:00013CCA       loc_414CCA
 0001:00013D3E       loc_414D3E
 0001:00013D5C       loc_414D5C
 0001:00013D79       loc_414D79
 0001:00013DF7       loc_414DF7
 0001:00013E11       loc_414E11
 0001:00013E1B       loc_414E1B
 0001:00013E42       loc_414E42
 0001:00013E4C       loc_414E4C
 0001:00013EB4       loc_414EB4
 0001:00013ECA       loc_414ECA
 0001:00013ED3       loc_414ED3
 0001:00013F20       loc_414F20
 0001:00013F26       loc_414F26
 0001:00013F5B       loc_414F5B
 0001:00013F64       loc_414F64
 0001:00013F76       loc_414F76
 0001:00013F88       loc_414F88
 0001:00013FC1       loc_414FC1
 0001:00013FD1       loc_414FD1
 0001:00013FE1       loc_414FE1
 0001:00013FF1       loc_414FF1
 0001:00014001       loc_415001
 0001:00014011       loc_415011
 0001:0001401E       loc_41501E
 0001:00014027       loc_415027
 0001:0001404A       loc_41504A
 0001:0001404E       loc_41504E
 0001:00014060       loc_415060
 0001:00014064       loc_415064
 0001:00014076       loc_415076
 0001:0001407A       loc_41507A
 0001:0001408C       loc_41508C
 0001:00014090       loc_415090
 0001:000140A0       loc_4150A0
 0001:000140A2       loc_4150A2
 0001:000140A6       loc_4150A6
 0001:000140E4       loc_4150E4
 0001:000140E9       loc_4150E9
 0001:00014116       loc_415116
 0001:00014176       loc_415176
 0001:0001417D       loc_41517D
 0001:00014187       loc_415187
 0001:000141D5       loc_4151D5
 0001:000141D8       loc_4151D8
 0001:000141E3       loc_4151E3
 0001:00014219       loc_415219
 0001:0001421E       loc_41521E
 0001:00014253       loc_415253
 0001:00014259       loc_415259
 0001:00014276       loc_415276
 0001:00014281       loc_415281
 0001:0001428C       loc_41528C
 0001:0001429F       loc_41529F
 0001:000142B2       loc_4152B2
 0001:000142C7       loc_4152C7
 0001:000142D3       loc_4152D3
 0001:0001431D       loc_41531D
 0001:0001432F       loc_41532F
 0001:00014333       loc_415333
 0001:0001433E       loc_41533E
 0001:000143B0       loc_4153B0
 0001:000143BE       loc_4153BE
 0001:000143CE       loc_4153CE
 0001:000143EE       loc_4153EE
 0001:000143F1       loc_4153F1
 0001:00014423       loc_415423
 0001:00014430       loc_415430
 0001:00014446       loc_415446
 0001:0001446D       loc_41546D
 0001:0001447C       loc_41547C
 0001:0001448B       loc_41548B
 0001:0001449A       loc_41549A
 0001:000144A9       loc_4154A9
 0001:000144B8       loc_4154B8
 0001:000144C4       loc_4154C4
 0001:000144D2       loc_4154D2
 0001:000144E4       loc_4154E4
 0001:000144E8       loc_4154E8
 0001:000144FA       loc_4154FA
 0001:000144FE       loc_4154FE
 0001:00014510       loc_415510
 0001:00014514       loc_415514
 0001:00014526       loc_415526
 0001:0001452A       loc_41552A
 0001:0001453C       loc_41553C
 0001:00014540       loc_415540
 0001:00014543       loc_415543
 0001:00014580       loc_415580
 0001:00014583       loc_415583
 0001:0001459F       loc_41559F
 0001:000145C0       loc_4155C0
 0001:000145D2       loc_4155D2
 0001:000145E8       loc_4155E8
 0001:000145FB       loc_4155FB
 0001:0001462C       loc_41562C
 0001:0001463B       loc_41563B
 0001:00014646       sub_415646
 0001:0001465E       loc_41565E
 0001:00014683       loc_415683
 0001:000146CE       loc_4156CE
 0001:000146D5       loc_4156D5
 0001:000146F2       loc_4156F2
 0001:000146F5       loc_4156F5
 0001:00014702       loc_415702
 0001:00014705       fn
 0001:0001472E       loc_41572E
 0001:00014750       loc_415750
 0001:0001475D       loc_41575D
 0001:00014779       loc_415779
 0001:00014785       loc_415785
 0001:000147C4       loc_4157C4
 0001:000147DA       loc_4157DA
 0001:000147FF       loc_4157FF
 0001:00014850       loc_415850
 0001:00014896       loc_415896
 0001:000148D8       loc_4158D8
 0001:000148F0       loc_4158F0
 0001:00014913       loc_415913
 0001:00014917       loc_415917
 0001:00014934       loc_415934
 0001:00014936       loc_415936
 0001:0001493B       sub_41593B
 0001:0001494A       loc_41594A
 0001:00014955       loc_415955
 0001:00014971       loc_415971
 0001:000149A2       loc_4159A2
 0001:000149AC       loc_4159AC
 0001:000149AF       loc_4159AF
 0001:000149B2       sub_4159B2
 0001:000149E7       loc_4159E7
 0001:000149EE       loc_4159EE
 0001:00014A0D       loc_415A0D
 0001:00014A14       loc_415A14
 0001:00014A3A       loc_415A3A
 0001:00014A41       loc_415A41
 0001:00014A60       loc_415A60
 0001:00014A67       loc_415A67
 0001:00014AE6       loc_415AE6
 0001:00014AED       loc_415AED
 0001:00014B0C       loc_415B0C
 0001:00014B10       loc_415B10
 0001:00014B2F       loc_415B2F
 0001:00014B33       loc_415B33
 0001:00014B52       loc_415B52
 0001:00014B54       loc_415B54
 0001:00014B5F       loc_415B5F
 0001:00014B63       loc_415B63
 0001:00014B6F       loc_415B6F
 0001:00014B73       loc_415B73
 0001:00014B86       loc_415B86
 0001:00014B88       loc_415B88
 0001:00014B8E       loc_415B8E
 0001:00014B93       sub_415B93
 0001:00014BA8       loc_415BA8
 0001:00014BC6       loc_415BC6
 0001:00014BF6       loc_415BF6
 0001:00014BFB       loc_415BFB
 0001:00014C06       loc_415C06
 0001:00014C22       loc_415C22
 0001:00014C2B       loc_415C2B
 0001:00014C34       loc_415C34
 0001:00014C4C       loc_415C4C
 0001:00014C4E       loc_415C4E
 0001:00014C4F       loc_415C4F
 0001:00014C53       sub_415C53
 0001:00014C85       loc_415C85
 0001:00014CAF       loc_415CAF
 0001:00014CC1       loc_415CC1
 0001:00014D08       loc_415D08
 0001:00014D4A       loc_415D4A
 0001:00014D50       loc_415D50
 0001:00014D55       sub_415D55
 0001:00014D7E       sub_415D7E
 0001:00014DFF       loc_415DFF
 0001:00014E53       loc_415E53
 0001:00014E5A       loc_415E5A
 0001:00014E6B       loc_415E6B
 0001:00014E8C       locret_415E8C
 0001:00014E8E       sub_415E8E
 0001:00014E9F       loc_415E9F
 0001:00014EAD       loc_415EAD
 0001:00014EC1       loc_415EC1
 0001:00014EDB       sub_415EDB
 0001:00014EE8       loc_415EE8
 0001:00014F1F       sub_415F1F
 0001:00014F2C       loc_415F2C
 0001:00014F61       sub_415F61
 0001:00014F6F       loc_415F6F
 0001:00014FB5       loc_415FB5
 0001:00014FBD       sub_415FBD
 0001:00014FD2       loc_415FD2
 0001:00015000       sub_416000
 0001:0001503E       loc_41603E
 0001:00015040       sub_416040
 0001:00015066       sub_416066
 0001:0001508D       loc_41608D
 0001:000150A0       loc_4160A0
 0001:000150A4       loc_4160A4
 0001:000150AD       loc_4160AD
 0001:000150B5       loc_4160B5
 0001:000150D8       loc_4160D8
 0001:000150DB       locret_4160DB
 0001:000150DE       sub_4160DE
 0001:00015102       loc_416102
 0001:00015108       locret_416108
 0001:00015109       sub_416109
 0001:00015131       loc_416131
 0001:00015133       loc_416133
 0001:0001514B       loc_41614B
 0001:00015160       loc_416160
 0001:00015175       loc_416175
 0001:0001518A       loc_41618A
 0001:0001519F       loc_41619F
 0001:000151B4       loc_4161B4
 0001:000151CD       loc_4161CD
 0001:000151CF       loc_4161CF
 0001:000151D2       sub_4161D2
 0001:000151FC       loc_4161FC
 0001:00015214       loc_416214
 0001:0001522C       loc_41622C
 0001:00015244       loc_416244
 0001:0001525C       loc_41625C
 0001:00015274       loc_416274
 0001:0001528C       loc_41628C
 0001:000152A4       loc_4162A4
 0001:000152BC       loc_4162BC
 0001:000152D1       loc_4162D1
 0001:000152E6       loc_4162E6
 0001:000152FB       loc_4162FB
 0001:00015310       loc_416310
 0001:00015325       loc_416325
 0001:0001533A       loc_41633A
 0001:0001534D       loc_41634D
 0001:00015350       loc_416350
 0001:00015369       loc_416369
 0001:0001536D       sub_41636D
 0001:00015397       loc_416397
 0001:000153AF       loc_4163AF
 0001:000153C7       loc_4163C7
 0001:000153DF       loc_4163DF
 0001:000153F7       loc_4163F7
 0001:0001540F       loc_41640F
 0001:00015427       loc_416427
 0001:0001543C       loc_41643C
 0001:00015451       loc_416451
 0001:00015466       loc_416466
 0001:0001547B       loc_41647B
 0001:00015490       loc_416490
 0001:000154A5       loc_4164A5
 0001:000154B8       loc_4164B8
 0001:000154BB       loc_4164BB
 0001:000154D4       loc_4164D4
 0001:000154D8       sub_4164D8
 0001:000154FB       loc_4164FB
 0001:00015510       loc_416510
 0001:00015525       loc_416525
 0001:0001553A       loc_41653A
 0001:00015553       loc_416553
 0001:00015557       sub_416557
 0001:00015579       loc_416579
 0001:0001558E       loc_41658E
 0001:000155A1       loc_4165A1
 0001:000155A4       loc_4165A4
 0001:000155BD       loc_4165BD
 0001:000155C1       sub_4165C1
 0001:000155EB       loc_4165EB
 0001:0001562D       loc_41662D
 0001:00015645       loc_416645
 0001:0001565A       loc_41665A
 0001:0001566F       loc_41666F
 0001:00015684       loc_416684
 0001:00015699       loc_416699
 0001:000156BB       loc_4166BB
 0001:000156BD       loc_4166BD
 0001:000156C0       loc_4166C0
 0001:000156C4       loc_4166C4
 0001:000156C8       sub_4166C8
 0001:000156F8       loc_4166F8
 0001:00015703       loc_416703
 0001:0001570D       loc_41670D
 0001:0001573F       loc_41673F
 0001:00015757       loc_416757
 0001:0001576F       loc_41676F
 0001:000157B1       loc_4167B1
 0001:000157C9       loc_4167C9
 0001:000157E1       loc_4167E1
 0001:000157F9       loc_4167F9
 0001:00015811       loc_416811
 0001:00015826       loc_416826
 0001:0001583B       loc_41683B
 0001:00015850       loc_416850
 0001:00015865       loc_416865
 0001:0001587A       loc_41687A
 0001:0001588F       loc_41688F
 0001:000158A2       loc_4168A2
 0001:000158A5       loc_4168A5
 0001:000158BE       loc_4168BE
 0001:000158C2       loc_4168C2
 0001:000158C5       loc_4168C5
 0001:000158C8       sub_4168C8
 0001:000158F3       loc_4168F3
 0001:00015908       loc_416908
 0001:0001591D       loc_41691D
 0001:00015932       loc_416932
 0001:00015947       loc_416947
 0001:00015986       loc_416986
 0001:0001599B       loc_41699B
 0001:000159B0       loc_4169B0
 0001:000159C5       loc_4169C5
 0001:000159DA       loc_4169DA
 0001:000159EF       loc_4169EF
 0001:00015A04       loc_416A04
 0001:00015A19       loc_416A19
 0001:00015A2E       loc_416A2E
 0001:00015A43       loc_416A43
 0001:00015A7A       loc_416A7A
 0001:00015A8F       loc_416A8F
 0001:00015AA4       loc_416AA4
 0001:00015ABD       loc_416ABD
 0001:00015AC1       loc_416AC1
 0001:00015AC5       loc_416AC5
 0001:00015AC9       sub_416AC9
 0001:00015AF9       loc_416AF9
 0001:00015B03       loc_416B03
 0001:00015B0D       loc_416B0D
 0001:00015B1A       loc_416B1A
 0001:00015B3F       loc_416B3F
 0001:00015B54       loc_416B54
 0001:00015B69       loc_416B69
 0001:00015B7E       loc_416B7E
 0001:00015B93       loc_416B93
 0001:00015BA8       loc_416BA8
 0001:00015BBB       loc_416BBB
 0001:00015BC1       loc_416BC1
 0001:00015BC8       loc_416BC8
 0001:00015BDB       loc_416BDB
 0001:00015BF1       loc_416BF1
 0001:00015BF3       loc_416BF3
 0001:00015C11       loc_416C11
 0001:00015C2E       loc_416C2E
 0001:00015C4C       loc_416C4C
 0001:00015C67       loc_416C67
 0001:00015C6B       loc_416C6B
 0001:00015C6F       loc_416C6F
 0001:00015C72       loc_416C72
 0001:00015C78       sub_416C78
 0001:00015CA8       loc_416CA8
 0001:00015CB3       loc_416CB3
 0001:00015CC0       loc_416CC0
 0001:00015CD3       loc_416CD3
 0001:00015CD6       loc_416CD6
 0001:00015CEB       loc_416CEB
 0001:00015D00       loc_416D00
 0001:00015D15       loc_416D15
 0001:00015D2A       loc_416D2A
 0001:00015D41       loc_416D41
 0001:00015D44       sub_416D44
 0001:00015D5C       loc_416D5C
 0001:00015D60       loc_416D60
 0001:00015D64       loc_416D64
 0001:00015D68       sub_416D68
 0001:00015D96       loc_416D96
 0001:00015DAE       loc_416DAE
 0001:00015DC2       loc_416DC2
 0001:00015DD7       loc_416DD7
 0001:00015DEC       loc_416DEC
 0001:00015E01       loc_416E01
 0001:00015E16       loc_416E16
 0001:00015E2B       loc_416E2B
 0001:00015E3E       loc_416E3E
 0001:00015E41       loc_416E41
 0001:00015E59       loc_416E59
 0001:00015E5D       sub_416E5D
 0001:00015E7F       loc_416E7F
 0001:00015E94       loc_416E94
 0001:00015E9A       loc_416E9A
 0001:00015E9C       loc_416E9C
 0001:00015E9F       sub_416E9F
 0001:00015EC1       loc_416EC1
 0001:00015ED6       loc_416ED6
 0001:00015EEB       loc_416EEB
 0001:00015F00       loc_416F00
 0001:00015F06       loc_416F06
 0001:00015F08       loc_416F08
 0001:00015F0B       sub_416F0B
 0001:00015F2D       loc_416F2D
 0001:00015F42       loc_416F42
 0001:00015F57       loc_416F57
 0001:00015F5D       loc_416F5D
 0001:00015F5F       loc_416F5F
 0001:00015F62       sub_416F62
 0001:00015F84       loc_416F84
 0001:00015F99       loc_416F99
 0001:00015FAE       loc_416FAE
 0001:00015FC3       loc_416FC3
 0001:00015FC9       loc_416FC9
 0001:00015FCB       loc_416FCB
 0001:00015FCE       sub_416FCE
 0001:00015FF0       loc_416FF0
 0001:00016005       loc_417005
 0001:0001601A       loc_41701A
 0001:0001602D       loc_41702D
 0001:00016030       loc_417030
 0001:00016049       loc_417049
 0001:0001604D       sub_41704D
 0001:00016070       loc_417070
 0001:00016083       loc_417083
 0001:00016086       loc_417086
 0001:0001609A       loc_41709A
 0001:0001609F       sub_41709F
 0001:000160B9       loc_4170B9
 0001:000160CC       loc_4170CC
 0001:0001610B       loc_41710B
 0001:0001610E       loc_41710E
 0001:00016113       loc_417113
 0001:00016119       sub_417119
 0001:00016142       loc_417142
 0001:00016157       loc_417157
 0001:0001615A       sub_41715A
 0001:00016188       loc_417188
 0001:0001619D       loc_41719D
 0001:000161B2       loc_4171B2
 0001:000161C7       loc_4171C7
 0001:000161DA       loc_4171DA
 0001:000161DD       loc_4171DD
 0001:000161F6       loc_4171F6
 0001:000161FA       sub_4171FA
 0001:0001621C       loc_41721C
 0001:00016232       loc_417232
 0001:0001624B       loc_41724B
 0001:0001624F       sub_41724F
 0001:0001626E       loc_41726E
 0001:0001627B       loc_41727B
 0001:00016288       loc_417288
 0001:0001629D       loc_41729D
 0001:000162B0       loc_4172B0
 0001:000162B3       loc_4172B3
 0001:000162CC       loc_4172CC
 0001:000162D0       sub_4172D0
 0001:000162FA       loc_4172FA
 0001:00016312       loc_417312
 0001:0001632A       loc_41732A
 0001:00016342       loc_417342
 0001:0001635A       loc_41735A
 0001:00016372       loc_417372
 0001:0001638A       loc_41738A
 0001:000163A2       loc_4173A2
 0001:000163BA       loc_4173BA
 0001:000163D2       loc_4173D2
 0001:000163EA       loc_4173EA
 0001:00016402       loc_417402
 0001:0001641A       loc_41741A
 0001:00016432       loc_417432
 0001:0001644A       loc_41744A
 0001:00016462       loc_417462
 0001:0001647A       loc_41747A
 0001:00016492       loc_417492
 0001:000164AA       loc_4174AA
 0001:000164BF       loc_4174BF
 0001:000164D4       loc_4174D4
 0001:000164E9       loc_4174E9
 0001:000164FE       loc_4174FE
 0001:00016513       loc_417513
 0001:00016528       loc_417528
 0001:0001653B       loc_41753B
 0001:0001653E       loc_41753E
 0001:00016557       loc_417557
 0001:0001655B       sub_41755B
 0001:00016589       loc_417589
 0001:000165A1       loc_4175A1
 0001:000165B5       loc_4175B5
 0001:000165C6       loc_4175C6
 0001:000165CD       loc_4175CD
 0001:000165F3       loc_4175F3
 0001:00016608       loc_417608
 0001:0001661D       loc_41761D
 0001:00016632       loc_417632
 0001:00016647       loc_417647
 0001:0001665A       loc_41765A
 0001:0001665D       loc_41765D
 0001:00016676       loc_417676
 0001:0001667A       sub_41767A
 0001:000166BD       loc_4176BD
 0001:000166D5       loc_4176D5
 0001:000166ED       loc_4176ED
 0001:00016705       loc_417705
 0001:0001671D       loc_41771D
 0001:00016735       loc_417735
 0001:0001674A       loc_41774A
 0001:0001675F       loc_41775F
 0001:00016774       loc_417774
 0001:00016789       loc_417789
 0001:000167A8       loc_4177A8
 0001:000167BB       loc_4177BB
 0001:000167BE       loc_4177BE
 0001:000167C2       loc_4177C2
 0001:000167C7       sub_4177C7
 0001:0001681F       loc_41781F
 0001:0001685E       loc_41785E
 0001:00016873       loc_417873
 0001:00016888       loc_417888
 0001:0001689D       loc_41789D
 0001:000168B2       loc_4178B2
 0001:000168C7       loc_4178C7
 0001:000168DA       loc_4178DA
 0001:000168DD       loc_4178DD
 0001:000168F6       loc_4178F6
 0001:000168FA       loc_4178FA
 0001:000168FF       loc_4178FF
 0001:00016903       sub_417903
 0001:00016924       loc_417924
 0001:0001692D       loc_41792D
 0001:00016950       loc_417950
 0001:00016956       loc_417956
 0001:000169A4       loc_4179A4
 0001:000169C2       loc_4179C2
 0001:000169E0       loc_4179E0
 0001:000169FE       loc_4179FE
 0001:00016A1C       loc_417A1C
 0001:00016A3A       loc_417A3A
 0001:00016A58       loc_417A58
 0001:00016A73       loc_417A73
 0001:00016A8E       loc_417A8E
 0001:00016AA9       loc_417AA9
 0001:00016AC4       loc_417AC4
 0001:00016AE4       loc_417AE4
 0001:00016AE6       loc_417AE6
 0001:00016AE7       loc_417AE7
 0001:00016AEC       sub_417AEC
 0001:00016B0E       loc_417B0E
 0001:00016B50       loc_417B50
 0001:00016B68       loc_417B68
 0001:00016B80       loc_417B80
 0001:00016B98       loc_417B98
 0001:00016BB0       loc_417BB0
 0001:00016BC8       loc_417BC8
 0001:00016BE0       loc_417BE0
 0001:00016BF8       loc_417BF8
 0001:00016C10       loc_417C10
 0001:00016C28       loc_417C28
 0001:00016C45       loc_417C45
 0001:00016C4C       sub_417C4C
 0001:00016CA1       loc_417CA1
 0001:00016CBA       loc_417CBA
 0001:00016CCB       loc_417CCB
 0001:00016CDA       loc_417CDA
 0001:00016CFB       loc_417CFB
 0001:00016CFF       sub_417CFF
 0001:00016D3A       sub_417D3A
 0001:00016D3E       sub_417D3E
 0001:00016D63       loc_417D63
 0001:00016D70       loc_417D70
 0001:00016D82       loc_417D82
 0001:00016D8F       loc_417D8F
 0001:00016D99       sub_417D99
 0001:00016DC1       loc_417DC1
 0001:00016DC4       loc_417DC4
 0001:00016E0D       loc_417E0D
 0001:00016E1D       loc_417E1D
 0001:00016E27       loc_417E27
 0001:00016E7D       loc_417E7D
 0001:00016E92       loc_417E92
 0001:00016EAC       sub_417EAC
 0001:00016ECF       loc_417ECF
 0001:00016EDC       sub_417EDC
 0001:00016F08       loc_417F08
 0001:00016F11       loc_417F11
 0001:00016F18       loc_417F18
 0001:00016F31       loc_417F31
 0001:00016F3A       sub_417F3A
 0001:00016F78       loc_417F78
 0001:00016F7A       loc_417F7A
 0001:00016F9B       loc_417F9B
 0001:00016FB2       loc_417FB2
 0001:00016FB9       sub_417FB9
 0001:00016FD8       loc_417FD8
 0001:00016FEC       loc_417FEC
 0001:00016FF0       sub_417FF0
 0001:00017007       loc_418007
 0001:00017025       loc_418025
 0001:00017039       loc_418039
 0001:0001703C       sub_41803C
 0001:0001704F       loc_41804F
 0001:0001706D       loc_41806D
 0001:0001707A       loc_41807A
 0001:0001707D       loc_41807D
 0001:00017084       loc_418084
 0001:000170AC       loc_4180AC
 0001:000170E7       loc_4180E7
 0001:00017110       loc_418110
 0001:00017126       loc_418126
 0001:00017130       loc_418130
 0001:00017154       loc_418154
 0001:00017167       loc_418167
 0001:00017185       loc_418185
 0001:00017197       loc_418197
 0001:00017199       loc_418199
 0001:0001719D       sub_41819D
 0001:000171B7       loc_4181B7
 0001:000171CA       sub_4181CA
 0001:000171DB       loc_4181DB
 0001:000171F7       sub_4181F7
 0001:0001720D       loc_41820D
 0001:00017239       loc_418239
 0001:0001725C       loc_41825C
 0001:000172B5       loc_4182B5
 0001:000172CE       loc_4182CE
 0001:000172DE       loc_4182DE
 0001:000173BB       loc_4183BB
 0001:000173C4       loc_4183C4
 0001:000173D2       loc_4183D2
 0001:000173DB       loc_4183DB
 0001:000173F0       loc_4183F0
 0001:000173F3       sub_4183F3
 0001:00017401       loc_418401
 0001:0001743D       loc_41843D
 0001:00017464       loc_418464
 0001:000174B4       loc_4184B4
 0001:000174CA       loc_4184CA
 0001:000174F4       loc_4184F4
 0001:000174F8       loc_4184F8
 0001:000174FA       loc_4184FA
 0001:00017534       loc_418534
 0001:0001755E       loc_41855E
 0001:00017562       loc_418562
 0001:00017564       loc_418564
 0001:0001758D       loc_41858D
 0001:00017595       loc_418595
 0001:0001759D       loc_41859D
 0001:000175A6       loc_4185A6
 0001:000175B9       loc_4185B9
 0001:000175C2       loc_4185C2
 0001:000175CB       loc_4185CB
 0001:000175D2       loc_4185D2
 0001:000175D8       loc_4185D8
 0001:000175E3       loc_4185E3
 0001:000175E8       sub_4185E8
 0001:000175F9       loc_4185F9
 0001:0001761A       sub_41861A
 0001:00017658       loc_418658
 0001:0001765A       loc_41865A
 0001:0001767B       loc_41867B
 0001:00017692       loc_418692
 0001:00017699       sub_418699
 0001:000176B8       loc_4186B8
 0001:000176CC       loc_4186CC
 0001:000176D0       loc_4186D0
 0001:000176EF       loc_4186EF
 0001:00017703       loc_418703
 0001:00017707       loc_418707
 0001:0001771B       loc_41871B
 0001:00017727       loc_418727
 0001:00017749       loc_418749
 0001:0001774D       loc_41874D
 0001:00017760       loc_418760
 0001:00017767       loc_418767
 0001:0001776E       loc_41876E
 0001:00017775       loc_418775
 0001:0001777C       loc_41877C
 0001:00017783       loc_418783
 0001:0001778A       loc_41878A
 0001:00017791       loc_418791
 0001:00017798       loc_418798
 0001:0001779D       loc_41879D
 0001:000177B0       loc_4187B0
 0001:000177B9       off_4187B9
 0001:000177E5       loc_4187E5
 0001:000177FF       loc_4187FF
 0001:0001781F       loc_41881F
 0001:00017822       loc_418822
 0001:00017838       loc_418838
 0001:0001785D       loc_41885D
 0001:00017861       sub_418861
 0001:00017872       loc_418872
 0001:00017884       loc_418884
 0001:000178B4       loc_4188B4
 0001:000178C1       loc_4188C1
 0001:000178CC       loc_4188CC
 0001:000178D7       loc_4188D7
 0001:000178E0       loc_4188E0
 0001:000178E4       loc_4188E4
 0001:000178EC       loc_4188EC
 0001:000178F3       loc_4188F3
 0001:000178F6       sub_4188F6
 0001:0001790E       sub_41890E
 0001:0001795A       loc_41895A
 0001:00017969       loc_418969
 0001:00017978       loc_418978
 0001:0001798A       loc_41898A
 0001:00017994       loc_418994
 0001:00017996       loc_418996
 0001:00017998       sub_418998
 0001:00017A07       loc_418A07
 0001:00017A47       loc_418A47
 0001:00017A4F       loc_418A4F
 0001:00017A57       loc_418A57
 0001:00017A60       loc_418A60
 0001:00017A62       loc_418A62
 0001:00017A77       loc_418A77
 0001:00017A80       loc_418A80
 0001:00017A8A       loc_418A8A
 0001:00017A8E       loc_418A8E
 0001:00017AA9       loc_418AA9
 0001:00017AC6       loc_418AC6
 0001:00017ACF       loc_418ACF
 0001:00017AD2       loc_418AD2
 0001:00017AD7       sub_418AD7
 0001:00017AF0       loc_418AF0
 0001:00017B05       loc_418B05
 0001:00017B08       loc_418B08
 0001:00017B0B       loc_418B0B
 0001:00017B26       loc_418B26
 0001:00017B2A       sub_418B2A
 0001:00017B3A       loc_418B3A
 0001:00017B47       loc_418B47
 0001:00017B59       sub_418B59
 0001:00017B72       loc_418B72
 0001:00017B87       loc_418B87
 0001:00017B8A       loc_418B8A
 0001:00017B8D       sub_418B8D
 0001:00017BA6       loc_418BA6
 0001:00017BC2       loc_418BC2
 0001:00017BEA       loc_418BEA
 0001:00017BF3       loc_418BF3
 0001:00017C10       loc_418C10
 0001:00017C35       loc_418C35
 0001:00017C41       loc_418C41
 0001:00017C44       sub_418C44
 0001:00017C5D       loc_418C5D
 0001:00017C84       loc_418C84
 0001:00017C91       loc_418C91
 0001:00017C93       loc_418C93
 0001:00017C9A       loc_418C9A
 0001:00017C9B       loc_418C9B
 0001:00017CA2       loc_418CA2
 0001:00017CA7       loc_418CA7
 0001:00017CC5       loc_418CC5
 0001:00017CC7       loc_418CC7
 0001:00017CCD       loc_418CCD
 0001:00017CD1       loc_418CD1
 0001:00017CDD       loc_418CDD
 0001:00017D01       loc_418D01
 0001:00017D0C       loc_418D0C
 0001:00017D27       loc_418D27
 0001:00017D2B       sub_418D2B
 0001:00017D3C       loc_418D3C
 0001:00017D58       sub_418D58
 0001:00017D85       loc_418D85
 0001:00017D9B       loc_418D9B
 0001:00017DA2       loc_418DA2
 0001:00017DDD       loc_418DDD
 0001:00017DF4       loc_418DF4
 0001:00017DF9       sub_418DF9
 0001:00017E0A       loc_418E0A
 0001:00017E26       sub_418E26
 0001:00017E48       loc_418E48
 0001:00017E5F       loc_418E5F
 0001:00017E81       loc_418E81
 0001:00017E85       sub_418E85
 0001:00017E96       loc_418E96
 0001:00017EAF       loc_418EAF
 0001:00017EB9       sub_418EB9
 0001:00017EF0       loc_418EF0
 0001:00017F0C       loc_418F0C
 0001:00017F13       loc_418F13
 0001:00017F19       loc_418F19
 0001:00017F50       loc_418F50
 0001:00017F52       loc_418F52
 0001:00017F65       loc_418F65
 0001:00017F6F       loc_418F6F
 0001:00017F84       loc_418F84
 0001:00017F97       loc_418F97
 0001:00017FA0       sub_418FA0
 0001:00017FF4       loc_418FF4
 0001:00018001       loc_419001
 0001:00018018       loc_419018
 0001:00018027       sub_419027
 0001:0001804A       loc_41904A
 0001:00018057       loc_419057
 0001:0001805C       loc_41905C
 0001:0001806F       loc_41906F
 0001:00018078       sub_419078
 0001:000180A4       loc_4190A4
 0001:000180B7       loc_4190B7
 0001:000180BD       loc_4190BD
 0001:000180C0       sub_4190C0
 0001:00018112       loc_419112
 0001:00018129       loc_419129
 0001:0001812F       sub_41912F
 0001:00018143       loc_419143
 0001:0001817A       loc_41917A
 0001:0001817F       loc_41917F
 0001:0001818B       loc_41918B
 0001:0001818F       loc_41918F
 0001:0001819C       loc_41919C
 0001:000181A6       sub_4191A6
 0001:000181B7       loc_4191B7
 0001:000181F0       loc_4191F0
 0001:000181FB       loc_4191FB
 0001:0001820C       loc_41920C
 0001:0001821E       loc_41921E
 0001:00018228       sub_419228
 0001:00018252       loc_419252
 0001:00018259       loc_419259
 0001:00018265       loc_419265
 0001:0001826C       loc_41926C
 0001:0001826F       loc_41926F
 0001:00018292       sub_419292
 0001:000182A3       loc_4192A3
 0001:000182BF       sub_4192BF
 0001:00018311       loc_419311
 0001:00018316       sub_419316
 0001:00018327       loc_419327
 0001:0001833C       loc_41933C
 0001:00018342       loc_419342
 0001:0001835B       sub_41935B
 0001:0001836F       loc_41936F
 0001:00018382       loc_419382
 0001:0001838B       sub_41938B
 0001:000183A5       loc_4193A5
 0001:000183B4       loc_4193B4
 0001:000183C3       loc_4193C3
 0001:000183D2       loc_4193D2
 0001:000183D9       loc_4193D9
 0001:000183E8       loc_4193E8
 0001:000183FA       loc_4193FA
 0001:0001840C       loc_41940C
 0001:00018415       sub_419415
 0001:0001842D       loc_41942D
 0001:0001843A       sub_41943A
 0001:00018480       loc_419480
 0001:00018485       sub_419485
 0001:000184C3       loc_4194C3
 0001:000184C5       loc_4194C5
 0001:000184E6       loc_4194E6
 0001:000184FD       loc_4194FD
 0001:00018504       sub_419504
 0001:00018532       loc_419532
 0001:00018536       loc_419536
 0001:0001854E       loc_41954E
 0001:0001857A       loc_41957A
 0001:0001857C       loc_41957C
 0001:000185A1       loc_4195A1
 0001:000185C2       loc_4195C2
 0001:000185DA       loc_4195DA
 0001:000185E7       loc_4195E7
 0001:00018608       loc_419608
 0001:0001860C       sub_41960C
 0001:0001864A       loc_41964A
 0001:0001864C       loc_41964C
 0001:0001866D       loc_41966D
 0001:00018684       loc_419684
 0001:0001868B       sub_41968B
 0001:000186C9       loc_4196C9
 0001:000186CB       loc_4196CB
 0001:000186EC       loc_4196EC
 0001:00018703       loc_419703
 0001:0001870A       sub_41970A
 0001:00018727       loc_419727
 0001:00018735       loc_419735
 0001:00018749       loc_419749
 0001:0001874D       sub_41974D
 0001:00018793       loc_419793
 0001:00018799       sub_419799
 0001:000187AD       loc_4197AD
 0001:000187BB       loc_4197BB
 0001:000187C0       loc_4197C0
 0001:000187D3       loc_4197D3
 0001:000187DC       sub_4197DC
 0001:000187F4       loc_4197F4
 0001:00018801       loc_419801
 0001:00018815       loc_419815
 0001:0001881A       loc_41981A
 0001:0001882D       loc_41982D
 0001:00018836       loc_419836
 0001:0001884F       loc_41984F
 0001:00018858       loc_419858
 0001:00018871       loc_419871
 0001:0001887A       sub_41987A
 0001:0001888B       loc_41988B
 0001:000188BE       loc_4198BE
 0001:000188E2       loc_4198E2
 0001:000188E6       loc_4198E6
 0001:000188E7       loc_4198E7
 0001:000188EA       sub_4198EA
 0001:0001890D       loc_41990D
 0001:00018911       sub_419911
 0001:00018923       loc_419923
 0001:0001895B       loc_41995B
 0001:0001898A       loc_41998A
 0001:00018991       loc_419991
 0001:00018994       sub_419994
 0001:000189B7       loc_4199B7
 0001:000189C2       loc_4199C2
 0001:000189E4       loc_4199E4
 0001:000189F2       loc_4199F2
 0001:00018A16       loc_419A16
 0001:00018A23       loc_419A23
 0001:00018A2C       loc_419A2C
 0001:00018A3A       loc_419A3A
 0001:00018A5E       loc_419A5E
 0001:00018A6B       loc_419A6B
 0001:00018A74       sub_419A74
 0001:00018A9C       loc_419A9C
 0001:00018AA1       loc_419AA1
 0001:00018AAC       loc_419AAC
 0001:00018AC1       sub_419AC1
 0001:00018AE0       loc_419AE0
 0001:00018AEC       loc_419AEC
 0001:00018AF0       sub_419AF0
 0001:00018B1C       loc_419B1C
 0001:00018B22       loc_419B22
 0001:00018B2C       loc_419B2C
 0001:00018B43       loc_419B43
 0001:00018B52       sub_419B52
 0001:00018B63       loc_419B63
 0001:00018B7F       sub_419B7F
 0001:00018BB4       loc_419BB4
 0001:00018BB9       sub_419BB9
 0001:00018BEE       loc_419BEE
 0001:00018BF3       sub_419BF3
 0001:00018C22       sub_419C22
 0001:00018C4D       loc_419C4D
 0001:00018C6D       loc_419C6D
 0001:00018C7E       loc_419C7E
 0001:00018C9B       loc_419C9B
 0001:00018CAB       loc_419CAB
 0001:00018CBD       loc_419CBD
 0001:00018CC4       loc_419CC4
 0001:00018CE8       loc_419CE8
 0001:00018CFD       loc_419CFD
 0001:00018D01       loc_419D01
 0001:00018D0D       loc_419D0D
 0001:00018D12       loc_419D12
 0001:00018D27       loc_419D27
 0001:00018D2A       loc_419D2A
 0001:00018D31       sub_419D31
 0001:00018D49       loc_419D49
 0001:00018D5C       loc_419D5C
 0001:00018D65       sub_419D65
 0001:00018DA9       loc_419DA9
 0001:00018DC0       loc_419DC0
 0001:00018DCF       sub_419DCF
 0001:00018DE7       loc_419DE7
 0001:00018DFA       loc_419DFA
 0001:00018E03       loc_419E03
 0001:00018E18       loc_419E18
 0001:00018E2B       loc_419E2B
 0001:00018E34       sub_419E34
 0001:00018E45       loc_419E45
 0001:00018E77       loc_419E77
 0001:00018E81       sub_419E81
 0001:00018EC9       loc_419EC9
 0001:00018EE0       loc_419EE0
 0001:00018EEF       sub_419EEF
 0001:00018F38       loc_419F38
 0001:00018F80       loc_419F80
 0001:00018FC1       loc_419FC1
 0001:00018FDF       loc_419FDF
 0001:00018FED       loc_419FED
 0001:00018FFE       loc_419FFE
 0001:00019005       loc_41A005
 0001:0001900F       loc_41A00F
 0001:00019016       loc_41A016
 0001:00019023       loc_41A023
 0001:00019028       loc_41A028
 0001:00019042       loc_41A042
 0001:0001904D       loc_41A04D
 0001:00019095       loc_41A095
 0001:000190B3       loc_41A0B3
 0001:000190C1       loc_41A0C1
 0001:000190D6       loc_41A0D6
 0001:000190E1       loc_41A0E1
 0001:000190F8       loc_41A0F8
 0001:0001914F       loc_41A14F
 0001:0001915A       loc_41A15A
 0001:00019167       loc_41A167
 0001:00019174       loc_41A174
 0001:00019179       loc_41A179
 0001:0001917C       loc_41A17C
 0001:00019189       loc_41A189
 0001:00019195       loc_41A195
 0001:00019197       loc_41A197
 0001:0001919C       sub_41A19C
 0001:000191E6       loc_41A1E6
 0001:000191ED       sub_41A1ED
 0001:00019206       loc_41A206
 0001:00019211       loc_41A211
 0001:00019222       loc_41A222
 0001:00019233       loc_41A233
 0001:00019244       loc_41A244
 0001:00019255       loc_41A255
 0001:0001925E       loc_41A25E
 0001:00019263       sub_41A263
 0001:00019290       loc_41A290
 0001:0001929E       loc_41A29E
 0001:00019360       loc_41A360
 0001:00019365       loc_41A365
 0001:000193A3       loc_41A3A3
 0001:000193AA       loc_41A3AA
 0001:000193B1       loc_41A3B1
 0001:000193B8       loc_41A3B8
 0001:000193BF       loc_41A3BF
 0001:000193C3       loc_41A3C3
 0001:000193C5       loc_41A3C5
 0001:000193CD       sub_41A3CD
 0001:000193E6       loc_41A3E6
 0001:000193F9       loc_41A3F9
 0001:000193FC       loc_41A3FC
 0001:00019411       loc_41A411
 0001:00019426       loc_41A426
 0001:0001943F       sub_41A43F
 0001:0001946B       loc_41A46B
 0001:00019478       loc_41A478
 0001:00019482       loc_41A482
 0001:0001948C       loc_41A48C
 0001:00019496       loc_41A496
 0001:000194A0       loc_41A4A0
 0001:000194AA       loc_41A4AA
 0001:000194C3       loc_41A4C3
 0001:000194D1       loc_41A4D1
 0001:000194DB       loc_41A4DB
 0001:000194E5       loc_41A4E5
 0001:000194EF       loc_41A4EF
 0001:000194F9       loc_41A4F9
 0001:00019501       loc_41A501
 0001:0001950F       loc_41A50F
 0001:00019511       sub_41A511
 0001:00019542       loc_41A542
 0001:0001954A       loc_41A54A
 0001:00019580       loc_41A580
 0001:00019599       loc_41A599
 0001:0001959C       loc_41A59C
 0001:000195A3       loc_41A5A3
 0001:000195CB       loc_41A5CB
 0001:000195E2       sub_41A5E2
 0001:00019661       loc_41A661
 0001:00019663       loc_41A663
 0001:0001966A       loc_41A66A
 0001:0001968B       loc_41A68B
 0001:000196D5       loc_41A6D5
 0001:0001971A       loc_41A71A
 0001:00019762       loc_41A762
 0001:00019769       loc_41A769
 0001:0001978B       loc_41A78B
 0001:000197BC       loc_41A7BC
 0001:000197D7       loc_41A7D7
 0001:000197E5       loc_41A7E5
 0001:00019827       loc_41A827
 0001:00019833       loc_41A833
 0001:00019836       loc_41A836
 0001:00019838       loc_41A838
 0001:00019865       loc_41A865
 0001:00019887       sub_41A887
 0001:000198C1       loc_41A8C1
 0001:0001992C       loc_41A92C
 0001:00019934       loc_41A934
 0001:00019936       loc_41A936
 0001:0001993B       sub_41A93B
 0001:00019A0D       loc_41AA0D
 0001:00019A1B       loc_41AA1B
 0001:00019A22       loc_41AA22
 0001:00019A27       loc_41AA27
 0001:00019A41       loc_41AA41
 0001:00019A54       loc_41AA54
 0001:00019A57       loc_41AA57
 0001:00019A64       loc_41AA64
 0001:00019A87       loc_41AA87
 0001:00019A94       loc_41AA94
 0001:00019AAA       loc_41AAAA
 0001:00019ABA       loc_41AABA
 0001:00019AC8       loc_41AAC8
 0001:00019AE0       loc_41AAE0
 0001:00019B10       loc_41AB10
 0001:00019B21       loc_41AB21
 0001:00019B48       loc_41AB48
 0001:00019B4B       loc_41AB4B
 0001:00019B59       loc_41AB59
 0001:00019B80       loc_41AB80
 0001:00019B83       loc_41AB83
 0001:00019B8E       loc_41AB8E
 0001:00019BB3       loc_41ABB3
 0001:00019BBC       loc_41ABBC
 0001:00019BBE       loc_41ABBE
 0001:00019BC5       sub_41ABC5
 0001:00019C1D       loc_41AC1D
 0001:00019C2B       loc_41AC2B
 0001:00019C3C       loc_41AC3C
 0001:00019C43       sub_41AC43
 0001:00019C5E       loc_41AC5E
 0001:00019C63       loc_41AC63
 0001:00019CD2       sub_41ACD2
 0001:00019D2C       loc_41AD2C
 0001:00019D3A       loc_41AD3A
 0001:00019D4B       loc_41AD4B
 0001:00019D52       sub_41AD52
 0001:00019D7B       sub_41AD7B
 0001:00019DA7       loc_41ADA7
 0001:00019DBF       loc_41ADBF
 0001:00019DCA       sub_41ADCA
 0001:00019DD7       loc_41ADD7
 0001:00019DDF       loc_41ADDF
 0001:00019E02       loc_41AE02
 0001:00019E0C       loc_41AE0C
 0001:00019E18       loc_41AE18
 0001:00019E19       loc_41AE19
 0001:00019E24       sub_41AE24
 0001:00019E71       sub_41AE71
 0001:00019E84       loc_41AE84
 0001:00019E8E       loc_41AE8E
 0001:00019E92       loc_41AE92
 0001:00019EB7       loc_41AEB7
 0001:00019EB9       loc_41AEB9
 0001:00019ED3       loc_41AED3
 0001:00019EE9       loc_41AEE9
 0001:00019EF6       loc_41AEF6
 0001:00019EFC       loc_41AEFC
 0001:00019F10       loc_41AF10
 0001:00019F3F       loc_41AF3F
 0001:00019F4B       loc_41AF4B
 0001:00019F63       loc_41AF63
 0001:00019F6B       loc_41AF6B
 0001:00019F6E       loc_41AF6E
 0001:00019F71       loc_41AF71
 0001:00019F82       loc_41AF82
 0001:00019F8C       loc_41AF8C
 0001:00019F95       loc_41AF95
 0001:00019F98       loc_41AF98
 0001:00019F9F       sub_41AF9F
 0001:00019FD6       loc_41AFD6
 0001:0001A01A       loc_41B01A
 0001:0001A083       loc_41B083
 0001:0001A0AA       loc_41B0AA
 0001:0001A0B0       loc_41B0B0
 0001:0001A0B2       loc_41B0B2
 0001:0001A0B7       sub_41B0B7
 0001:0001A0EF       loc_41B0EF
 0001:0001A0F6       loc_41B0F6
 0001:0001A0FE       loc_41B0FE
 0001:0001A10E       loc_41B10E
 0001:0001A11D       loc_41B11D
 0001:0001A12D       loc_41B12D
 0001:0001A139       loc_41B139
 0001:0001A162       loc_41B162
 0001:0001A165       loc_41B165
 0001:0001A197       loc_41B197
 0001:0001A1A5       loc_41B1A5
 0001:0001A1C4       loc_41B1C4
 0001:0001A1E3       loc_41B1E3
 0001:0001A202       loc_41B202
 0001:0001A224       loc_41B224
 0001:0001A241       loc_41B241
 0001:0001A24A       loc_41B24A
 0001:0001A25F       loc_41B25F
 0001:0001A262       loc_41B262
 0001:0001A27A       loc_41B27A
 0001:0001A281       loc_41B281
 0001:0001A2A0       loc_41B2A0
 0001:0001A2D5       loc_41B2D5
 0001:0001A2D9       loc_41B2D9
 0001:0001A2DB       loc_41B2DB
 0001:0001A2DC       loc_41B2DC
 0001:0001A2F6       loc_41B2F6
 0001:0001A2FD       loc_41B2FD
 0001:0001A306       loc_41B306
 0001:0001A310       loc_41B310
 0001:0001A3AC       loc_41B3AC
 0001:0001A3B2       loc_41B3B2
 0001:0001A3D9       loc_41B3D9
 0001:0001A4B6       loc_41B4B6
 0001:0001A4CA       loc_41B4CA
 0001:0001A4E1       loc_41B4E1
 0001:0001A52E       loc_41B52E
 0001:0001A535       loc_41B535
 0001:0001A53E       loc_41B53E
 0001:0001A54F       loc_41B54F
 0001:0001A55A       loc_41B55A
 0001:0001A55D       loc_41B55D
 0001:0001A56A       loc_41B56A
 0001:0001A575       loc_41B575
 0001:0001A581       loc_41B581
 0001:0001A58C       loc_41B58C
 0001:0001A593       loc_41B593
 0001:0001A5B8       loc_41B5B8
 0001:0001A5D1       loc_41B5D1
 0001:0001A5EB       loc_41B5EB
 0001:0001A5F5       loc_41B5F5
 0001:0001A60A       loc_41B60A
 0001:0001A61C       loc_41B61C
 0001:0001A639       loc_41B639
 0001:0001A641       loc_41B641
 0001:0001A643       loc_41B643
 0001:0001A644       loc_41B644
 0001:0001A648       sub_41B648
 0001:0001A661       loc_41B661
 0001:0001A679       loc_41B679
 0001:0001A67B       loc_41B67B
 0001:0001A682       loc_41B682
 0001:0001A68C       loc_41B68C
 0001:0001A6BE       loc_41B6BE
 0001:0001A6C2       sub_41B6C2
 0001:0001A6DC       loc_41B6DC
 0001:0001A6E0       loc_41B6E0
 0001:0001A6EA       loc_41B6EA
 0001:0001A6FD       loc_41B6FD
 0001:0001A72C       loc_41B72C
 0001:0001A72E       loc_41B72E
 0001:0001A735       sub_41B735
 0001:0001A781       loc_41B781
 0001:0001A79F       loc_41B79F
 0001:0001A7AB       loc_41B7AB
 0001:0001A7DC       loc_41B7DC
 0001:0001A7E8       loc_41B7E8
 0001:0001A7F4       loc_41B7F4
 0001:0001A800       loc_41B800
 0001:0001A80C       loc_41B80C
 0001:0001A818       loc_41B818
 0001:0001A84C       loc_41B84C
 0001:0001A85B       loc_41B85B
 0001:0001A90F       loc_41B90F
 0001:0001A912       loc_41B912
 0001:0001A91E       loc_41B91E
 0001:0001A94A       loc_41B94A
 0001:0001A951       loc_41B951
 0001:0001A956       loc_41B956
 0001:0001A967       loc_41B967
 0001:0001A96B       loc_41B96B
 0001:0001A96D       loc_41B96D
 0001:0001A96E       loc_41B96E
 0001:0001A98D       loc_41B98D
 0001:0001A994       loc_41B994
 0001:0001A99D       loc_41B99D
 0001:0001A9A2       loc_41B9A2
 0001:0001A9A8       loc_41B9A8
 0001:0001A9BA       loc_41B9BA
 0001:0001AA07       loc_41BA07
 0001:0001AA10       loc_41BA10
 0001:0001AA16       loc_41BA16
 0001:0001AA43       loc_41BA43
 0001:0001AA5C       loc_41BA5C
 0001:0001AA5F       loc_41BA5F
 0001:0001AA66       loc_41BA66
 0001:0001AA97       loc_41BA97
 0001:0001AAAF       loc_41BAAF
 0001:0001AADB       loc_41BADB
 0001:0001AADE       loc_41BADE
 0001:0001AB03       loc_41BB03
 0001:0001AB0F       loc_41BB0F
 0001:0001AB30       loc_41BB30
 0001:0001AB4F       loc_41BB4F
 0001:0001AB55       loc_41BB55
 0001:0001AB5A       loc_41BB5A
 0001:0001AB66       loc_41BB66
 0001:0001AB7A       loc_41BB7A
 0001:0001AB84       loc_41BB84
 0001:0001AB91       loc_41BB91
 0001:0001AB9B       loc_41BB9B
 0001:0001ABB2       loc_41BBB2
 0001:0001ABD8       loc_41BBD8
 0001:0001ABFA       loc_41BBFA
 0001:0001ABFB       loc_41BBFB
 0001:0001AC00       loc_41BC00
 0001:0001AC12       loc_41BC12
 0001:0001AC1F       loc_41BC1F
 0001:0001AC26       loc_41BC26
 0001:0001AC41       loc_41BC41
 0001:0001AC46       loc_41BC46
 0001:0001AC7F       loc_41BC7F
 0001:0001AC93       loc_41BC93
 0001:0001AC9B       loc_41BC9B
 0001:0001ACAA       loc_41BCAA
 0001:0001ACAB       loc_41BCAB
 0001:0001ACB8       loc_41BCB8
 0001:0001AD02       loc_41BD02
 0001:0001AD05       loc_41BD05
 0001:0001AD31       loc_41BD31
 0001:0001AD41       loc_41BD41
 0001:0001AD65       loc_41BD65
 0001:0001AD6A       loc_41BD6A
 0001:0001AD89       loc_41BD89
 0001:0001ADD2       loc_41BDD2
 0001:0001ADDA       loc_41BDDA
 0001:0001ADE2       loc_41BDE2
 0001:0001ADE7       loc_41BDE7
 0001:0001AE1E       loc_41BE1E
 0001:0001AE26       loc_41BE26
 0001:0001AE30       loc_41BE30
 0001:0001AE3A       loc_41BE3A
 0001:0001AE42       loc_41BE42
 0001:0001AE4B       loc_41BE4B
 0001:0001AE61       loc_41BE61
 0001:0001AE66       loc_41BE66
 0001:0001AE68       loc_41BE68
 0001:0001AE69       loc_41BE69
 0001:0001AE71       sub_41BE71
 0001:0001AE90       loc_41BE90
 0001:0001AF5C       loc_41BF5C
 0001:0001AF60       loc_41BF60
 0001:0001AF63       sub_41BF63
 0001:0001AF93       loc_41BF93
 0001:0001AFB8       loc_41BFB8
 0001:0001AFBF       loc_41BFBF
 0001:0001AFD2       loc_41BFD2
 0001:0001AFDF       loc_41BFDF
 0001:0001AFE7       loc_41BFE7
 0001:0001AFED       loc_41BFED
 0001:0001AFF4       loc_41BFF4
 0001:0001AFFD       loc_41BFFD
 0001:0001B003       loc_41C003
 0001:0001B012       loc_41C012
 0001:0001B01D       loc_41C01D
 0001:0001B02F       loc_41C02F
 0001:0001B033       loc_41C033
 0001:0001B03F       loc_41C03F
 0001:0001B044       loc_41C044
 0001:0001B04A       loc_41C04A
 0001:0001B050       loc_41C050
 0001:0001B05A       loc_41C05A
 0001:0001B062       loc_41C062
 0001:0001B06A       loc_41C06A
 0001:0001B073       loc_41C073
 0001:0001B07A       loc_41C07A
 0001:0001B07D       loc_41C07D
 0001:0001B07F       loc_41C07F
 0001:0001B083       loc_41C083
 0001:0001B087       loc_41C087
 0001:0001B089       loc_41C089
 0001:0001B08A       loc_41C08A
 0001:0001B08F       off_41C08F
 0001:0001B0CB       sub_41C0CB
 0001:0001B0F4       loc_41C0F4
 0001:0001B124       loc_41C124
 0001:0001B152       loc_41C152
 0001:0001B155       loc_41C155
 0001:0001B15D       loc_41C15D
 0001:0001B15F       loc_41C15F
 0001:0001B162       loc_41C162
 0001:0001B170       sub_41C170
 0001:0001B19A       loc_41C19A
 0001:0001B1C9       loc_41C1C9
 0001:0001B1CB       loc_41C1CB
 0001:0001B1E1       loc_41C1E1
 0001:0001B1F6       loc_41C1F6
 0001:0001B201       loc_41C201
 0001:0001B204       loc_41C204
 0001:0001B207       loc_41C207
 0001:0001B23C       loc_41C23C
 0001:0001B24B       loc_41C24B
 0001:0001B25D       loc_41C25D
 0001:0001B2B2       loc_41C2B2
 0001:0001B2BB       loc_41C2BB
 0001:0001B2C0       loc_41C2C0
 0001:0001B2F7       loc_41C2F7
 0001:0001B308       loc_41C308
 0001:0001B319       loc_41C319
 0001:0001B327       loc_41C327
 0001:0001B33B       loc_41C33B
 0001:0001B340       loc_41C340
 0001:0001B348       loc_41C348
 0001:0001B367       loc_41C367
 0001:0001B36F       loc_41C36F
 0001:0001B374       loc_41C374
 0001:0001B379       loc_41C379
 0001:0001B37E       loc_41C37E
 0001:0001B392       loc_41C392
 0001:0001B397       loc_41C397
 0001:0001B39A       loc_41C39A
 0001:0001B3A0       loc_41C3A0
 0001:0001B3A3       loc_41C3A3
 0001:0001B3AD       loc_41C3AD
 0001:0001B419       loc_41C419
 0001:0001B435       loc_41C435
 0001:0001B43B       loc_41C43B
 0001:0001B45F       loc_41C45F
 0001:0001B487       loc_41C487
 0001:0001B494       loc_41C494
 0001:0001B499       sub_41C499
 0001:0001B4E4       loc_41C4E4
 0001:0001B4E8       loc_41C4E8
 0001:0001B4ED       loc_41C4ED
 0001:0001B4F1       sub_41C4F1
 0001:0001B56A       loc_41C56A
 0001:0001B56D       loc_41C56D
 0001:0001B57D       loc_41C57D
 0001:0001B586       loc_41C586
 0001:0001B59A       loc_41C59A
 0001:0001B59F       loc_41C59F
 0001:0001B5BA       loc_41C5BA
 0001:0001B5C4       loc_41C5C4
 0001:0001B621       loc_41C621
 0001:0001B65A       loc_41C65A
 0001:0001B65F       loc_41C65F
 0001:0001B67C       loc_41C67C
 0001:0001B697       loc_41C697
 0001:0001B6C4       loc_41C6C4
 0001:0001B6C9       loc_41C6C9
 0001:0001B6D7       loc_41C6D7
 0001:0001B6E4       loc_41C6E4
 0001:0001B70A       loc_41C70A
 0001:0001B71B       loc_41C71B
 0001:0001B722       loc_41C722
 0001:0001B7A8       loc_41C7A8
 0001:0001B7D5       loc_41C7D5
 0001:0001B7F9       loc_41C7F9
 0001:0001B860       loc_41C860
 0001:0001B88A       loc_41C88A
 0001:0001B8E1       loc_41C8E1
 0001:0001B91E       loc_41C91E
 0001:0001B939       loc_41C939
 0001:0001B948       loc_41C948
 0001:0001B974       loc_41C974
 0001:0001B97A       loc_41C97A
 0001:0001B981       loc_41C981
 0001:0001B9BC       loc_41C9BC
 0001:0001B9F7       loc_41C9F7
 0001:0001BA13       loc_41CA13
 0001:0001BA2E       loc_41CA2E
 0001:0001BA3D       loc_41CA3D
 0001:0001BA41       loc_41CA41
 0001:0001BABB       loc_41CABB
 0001:0001BAE2       loc_41CAE2
 0001:0001BB07       loc_41CB07
 0001:0001BB0F       loc_41CB0F
 0001:0001BB3E       loc_41CB3E
 0001:0001BB46       loc_41CB46
 0001:0001BB70       loc_41CB70
 0001:0001BB81       loc_41CB81
 0001:0001BB89       loc_41CB89
 0001:0001BBA5       loc_41CBA5
 0001:0001BBB3       loc_41CBB3
 0001:0001BBBE       sub_41CBBE
 0001:0001BBF0       loc_41CBF0
 0001:0001BBF3       loc_41CBF3
 0001:0001BC12       loc_41CC12
 0001:0001BC19       loc_41CC19
 0001:0001BC35       loc_41CC35
 0001:0001BC39       loc_41CC39
 0001:0001BC42       loc_41CC42
 0001:0001BC74       loc_41CC74
 0001:0001BCEF       loc_41CCEF
 0001:0001BD0E       loc_41CD0E
 0001:0001BD59       loc_41CD59
 0001:0001BD73       loc_41CD73
 0001:0001BD7E       loc_41CD7E
 0001:0001BD86       loc_41CD86
 0001:0001BD89       loc_41CD89
 0001:0001BD95       loc_41CD95
 0001:0001BDA4       loc_41CDA4
 0001:0001BDA8       loc_41CDA8
 0001:0001BDB1       loc_41CDB1
 0001:0001BDB8       loc_41CDB8
 0001:0001BDBC       loc_41CDBC
 0001:0001BDC3       loc_41CDC3
 0001:0001BDF6       loc_41CDF6
 0001:0001BE03       loc_41CE03
 0001:0001BE3B       loc_41CE3B
 0001:0001BE91       loc_41CE91
 0001:0001BE9A       loc_41CE9A
 0001:0001BE9D       loc_41CE9D
 0001:0001BEA2       loc_41CEA2
 0001:0001BEA5       loc_41CEA5
 0001:0001BEAD       loc_41CEAD
 0001:0001BEC2       loc_41CEC2
 0001:0001BEC7       loc_41CEC7
 0001:0001BF20       loc_41CF20
 0001:0001BF2B       loc_41CF2B
 0001:0001BF34       loc_41CF34
 0001:0001BF3C       loc_41CF3C
 0001:0001BF3F       loc_41CF3F
 0001:0001BF48       loc_41CF48
 0001:0001BF68       loc_41CF68
 0001:0001BF6C       loc_41CF6C
 0001:0001BF77       loc_41CF77
 0001:0001BFA1       loc_41CFA1
 0001:0001BFB7       loc_41CFB7
 0001:0001BFC6       loc_41CFC6
 0001:0001BFDE       loc_41CFDE
 0001:0001BFF0       loc_41CFF0
 0001:0001C013       loc_41D013
 0001:0001C02A       locret_41D02A
 0001:0001C02C       __expand
 0001:0001C03A       loc_41D03A
 0001:0001C071       loc_41D071
 0001:0001C076       loc_41D076
 0001:0001C080       loc_41D080
 0001:0001C085       loc_41D085
 0001:0001C08A       loc_41D08A
 0001:0001C09A       loc_41D09A
 0001:0001C0A0       sub_41D0A0
 0001:0001C0F9       loc_41D0F9
 0001:0001C111       loc_41D111
 0001:0001C122       loc_41D122
 0001:0001C138       loc_41D138
 0001:0001C15E       loc_41D15E
 0001:0001C16F       loc_41D16F
 0001:0001C172       loc_41D172
 0001:0001C17D       loc_41D17D
 0001:0001C189       loc_41D189
 0001:0001C18E       loc_41D18E
 0001:0001C193       loc_41D193
 0001:0001C19F       loc_41D19F
 0001:0001C1A8       sub_41D1A8
 0001:0001C1BF       loc_41D1BF
 0001:0001C1CD       loc_41D1CD
 0001:0001C1D4       loc_41D1D4
 0001:0001C1DE       loc_41D1DE
 0001:0001C230       loc_41D230
 0001:0001C23F       loc_41D23F
 0001:0001C25A       loc_41D25A
 0001:0001C26B       loc_41D26B
 0001:0001C26E       loc_41D26E
 0001:0001C27F       loc_41D27F
 0001:0001C28C       loc_41D28C
 0001:0001C291       loc_41D291
 0001:0001C2C6       loc_41D2C6
 0001:0001C2E7       loc_41D2E7
 0001:0001C2EA       loc_41D2EA
 0001:0001C2F1       loc_41D2F1
 0001:0001C2F9       loc_41D2F9
 0001:0001C30B       loc_41D30B
 0001:0001C31E       loc_41D31E
 0001:0001C32B       loc_41D32B
 0001:0001C330       loc_41D330
 0001:0001C385       loc_41D385
 0001:0001C39C       loc_41D39C
 0001:0001C3BA       loc_41D3BA
 0001:0001C3D2       loc_41D3D2
 0001:0001C3D8       loc_41D3D8
 0001:0001C3DB       loc_41D3DB
 0001:0001C3DF       loc_41D3DF
 0001:0001C3E1       loc_41D3E1
 0001:0001C3E6       loc_41D3E6
 0001:0001C40C       loc_41D40C
 0001:0001C41C       loc_41D41C
 0001:0001C421       loc_41D421
 0001:0001C423       loc_41D423
 0001:0001C438       loc_41D438
 0001:0001C467       sub_41D467
 0001:0001C4C7       loc_41D4C7
 0001:0001C4CB       loc_41D4CB
 0001:0001C4D8       loc_41D4D8
 0001:0001C4F1       loc_41D4F1
 0001:0001C540       loc_41D540
 0001:0001C554       loc_41D554
 0001:0001C561       loc_41D561
 0001:0001C571       loc_41D571
 0001:0001C583       loc_41D583
 0001:0001C586       loc_41D586
 0001:0001C596       loc_41D596
 0001:0001C5AE       loc_41D5AE
 0001:0001C5BD       loc_41D5BD
 0001:0001C5CE       loc_41D5CE
 0001:0001C5D1       loc_41D5D1
 0001:0001C5D6       sub_41D5D6
 0001:0001C615       loc_41D615
 0001:0001C63D       loc_41D63D
 0001:0001C644       loc_41D644
 0001:0001C67D       loc_41D67D
 0001:0001C682       loc_41D682
 0001:0001C6A2       loc_41D6A2
 0001:0001C6AD       loc_41D6AD
 0001:0001C6B5       loc_41D6B5
 0001:0001C6B6       loc_41D6B6
 0001:0001C6DE       loc_41D6DE
 0001:0001C71C       loc_41D71C
 0001:0001C732       loc_41D732
 0001:0001C761       loc_41D761
 0001:0001C777       loc_41D777
 0001:0001C7A5       loc_41D7A5
 0001:0001C7A8       loc_41D7A8
 0001:0001C7C4       loc_41D7C4
 0001:0001C7C9       loc_41D7C9
 0001:0001C7F7       loc_41D7F7
 0001:0001C824       loc_41D824
 0001:0001C83B       loc_41D83B
 0001:0001C845       loc_41D845
 0001:0001C856       loc_41D856
 0001:0001C886       loc_41D886
 0001:0001C88C       loc_41D88C
 0001:0001C8A2       loc_41D8A2
 0001:0001C8A8       loc_41D8A8
 0001:0001C8C9       loc_41D8C9
 0001:0001C914       loc_41D914
 0001:0001C926       loc_41D926
 0001:0001C938       loc_41D938
 0001:0001C93F       loc_41D93F
 0001:0001C94F       loc_41D94F
 0001:0001C95D       loc_41D95D
 0001:0001C997       loc_41D997
 0001:0001C99B       loc_41D99B
 0001:0001C9B2       loc_41D9B2
 0001:0001C9DC       loc_41D9DC
 0001:0001C9E4       sub_41D9E4
 0001:0001CA1E       loc_41DA1E
 0001:0001CA38       loc_41DA38
 0001:0001CA45       loc_41DA45
 0001:0001CA46       loc_41DA46
 0001:0001CA49       sub_41DA49
 0001:0001CAC0       loc_41DAC0
 0001:0001CAC7       loc_41DAC7
 0001:0001CAE8       loc_41DAE8
 0001:0001CB13       loc_41DB13
 0001:0001CB1A       loc_41DB1A
 0001:0001CB25       loc_41DB25
 0001:0001CB3C       loc_41DB3C
 0001:0001CB3F       loc_41DB3F
 0001:0001CB47       loc_41DB47
 0001:0001CB5F       loc_41DB5F
 0001:0001CB64       loc_41DB64
 0001:0001CB81       loc_41DB81
 0001:0001CB9D       loc_41DB9D
 0001:0001CBA3       loc_41DBA3
 0001:0001CBA8       loc_41DBA8
 0001:0001CBC2       loc_41DBC2
 0001:0001CBE0       loc_41DBE0
 0001:0001CBE5       sub_41DBE5
 0001:0001CC56       loc_41DC56
 0001:0001CC58       loc_41DC58
 0001:0001CCBD       loc_41DCBD
 0001:0001CD07       loc_41DD07
 0001:0001CD08       loc_41DD08
 0001:0001CD0D       loc_41DD0D
 0001:0001CD0E       loc_41DD0E
 0001:0001CD12       sub_41DD12
 0001:0001CD7D       loc_41DD7D
 0001:0001CDB2       loc_41DDB2
 0001:0001CDB9       loc_41DDB9
 0001:0001CDCA       loc_41DDCA
 0001:0001CDD3       loc_41DDD3
 0001:0001CE0C       loc_41DE0C
 0001:0001CE36       loc_41DE36
 0001:0001CE76       loc_41DE76
 0001:0001CE96       loc_41DE96
 0001:0001CEC0       loc_41DEC0
 0001:0001CEC5       loc_41DEC5
 0001:0001CEDA       loc_41DEDA
 0001:0001CEE7       loc_41DEE7
 0001:0001CF10       loc_41DF10
 0001:0001CF14       loc_41DF14
 0001:0001CF41       loc_41DF41
 0001:0001CF4B       loc_41DF4B
 0001:0001CF51       loc_41DF51
 0001:0001CF52       loc_41DF52
 0001:0001CF7B       loc_41DF7B
 0001:0001CFA6       loc_41DFA6
 0001:0001CFB2       loc_41DFB2
 0001:0001CFCB       loc_41DFCB
 0001:0001CFE7       loc_41DFE7
 0001:0001D005       loc_41E005
 0001:0001D025       loc_41E025
 0001:0001D03E       loc_41E03E
 0001:0001D05A       loc_41E05A
 0001:0001D076       loc_41E076
 0001:0001D0B0       loc_41E0B0
 0001:0001D0BC       loc_41E0BC
 0001:0001D0D9       loc_41E0D9
 0001:0001D112       loc_41E112
 0001:0001D12E       loc_41E12E
 0001:0001D15E       loc_41E15E
 0001:0001D190       loc_41E190
 0001:0001D196       loc_41E196
 0001:0001D1AE       loc_41E1AE
 0001:0001D1B4       loc_41E1B4
 0001:0001D1D9       loc_41E1D9
 0001:0001D1DA       loc_41E1DA
 0001:0001D1E2       loc_41E1E2
 0001:0001D1F6       loc_41E1F6
 0001:0001D21F       loc_41E21F
 0001:0001D244       loc_41E244
 0001:0001D291       loc_41E291
 0001:0001D2A6       loc_41E2A6
 0001:0001D2CE       loc_41E2CE
 0001:0001D2E5       loc_41E2E5
 0001:0001D2E6       loc_41E2E6
 0001:0001D2E7       loc_41E2E7
 0001:0001D2EA       sub_41E2EA
 0001:0001D339       loc_41E339
 0001:0001D35A       loc_41E35A
 0001:0001D375       loc_41E375
 0001:0001D379       sub_41E379
 0001:0001D3C0       loc_41E3C0
 0001:0001D3C3       loc_41E3C3
 0001:0001D3F4       loc_41E3F4
 0001:0001D3FA       loc_41E3FA
 0001:0001D457       loc_41E457
 0001:0001D471       loc_41E471
 0001:0001D476       sub_41E476
 0001:0001D495       loc_41E495
 0001:0001D497       loc_41E497
 0001:0001D4AD       loc_41E4AD
 0001:0001D4B0       loc_41E4B0
 0001:0001D4C3       loc_41E4C3
 0001:0001D4C6       loc_41E4C6
 0001:0001D502       sub_41E502
 0001:0001D529       sub_41E529
 0001:0001D583       loc_41E583
 0001:0001D590       loc_41E590
 0001:0001D5AA       loc_41E5AA
 0001:0001D5CF       loc_41E5CF
 0001:0001D5D2       loc_41E5D2
 0001:0001D5EF       loc_41E5EF
 0001:0001D5F6       loc_41E5F6
 0001:0001D629       loc_41E629
 0001:0001D636       loc_41E636
 0001:0001D638       loc_41E638
 0001:0001D65B       loc_41E65B
 0001:0001D665       loc_41E665
 0001:0001D66B       loc_41E66B
 0001:0001D66C       loc_41E66C
 0001:0001D695       loc_41E695
 0001:0001D6CA       loc_41E6CA
 0001:0001D6FA       loc_41E6FA
 0001:0001D70B       loc_41E70B
 0001:0001D731       loc_41E731
 0001:0001D75C       loc_41E75C
 0001:0001D777       loc_41E777
 0001:0001D788       loc_41E788
 0001:0001D7A5       loc_41E7A5
 0001:0001D7D0       loc_41E7D0
 0001:0001D7E9       loc_41E7E9
 0001:0001D81B       loc_41E81B
 0001:0001D83A       loc_41E83A
 0001:0001D849       loc_41E849
 0001:0001D869       loc_41E869
 0001:0001D885       loc_41E885
 0001:0001D886       loc_41E886
 0001:0001D890       loc_41E890
 0001:0001D8A2       loc_41E8A2
 0001:0001D8A5       loc_41E8A5
 0001:0001D8DF       loc_41E8DF
 0001:0001D8FC       loc_41E8FC
 0001:0001D908       loc_41E908
 0001:0001D925       loc_41E925
 0001:0001D93D       loc_41E93D
 0001:0001D956       loc_41E956
 0001:0001D972       loc_41E972
 0001:0001D97B       loc_41E97B
 0001:0001D97C       loc_41E97C
 0001:0001D980       sub_41E980
 0001:0001DA27       loc_41EA27
 0001:0001DA2C       loc_41EA2C
 0001:0001DA33       loc_41EA33
 0001:0001DA56       loc_41EA56
 0001:0001DA59       loc_41EA59
 0001:0001DA60       loc_41EA60
 0001:0001DA66       loc_41EA66
 0001:0001DAC3       loc_41EAC3
 0001:0001DAC9       loc_41EAC9
 0001:0001DACA       loc_41EACA
 0001:0001DACE       sub_41EACE
 0001:0001DB1D       loc_41EB1D
 0001:0001DB2A       loc_41EB2A
 0001:0001DB63       loc_41EB63
 0001:0001DB6F       loc_41EB6F
 0001:0001DB7D       loc_41EB7D
 0001:0001DB81       loc_41EB81
 0001:0001DB9D       loc_41EB9D
 0001:0001DB9F       loc_41EB9F
 0001:0001DBA2       loc_41EBA2
 0001:0001DBA5       loc_41EBA5
 0001:0001DBB9       loc_41EBB9
 0001:0001DBDE       loc_41EBDE
 0001:0001DBE4       loc_41EBE4
 0001:0001DBF7       loc_41EBF7
 0001:0001DBF9       loc_41EBF9
 0001:0001DBFD       loc_41EBFD
 0001:0001DBFF       loc_41EBFF
 0001:0001DC00       loc_41EC00
 0001:0001DC04       loc_41EC04
 0001:0001DC2E       loc_41EC2E
 0001:0001DC34       sub_41EC34
 0001:0001DCA4       loc_41ECA4
 0001:0001DCBC       loc_41ECBC
 0001:0001DCC7       loc_41ECC7
 0001:0001DCE1       loc_41ECE1
 0001:0001DD02       loc_41ED02
 0001:0001DD03       loc_41ED03
 0001:0001DD0D       loc_41ED0D
 0001:0001DD27       loc_41ED27
 0001:0001DD2A       loc_41ED2A
 0001:0001DD4F       loc_41ED4F
 0001:0001DD74       loc_41ED74
 0001:0001DD8E       loc_41ED8E
 0001:0001DD99       loc_41ED99
 0001:0001DDB7       loc_41EDB7
 0001:0001DDC0       loc_41EDC0
 0001:0001DDD9       loc_41EDD9
 0001:0001DDDC       loc_41EDDC
 0001:0001DE1C       loc_41EE1C
 0001:0001DE2B       loc_41EE2B
 0001:0001DE69       loc_41EE69
 0001:0001DE6C       loc_41EE6C
 0001:0001DE72       loc_41EE72
 0001:0001DE73       loc_41EE73
 0001:0001DE77       sub_41EE77
 0001:0001DE97       sub_41EE97
 0001:0001DEC0       loc_41EEC0
 0001:0001DEC3       loc_41EEC3
 0001:0001DECA       sub_41EECA
 0001:0001DF20       loc_41EF20
 0001:0001DF25       loc_41EF25
 0001:0001DF28       sub_41EF28
 0001:0001DF4F       loc_41EF4F
 0001:0001DF60       loc_41EF60
 0001:0001DF95       loc_41EF95
 0001:0001DFD0       loc_41EFD0
 0001:0001DFDB       loc_41EFDB
 0001:0001E004       loc_41F004
 0001:0001E019       loc_41F019
 0001:0001E027       loc_41F027
 0001:0001E038       loc_41F038
 0001:0001E062       loc_41F062
 0001:0001E073       loc_41F073
 0001:0001E07B       loc_41F07B
 0001:0001E0A5       loc_41F0A5
 0001:0001E0B6       loc_41F0B6
 0001:0001E0BE       loc_41F0BE
 0001:0001E0E8       loc_41F0E8
 0001:0001E0F9       loc_41F0F9
 0001:0001E101       loc_41F101
 0001:0001E12B       loc_41F12B
 0001:0001E139       loc_41F139
 0001:0001E141       loc_41F141
 0001:0001E16B       loc_41F16B
 0001:0001E179       loc_41F179
 0001:0001E17E       loc_41F17E
 0001:0001E1A8       loc_41F1A8
 0001:0001E1B4       loc_41F1B4
 0001:0001E1BE       loc_41F1BE
 0001:0001E1C5       loc_41F1C5
 0001:0001E1C8       loc_41F1C8
 0001:0001E1DB       loc_41F1DB
 0001:0001E1FE       loc_41F1FE
 0001:0001E204       loc_41F204
 0001:0001E224       loc_41F224
 0001:0001E239       loc_41F239
 0001:0001E247       loc_41F247
 0001:0001E255       loc_41F255
 0001:0001E264       loc_41F264
 0001:0001E271       loc_41F271
 0001:0001E27E       loc_41F27E
 0001:0001E28B       loc_41F28B
 0001:0001E2A5       loc_41F2A5
 0001:0001E2B2       loc_41F2B2
 0001:0001E2BA       loc_41F2BA
 0001:0001E2BD       loc_41F2BD
 0001:0001E2C6       loc_41F2C6
 0001:0001E2C7       loc_41F2C7
 0001:0001E2CE       off_41F2CE
 0001:0001E2FA       sub_41F2FA
 0001:0001E307       loc_41F307
 0001:0001E332       loc_41F332
 0001:0001E350       loc_41F350
 0001:0001E353       loc_41F353
 0001:0001E356       loc_41F356
 0001:0001E365       loc_41F365
 0001:0001E37C       loc_41F37C
 0001:0001E387       loc_41F387
 0001:0001E3A8       loc_41F3A8
 0001:0001E3AD       loc_41F3AD
 0001:0001E3B0       loc_41F3B0
 0001:0001E3B7       loc_41F3B7
 0001:0001E3BE       sub_41F3BE
 0001:0001E41D       loc_41F41D
 0001:0001E435       loc_41F435
 0001:0001E44E       loc_41F44E
 0001:0001E453       loc_41F453
 0001:0001E46C       loc_41F46C
 0001:0001E46F       loc_41F46F
 0001:0001E486       loc_41F486
 0001:0001E48B       sub_41F48B
 0001:0001E4B9       sub_41F4B9
 0001:0001E4EB       loc_41F4EB
 0001:0001E4EF       loc_41F4EF
 0001:0001E4F6       sub_41F4F6
 0001:0001E584       loc_41F584
 0001:0001E598       loc_41F598
 0001:0001E59C       loc_41F59C
 0001:0001E5BD       loc_41F5BD
 0001:0001E5CB       loc_41F5CB
 0001:0001E5DA       loc_41F5DA
 0001:0001E64B       loc_41F64B
 0001:0001E653       loc_41F653
 0001:0001E685       loc_41F685
 0001:0001E6AB       loc_41F6AB
 0001:0001E6B7       loc_41F6B7
 0001:0001E6BC       sub_41F6BC
 0001:0001E6E4       sub_41F6E4
 0001:0001E70F       loc_41F70F
 0001:0001E745       loc_41F745
 0001:0001E768       loc_41F768
 0001:0001E798       loc_41F798
 0001:0001E7A2       loc_41F7A2
 0001:0001E7C7       loc_41F7C7
 0001:0001E7D4       loc_41F7D4
 0001:0001E7F8       loc_41F7F8
 0001:0001E807       loc_41F807
 0001:0001E817       loc_41F817
 0001:0001E821       loc_41F821
 0001:0001E84F       loc_41F84F
 0001:0001E851       loc_41F851
 0001:0001E877       loc_41F877
 0001:0001E8A4       loc_41F8A4
 0001:0001E8B7       loc_41F8B7
 0001:0001E8B9       loc_41F8B9
 0001:0001E8BA       loc_41F8BA
 0001:0001E8C0       sub_41F8C0
 0001:0001E925       loc_41F925
 0001:0001E939       loc_41F939
 0001:0001E962       loc_41F962
 0001:0001E968       loc_41F968
 0001:0001E980       loc_41F980
 0001:0001E992       loc_41F992
 0001:0001E9F6       loc_41F9F6
 0001:0001EA05       loc_41FA05
 0001:0001EA38       loc_41FA38
 0001:0001EA39       loc_41FA39
 0001:0001EA3D       sub_41FA3D
 0001:0001EA67       loc_41FA67
 0001:0001EA73       loc_41FA73
 0001:0001EA84       loc_41FA84
 0001:0001EACB       loc_41FACB
 0001:0001EAE7       loc_41FAE7
 0001:0001EB0A       sub_41FB0A
 0001:0001EB3D       loc_41FB3D
 0001:0001EB4B       loc_41FB4B
 0001:0001EB59       loc_41FB59
 0001:0001EB5D       sub_41FB5D
 0001:0001EBB1       loc_41FBB1
 0001:0001EBE0       loc_41FBE0
 0001:0001EBED       loc_41FBED
 0001:0001EBF0       loc_41FBF0
 0001:0001EC10       sub_41FC10
 0001:0001EC4C       loc_41FC4C
 0001:0001EC52       loc_41FC52
 0001:0001EC85       loc_41FC85
 0001:0001EC93       loc_41FC93
 0001:0001ECBC       loc_41FCBC
 0001:0001ECD1       loc_41FCD1
 0001:0001ECD7       loc_41FCD7
 0001:0001ECE9       loc_41FCE9
 0001:0001ECEE       sub_41FCEE
 0001:0001ED2A       loc_41FD2A
 0001:0001ED2F       loc_41FD2F
 0001:0001ED44       loc_41FD44
 0001:0001ED4A       loc_41FD4A
 0001:0001ED5B       sub_41FD5B
 0001:0001ED83       sub_41FD83
 0001:0001EDB8       loc_41FDB8
 0001:0001EDE8       loc_41FDE8
 0001:0001EDEF       loc_41FDEF
 0001:0001EDF4       loc_41FDF4
 0001:0001EDF9       sub_41FDF9
 0001:0001EE21       loc_41FE21
 0001:0001EE49       loc_41FE49
 0001:0001EE71       sub_41FE71
 0001:0001EED0       loc_41FED0
 0001:0001EED5       loc_41FED5
 0001:0001EEDA       loc_41FEDA
 0001:0001EEDC       loc_41FEDC
 0001:0001EEEB       sub_41FEEB
 0001:0001EF13       sub_41FF13
 0001:0001EF36       loc_41FF36
 0001:0001EF3A       loc_41FF3A
 0001:0001EF41       sub_41FF41
 0001:0001EF65       loc_41FF65
 0001:0001EF6F       loc_41FF6F
 0001:0001EF76       sub_41FF76
 0001:0001EF81       sub_41FF81
 0001:0001EFA1       loc_41FFA1
 0001:0001EFAD       sub_41FFAD
 0001:0001EFB6       sub_41FFB6
 0001:0001EFD1       sub_41FFD1
 0001:0001EFDA       sub_41FFDA
 0001:0001EFF8       loc_41FFF8
 0001:0001F002       sub_420002
 0001:0001F013       sub_420013
 0001:0001F028       sub_420028
 0001:0001F035       sub_420035
 0001:0001F042       sub_420042
 0001:0001F060       loc_420060
 0001:0001F065       sub_420065
 0001:0001F06E       sub_42006E
 0001:0001F077       sub_420077
 0001:0001F082       sub_420082
 0001:0001F0BF       loc_4200BF
 0001:0001F0D6       loc_4200D6
 0001:0001F0E1       loc_4200E1
 0001:0001F111       loc_420111
 0001:0001F122       loc_420122
 0001:0001F12F       loc_42012F
 0001:0001F165       loc_420165
 0001:0001F173       loc_420173
 0001:0001F196       loc_420196
 0001:0001F19F       loc_42019F
 0001:0001F217       loc_420217
 0001:0001F219       loc_420219
 0001:0001F220       loc_420220
 0001:0001F25F       loc_42025F
 0001:0001F26C       loc_42026C
 0001:0001F278       loc_420278
 0001:0001F2B2       loc_4202B2
 0001:0001F2B5       loc_4202B5
 0001:0001F2BA       loc_4202BA
 0001:0001F2BF       loc_4202BF
 0001:0001F2C2       loc_4202C2
 0001:0001F2CC       loc_4202CC
 0001:0001F2F2       loc_4202F2
 0001:0001F336       loc_420336
 0001:0001F339       loc_420339
 0001:0001F33D       loc_42033D
 0001:0001F344       loc_420344
 0001:0001F349       loc_420349
 0001:0001F354       loc_420354
 0001:0001F35B       loc_42035B
 0001:0001F36B       loc_42036B
 0001:0001F370       loc_420370
 0001:0001F379       loc_420379
 0001:0001F37B       loc_42037B
 0001:0001F37C       loc_42037C
 0001:0001F394       loc_420394
 0001:0001F3FF       loc_4203FF
 0001:0001F40C       loc_42040C
 0001:0001F43D       loc_42043D
 0001:0001F45D       loc_42045D
 0001:0001F45F       loc_42045F
 0001:0001F493       loc_420493
 0001:0001F4E9       loc_4204E9
 0001:0001F536       loc_420536
 0001:0001F54C       loc_42054C
 0001:0001F575       loc_420575
 0001:0001F5A5       loc_4205A5
 0001:0001F5D5       loc_4205D5
 0001:0001F600       loc_420600
 0001:0001F602       loc_420602
 0001:0001F634       loc_420634
 0001:0001F644       loc_420644
 0001:0001F66D       loc_42066D
 0001:0001F675       loc_420675
 0001:0001F68F       loc_42068F
 0001:0001F694       loc_420694
 0001:0001F6A9       loc_4206A9
 0001:0001F6AF       loc_4206AF
 0001:0001F6BD       loc_4206BD
 0001:0001F6D3       loc_4206D3
 0001:0001F6D9       loc_4206D9
 0001:0001F6EF       loc_4206EF
 0001:0001F705       loc_420705
 0001:0001F71B       loc_42071B
 0001:0001F751       loc_420751
 0001:0001F787       loc_420787
 0001:0001F789       loc_420789
 0001:0001F78F       loc_42078F
 0001:0001F791       loc_420791
 0001:0001F79B       loc_42079B
 0001:0001F7AC       loc_4207AC
 0001:0001F7BD       loc_4207BD
 0001:0001F7D5       loc_4207D5
 0001:0001F7DE       loc_4207DE
 0001:0001F7F8       loc_4207F8
 0001:0001F812       loc_420812
 0001:0001F825       loc_420825
 0001:0001F830       loc_420830
 0001:0001F837       loc_420837
 0001:0001F83D       loc_42083D
 0001:0001F845       loc_420845
 0001:0001F84B       loc_42084B
 0001:0001F86E       loc_42086E
 0001:0001F88F       loc_42088F
 0001:0001F891       loc_420891
 0001:0001F89D       off_42089D
 0001:0001F909       sub_420909
 0001:0001F925       loc_420925
 0001:0001F951       loc_420951
 0001:0001F97E       loc_42097E
 0001:0001F981       loc_420981
 0001:0001F984       loc_420984
 0001:0001F98E       loc_42098E
 0001:0001F9AB       loc_4209AB
 0001:0001F9AE       loc_4209AE
 0001:0001F9B5       loc_4209B5
 0001:0001F9F5       loc_4209F5
 0001:0001F9FA       loc_4209FA
 0001:0001F9FF       loc_4209FF
 0001:0001FA04       loc_420A04
 0001:0001FA09       loc_420A09
 0001:0001FA0E       loc_420A0E
 0001:0001FA13       loc_420A13
 0001:0001FA16       loc_420A16
 0001:0001FA1C       loc_420A1C
 0001:0001FA1F       loc_420A1F
 0001:0001FA25       loc_420A25
 0001:0001FA34       loc_420A34
 0001:0001FA45       loc_420A45
 0001:0001FA8C       loc_420A8C
 0001:0001FA94       loc_420A94
 0001:0001FAAE       loc_420AAE
 0001:0001FAB7       loc_420AB7
 0001:0001FABA       loc_420ABA
 0001:0001FABE       loc_420ABE
 0001:0001FAC1       loc_420AC1
 0001:0001FAC7       loc_420AC7
 0001:0001FAFC       loc_420AFC
 0001:0001FB03       loc_420B03
 0001:0001FB07       sub_420B07
 0001:0001FB56       loc_420B56
 0001:0001FB67       loc_420B67
 0001:0001FBAB       loc_420BAB
 0001:0001FC02       loc_420C02
 0001:0001FC16       loc_420C16
 0001:0001FC2D       loc_420C2D
 0001:0001FC6F       loc_420C6F
 0001:0001FCA6       loc_420CA6
 0001:0001FCCA       loc_420CCA
 0001:0001FCDF       loc_420CDF
 0001:0001FCF1       loc_420CF1
 0001:0001FD00       loc_420D00
 0001:0001FD0E       loc_420D0E
 0001:0001FD1A       loc_420D1A
 0001:0001FD1B       loc_420D1B
 0001:0001FD43       loc_420D43
 0001:0001FD81       loc_420D81
 0001:0001FDD8       loc_420DD8
 0001:0001FDEF       loc_420DEF
 0001:0001FECD       loc_420ECD
 0001:0001FEDB       loc_420EDB
 0001:0001FEE1       loc_420EE1
 0001:0001FEEE       loc_420EEE
 0001:0001FEF4       loc_420EF4
 0001:0001FF01       loc_420F01
 0001:0001FF0D       loc_420F0D
 0001:0001FF16       loc_420F16
 0001:0001FF2C       loc_420F2C
 0001:0001FF35       loc_420F35
 0001:0001FF43       loc_420F43
 0001:0001FF5E       loc_420F5E
 0001:0001FF67       loc_420F67
 0001:0001FFB0       loc_420FB0
 0001:0001FFC6       loc_420FC6
 0001:0001FFCB       loc_420FCB
 0001:0001FFDB       loc_420FDB
 0001:0001FFE5       loc_420FE5
 0001:0001FFF8       loc_420FF8
 0001:00020004       loc_421004
 0001:00020019       loc_421019
 0001:00020027       loc_421027
 0001:00020074       loc_421074
 0001:0002008A       loc_42108A
 0001:00020092       loc_421092
 0001:000200A3       loc_4210A3
 0001:000200AB       loc_4210AB
 0001:000200B9       loc_4210B9
 0001:000200C4       loc_4210C4
 0001:000200D4       loc_4210D4
 0001:000200D7       loc_4210D7
 0001:000200E9       loc_4210E9
 0001:000200EF       loc_4210EF
 0001:00020101       loc_421101
 0001:00020107       loc_421107
 0001:00020135       loc_421135
 0001:00020144       loc_421144
 0001:0002014B       loc_42114B
 0001:0002015C       loc_42115C
 0001:0002016F       loc_42116F
 0001:00020183       loc_421183
 0001:0002018F       loc_42118F
 0001:0002019F       loc_42119F
 0001:000201B4       loc_4211B4
 0001:000201E1       loc_4211E1
 0001:000201EA       loc_4211EA
 0001:000201F4       loc_4211F4
 0001:00020202       loc_421202
 0001:00020210       loc_421210
 0001:0002021E       loc_42121E
 0001:00020224       loc_421224
 0001:00020229       loc_421229
 0001:00020249       loc_421249
 0001:00020267       loc_421267
 0001:0002027C       loc_42127C
 0001:00020286       sub_421286
 0001:000202AB       loc_4212AB
 0001:0002034C       loc_42134C
 0001:000203E2       loc_4213E2
 0001:000203ED       loc_4213ED
 0001:0002041A       loc_42141A
 0001:00020427       loc_421427
 0001:0002042B       loc_42142B
 0001:0002043D       loc_42143D
 0001:00020459       loc_421459
 0001:0002045B       loc_42145B
 0001:00020466       sub_421466
 0001:0002048E       loc_42148E
 0001:00020492       loc_421492
 0001:000204C8       loc_4214C8
 0001:000204E0       loc_4214E0
 0001:000204F6       loc_4214F6
 0001:00020508       loc_421508
 0001:0002050E       loc_42150E
 0001:00020519       loc_421519
 0001:0002051E       loc_42151E
 0001:00020541       loc_421541
 0001:00020552       loc_421552
 0001:00020587       loc_421587
 0001:0002059F       loc_42159F
 0001:000205A5       loc_4215A5
 0001:000205AD       loc_4215AD
 0001:000205BA       loc_4215BA
 0001:000205CE       loc_4215CE
 0001:000206A6       loc_4216A6
 0001:000206B5       loc_4216B5
 0001:000206B8       loc_4216B8
 0001:000206DE       loc_4216DE
 0001:00020702       loc_421702
 0001:0002070B       loc_42170B
 0001:0002071C       loc_42171C
 0001:00020726       loc_421726
 0001:00020740       loc_421740
 0001:00020752       loc_421752
 0001:00020763       loc_421763
 0001:0002076A       loc_42176A
 0001:00020778       loc_421778
 0001:00020780       loc_421780
 0001:0002078F       loc_42178F
 0001:0002079A       loc_42179A
 0001:000207AB       loc_4217AB
 0001:000207AE       loc_4217AE
 0001:000207C0       loc_4217C0
 0001:000207C6       loc_4217C6
 0001:000207D9       loc_4217D9
 0001:000207DF       loc_4217DF
 0001:0002080A       loc_42180A
 0001:0002080F       loc_42180F
 0001:00020827       loc_421827
 0001:0002082A       loc_42182A
 0001:0002084C       loc_42184C
 0001:00020855       loc_421855
 0001:00020863       loc_421863
 0001:00020871       loc_421871
 0001:00020877       loc_421877
 0001:0002087F       loc_42187F
 0001:000208A8       loc_4218A8
 0001:000208C4       loc_4218C4
 0001:000208ED       loc_4218ED
 0001:000208F5       loc_4218F5
 0001:00020904       loc_421904
 0001:0002090C       loc_42190C
 0001:0002091B       loc_42191B
 0001:00020926       loc_421926
 0001:00020938       loc_421938
 0001:0002093E       loc_42193E
 0001:00020952       loc_421952
 0001:00020957       loc_421957
 0001:00020968       loc_421968
 0001:0002096D       loc_42196D
 0001:00020970       loc_421970
 0001:0002097E       loc_42197E
 0001:00020983       loc_421983
 0001:0002098D       loc_42198D
 0001:0002099C       loc_42199C
 0001:000209A2       loc_4219A2
 0001:000209BE       loc_4219BE
 0001:000209C2       loc_4219C2
 0001:000209E3       loc_4219E3
 0001:00020A06       loc_421A06
 0001:00020A1A       loc_421A1A
 0001:00020A2D       loc_421A2D
 0001:00020A43       loc_421A43
 0001:00020A50       loc_421A50
 0001:00020A5A       loc_421A5A
 0001:00020A64       loc_421A64
 0001:00020A6F       loc_421A6F
 0001:00020A76       sub_421A76
 0001:00020AB4       loc_421AB4
 0001:00020B03       loc_421B03
 0001:00020B0B       loc_421B0B
 0001:00020B19       loc_421B19
 0001:00020B1C       loc_421B1C
 0001:00020B46       loc_421B46
 0001:00020B4C       loc_421B4C
 0001:00020B6E       loc_421B6E
 0001:00020B75       loc_421B75
 0001:00020B9B       loc_421B9B
 0001:00020BD3       loc_421BD3
 0001:00020BD4       loc_421BD4
 0001:00020BDA       sub_421BDA
 0001:00020C19       loc_421C19
 0001:00020C46       loc_421C46
 0001:00020C77       loc_421C77
 0001:00020C83       loc_421C83
 0001:00020C8C       loc_421C8C
 0001:00020CAA       loc_421CAA
 0001:00020CC1       loc_421CC1
 0001:00020CC5       loc_421CC5
 0001:00020CD6       loc_421CD6
 0001:00020CEE       loc_421CEE
 0001:00020DAA       loc_421DAA
 0001:00020DC3       loc_421DC3
 0001:00020DD1       loc_421DD1
 0001:00020DD9       loc_421DD9
 0001:00020DE7       loc_421DE7
 0001:00020E13       loc_421E13
 0001:00020E28       loc_421E28
 0001:00020E45       loc_421E45
 0001:00020E49       loc_421E49
 0001:00020E55       loc_421E55
 0001:00020E59       loc_421E59
 0001:00020E81       loc_421E81
 0001:00020EA6       loc_421EA6
 0001:00020EB9       loc_421EB9
 0001:00020EC0       loc_421EC0
 0001:00020EC2       loc_421EC2
 0001:00020ECE       loc_421ECE
 0001:00020ED1       loc_421ED1
 0001:00020ED5       loc_421ED5
 0001:00020EE5       loc_421EE5
 0001:00020EF5       loc_421EF5
 0001:00020F04       loc_421F04
 0001:00020F4C       loc_421F4C
 0001:00020F55       loc_421F55
 0001:00020F7F       loc_421F7F
 0001:00020FB3       loc_421FB3
 0001:00020FBD       loc_421FBD
 0001:00020FF4       loc_421FF4
 0001:00020FFE       loc_421FFE
 0001:00021009       loc_422009
 0001:00021039       loc_422039
 0001:00021043       loc_422043
 0001:0002105A       loc_42205A
 0001:0002105C       loc_42205C
 0001:00021070       loc_422070
 0001:00021072       loc_422072
 0001:00021077       sub_422077
 0001:00021105       loc_422105
 0001:0002114C       loc_42214C
 0001:00021156       loc_422156
 0001:00021167       loc_422167
 0001:00021169       loc_422169
 0001:00021171       sub_422171
 0001:00021205       loc_422205
 0001:0002121D       loc_42221D
 0001:0002125C       loc_42225C
 0001:00021261       loc_422261
 0001:000212A6       loc_4222A6
 0001:000212AC       sub_4222AC
 0001:0002131E       loc_42231E
 0001:0002137E       loc_42237E
 0001:00021382       loc_422382
 0001:00021399       loc_422399
 0001:000213C5       loc_4223C5
 0001:000213E3       loc_4223E3
 0001:000213EB       loc_4223EB
 0001:000213EE       loc_4223EE
 0001:00021415       loc_422415
 0001:00021442       loc_422442
 0001:0002144A       loc_42244A
 0001:0002145C       loc_42245C
 0001:0002147C       loc_42247C
 0001:00021480       loc_422480
 0001:0002148F       loc_42248F
 0001:00021493       loc_422493
 0001:000214A6       loc_4224A6
 0001:000214DD       loc_4224DD
 0001:000214E3       loc_4224E3
 0001:000214ED       loc_4224ED
 0001:000214F3       loc_4224F3
 0001:00021503       loc_422503
 0001:0002151E       loc_42251E
 0001:0002153F       loc_42253F
 0001:0002154C       loc_42254C
 0001:0002155B       loc_42255B
 0001:00021565       loc_422565
 0001:00021568       loc_422568
 0001:0002159B       loc_42259B
 0001:000215AE       loc_4225AE
 0001:000215E5       loc_4225E5
 0001:000215EB       loc_4225EB
 0001:00021604       loc_422604
 0001:0002160E       loc_42260E
 0001:00021614       loc_422614
 0001:00021628       loc_422628
 0001:00021649       loc_422649
 0001:00021664       loc_422664
 0001:000216A9       loc_4226A9
 0001:000216C1       loc_4226C1
 0001:000216CA       loc_4226CA
 0001:000216CF       loc_4226CF
 0001:000216DA       loc_4226DA
 0001:000216E9       loc_4226E9
 0001:000216F2       loc_4226F2
 0001:00021715       loc_422715
 0001:0002172A       loc_42272A
 0001:00021731       sub_422731
 0001:00021794       loc_422794
 0001:00021798       loc_422798
 0001:000217B1       loc_4227B1
 0001:000217C4       loc_4227C4
 0001:000217D7       loc_4227D7
 0001:000217F0       loc_4227F0
 0001:000217FF       loc_4227FF
 0001:0002182E       loc_42282E
 0001:00021843       loc_422843
 0001:00021858       loc_422858
 0001:0002186E       loc_42286E
 0001:00021878       sub_422878
 0001:000218C7       loc_4228C7
 0001:000218CA       loc_4228CA
 0001:000218E7       loc_4228E7
 0001:000218EA       loc_4228EA
 0001:000218F5       loc_4228F5
 0001:0002190E       loc_42290E
 0001:0002194B       loc_42294B
 0001:00021962       loc_422962
 0001:00021975       loc_422975
 0001:0002197E       loc_42297E
 0001:00021985       sub_422985
 0001:000219B5       loc_4229B5
 0001:000219D0       loc_4229D0
 0001:000219EA       loc_4229EA
 0001:000219ED       loc_4229ED
 0001:00021A01       loc_422A01
 0001:00021A04       loc_422A04
 0001:00021A15       loc_422A15
 0001:00021A23       loc_422A23
 0001:00021A25       loc_422A25
 0001:00021A30       loc_422A30
 0001:00021A36       loc_422A36
 0001:00021A43       loc_422A43
 0001:00021A50       loc_422A50
 0001:00021A68       loc_422A68
 0001:00021A73       loc_422A73
 0001:00021A91       loc_422A91
 0001:00021A94       loc_422A94
 0001:00021A9D       loc_422A9D
 0001:00021AB0       loc_422AB0
 0001:00021AB6       loc_422AB6
 0001:00021AC7       loc_422AC7
 0001:00021ACD       loc_422ACD
 0001:00021B04       loc_422B04
 0001:00021B0E       loc_422B0E
 0001:00021B18       loc_422B18
 0001:00021B25       loc_422B25
 0001:00021B2A       sub_422B2A
 0001:00021B7F       loc_422B7F
 0001:00021B81       loc_422B81
 0001:00021B85       loc_422B85
 0001:00021B8A       loc_422B8A
 0001:00021BB1       loc_422BB1
 0001:00021BB6       sub_422BB6
 0001:00021BFA       loc_422BFA
 0001:00021BFF       loc_422BFF
 0001:00021C3C       loc_422C3C
 0001:00021C46       loc_422C46
 0001:00021C5C       locret_422C5C
 0001:00021C60       sub_422C60
 0001:00021C6F       loc_422C6F
 0001:00021C83       loc_422C83
 0001:00021C8E       loc_422C8E
 0001:00021CA7       loc_422CA7
 0001:00021CE4       loc_422CE4
 0001:00021CE6       loc_422CE6
 0001:00021CEA       loc_422CEA
 0001:00021D04       loc_422D04
 0001:00021D1C       loc_422D1C
 0001:00021D34       loc_422D34
 0001:00021D49       loc_422D49
 0001:00021D5E       loc_422D5E
 0001:00021D73       loc_422D73
 0001:00021D88       loc_422D88
 0001:00021D9D       loc_422D9D
 0001:00021DB2       loc_422DB2
 0001:00021DC5       loc_422DC5
 0001:00021DCB       loc_422DCB
 0001:00021DDF       loc_422DDF
 0001:00021DE7       TimerFunc
 0001:00021DEF       sub_422DEF
 0001:00021E3F       locret_422E3F
 0001:00021E40       sub_422E40
 0001:00021EB3       loc_422EB3
 0001:00021ECA       loc_422ECA
 0001:00021ED8       loc_422ED8
 0001:00021EDE       loc_422EDE
 0001:00021EF5       loc_422EF5
 0001:00021EFC       loc_422EFC
 0001:00021F1A       loc_422F1A
 0001:00021F54       loc_422F54
 0001:00021F9D       loc_422F9D
 0001:00021FD9       loc_422FD9
 0001:00021FDB       loc_422FDB
 0001:00021FE1       loc_422FE1
 0001:00021FEB       loc_422FEB
 0001:00021FF6       loc_422FF6
 0001:00021FFD       sub_422FFD
 0001:0002202D       loc_42302D
 0001:0002206C       loc_42306C
 0001:0002209C       loc_42309C
 0001:000220A6       loc_4230A6
 0001:000220DB       loc_4230DB
 0001:000220EE       loc_4230EE
 0001:00022108       loc_423108
 0001:00022122       loc_423122
 0001:0002213C       loc_42313C
 0001:00022156       loc_423156
 0001:00022170       loc_423170
 0001:00022184       loc_423184
 0001:00022191       loc_423191
 0001:000221CD       loc_4231CD
 0001:000221D5       loc_4231D5
 0001:000221FB       loc_4231FB
 0001:00022202       loc_423202
 0001:00022239       loc_423239
 0001:0002229A       loc_42329A
 0001:000222A5       loc_4232A5
 0001:000222B0       loc_4232B0
 0001:000222E7       loc_4232E7
 0001:0002231F       loc_42331F
 0001:00022329       loc_423329
 0001:00022333       loc_423333
 0001:0002233D       loc_42333D
 0001:00022347       loc_423347
 0001:00022351       loc_423351
 0001:00022388       loc_423388
 0001:000223B4       loc_4233B4
 0001:000223BA       loc_4233BA
 0001:000223D2       loc_4233D2
 0001:000223DC       loc_4233DC
 0001:000223E6       loc_4233E6
 0001:000223F0       loc_4233F0
 0001:000223FA       loc_4233FA
 0001:00022404       loc_423404
 0001:00022427       loc_423427
 0001:00022433       loc_423433
 0001:00022489       loc_423489
 0001:00022493       loc_423493
 0001:00022496       loc_423496
 0001:0002249C       loc_42349C
 0001:000224A1       loc_4234A1
 0001:000224A3       loc_4234A3
 0001:000224A8       loc_4234A8
 0001:000224B1       loc_4234B1
 0001:000224B7       loc_4234B7
 0001:000224BC       loc_4234BC
 0001:000224BD       loc_4234BD
 0001:000224C3       off_4234C3
 0001:000224E7       sub_4234E7
 0001:00022582       loc_423582
 0001:000225B5       loc_4235B5
 0001:000225B9       loc_4235B9
 0001:000225DA       loc_4235DA
 0001:000225E8       loc_4235E8
 0001:000225EF       sub_4235EF
 0001:0002267D       loc_42367D
 0001:000226AF       loc_4236AF
 0001:000226DE       loc_4236DE
 0001:000226E4       loc_4236E4
 0001:000226F1       loc_4236F1
 0001:0002271D       loc_42371D
 0001:0002272C       loc_42372C
 0001:00022750       loc_423750
 0001:00022752       loc_423752
 0001:00022759       sub_423759
 0001:00022769       loc_423769
 0001:0002276C       loc_42376C
 0001:00022770       loc_423770
 0001:0002279C       loc_42379C
 0001:000227C4       loc_4237C4
 0001:000227CA       loc_4237CA
 0001:000227CE       sub_4237CE
 0001:000227FF       loc_4237FF
 0001:00022814       sub_423814
 0001:00022829       loc_423829
 0001:0002284A       loc_42384A
 0001:00022854       loc_423854
 0001:00022856       loc_423856
 0001:0002288C       loc_42388C
 0001:00022893       loc_423893
 0001:000228A3       loc_4238A3
 0001:000228C7       loc_4238C7
 0001:000228C9       loc_4238C9
 0001:000228DC       loc_4238DC
 0001:000228E3       loc_4238E3
 0001:00022938       loc_423938
 0001:00022957       loc_423957
 0001:0002296B       loc_42396B
 0001:0002297D       loc_42397D
 0001:0002298C       loc_42398C
 0001:0002299C       loc_42399C
 0001:000229A8       loc_4239A8
 0001:000229C1       loc_4239C1
 0001:000229E0       loc_4239E0
 0001:000229E3       loc_4239E3
 0001:000229E5       loc_4239E5
 0001:000229EA       sub_4239EA
 0001:00022A43       loc_423A43
 0001:00022A45       loc_423A45
 0001:00022A4C       loc_423A4C
 0001:00022AA7       loc_423AA7
 0001:00022AAC       loc_423AAC
 0001:00022ABE       loc_423ABE
 0001:00022AD5       sub_423AD5
 0001:00022B42       loc_423B42
 0001:00022B77       loc_423B77
 0001:00022BAB       loc_423BAB
 0001:00022BB3       loc_423BB3
 0001:00022BCA       loc_423BCA
 0001:00022BFD       loc_423BFD
 0001:00022C04       loc_423C04
 0001:00022C40       loc_423C40
 0001:00022C43       loc_423C43
 0001:00022C6C       loc_423C6C
 0001:00022C77       loc_423C77
 0001:00022C7F       sub_423C7F
 0001:00022D01       loc_423D01
 0001:00022D03       loc_423D03
 0001:00022D09       sub_423D09
 0001:00022D90       loc_423D90
 0001:00022D97       loc_423D97
 0001:00022DB6       loc_423DB6
 0001:00022DBA       loc_423DBA
 0001:00022DCA       loc_423DCA
 0001:00022DDE       loc_423DDE
 0001:00022DE4       sub_423DE4
 0001:00022E65       loc_423E65
 0001:00022E6D       loc_423E6D
 0001:00022E77       loc_423E77
 0001:00022EB8       loc_423EB8
 0001:00022EBA       loc_423EBA
 0001:00022EC0       sub_423EC0
 0001:00022F00       loc_423F00
 0001:00022F3A       loc_423F3A
 0001:00022F86       loc_423F86
 0001:00022F8D       sub_423F8D
 0001:00022FB6       loc_423FB6
 0001:00022FBA       loc_423FBA
 0001:00022FBC       loc_423FBC
 0001:00022FC0       loc_423FC0
 0001:00022FE6       loc_423FE6
 0001:00023000       loc_424000
 0001:00023002       loc_424002
 0001:00023004       loc_424004
 0001:00023007       sub_424007
 0001:00023050       loc_424050
 0001:00023070       loc_424070
 0001:00023095       loc_424095
 0001:000230AF       loc_4240AF
 0001:000230B3       loc_4240B3
 0001:000230C1       loc_4240C1
 0001:00023109       loc_424109
 0001:0002311C       loc_42411C
 0001:00023157       loc_424157
 0001:00023162       loc_424162
 0001:00023168       loc_424168
 0001:0002319A       loc_42419A
 0001:000231AA       loc_4241AA
 0001:000231FD       loc_4241FD
 0001:00023208       loc_424208
 0001:00023211       loc_424211
 0001:0002321D       loc_42421D
 0001:0002323D       loc_42423D
 0001:0002324A       loc_42424A
 0001:00023252       loc_424252
 0001:00023255       loc_424255
 0001:0002325C       sub_42425C
 0001:000232AD       loc_4242AD
 0001:000232D8       loc_4242D8
 0001:0002332D       loc_42432D
 0001:00023338       loc_424338
 0001:0002334D       loc_42434D
 0001:00023379       loc_424379
 0001:0002337D       loc_42437D
 0001:00023384       loc_424384
 0001:0002338D       loc_42438D
 0001:00023391       loc_424391
 0001:0002339B       loc_42439B
 0001:000233BB       loc_4243BB
 0001:000233C2       sub_4243C2
 0001:0002341A       loc_42441A
 0001:000234B6       loc_4244B6
 0001:000234C6       loc_4244C6
 0001:000234F8       loc_4244F8
 0001:00023518       loc_424518
 0001:0002351E       loc_42451E
 0001:00023541       loc_424541
 0001:00023561       loc_424561
 0001:000235D1       loc_4245D1
 0001:000235D9       loc_4245D9
 0001:000235E9       loc_4245E9
 0001:00023632       loc_424632
 0001:00023638       loc_424638
 0001:00023673       loc_424673
 0001:00023676       loc_424676
 0001:00023692       loc_424692
 0001:00023699       loc_424699
 0001:000236E1       loc_4246E1
 0001:000236E5       loc_4246E5
 0001:000236E6       loc_4246E6
 0001:000236FF       loc_4246FF
 0001:00023707       loc_424707
 0001:00023713       loc_424713
 0001:00023721       loc_424721
 0001:00023724       loc_424724
 0001:0002372C       loc_42472C
 0001:00023734       loc_424734
 0001:00023750       loc_424750
 0001:00023766       loc_424766
 0001:00023772       loc_424772
 0001:0002377C       loc_42477C
 0001:000237B7       loc_4247B7
 0001:000237C6       loc_4247C6
 0001:0002383C       loc_42483C
 0001:0002383D       loc_42483D
 0001:0002384B       loc_42484B
 0001:0002384C       loc_42484C
 0001:00023858       loc_424858
 0001:00023864       loc_424864
 0001:0002386E       loc_42486E
 0001:00023873       sub_424873
 0001:000238B3       loc_4248B3
 0001:000238C1       loc_4248C1
 0001:000238C8       loc_4248C8
 0001:0002391B       loc_42491B
 0001:00023924       loc_424924
 0001:0002394F       loc_42494F
 0001:00023955       loc_424955
 0001:00023970       loc_424970
 0001:00023999       loc_424999
 0001:0002399B       loc_42499B
 0001:000239D5       loc_4249D5
 0001:000239E0       loc_4249E0
 0001:00023A15       loc_424A15
 0001:00023A20       loc_424A20
 0001:00023A2A       loc_424A2A
 0001:00023A64       loc_424A64
 0001:00023AB5       loc_424AB5
 0001:00023AC6       loc_424AC6
 0001:00023ADE       loc_424ADE
 0001:00023AEE       loc_424AEE
 0001:00023AFE       loc_424AFE
 0001:00023B13       loc_424B13
 0001:00023B24       loc_424B24
 0001:00023B34       loc_424B34
 0001:00023B49       loc_424B49
 0001:00023B50       loc_424B50
 0001:00023B58       loc_424B58
 0001:00023B69       loc_424B69
 0001:00023B7A       loc_424B7A
 0001:00023B92       loc_424B92
 0001:00023BAB       loc_424BAB
 0001:00023BB9       loc_424BB9
 0001:00023BC7       loc_424BC7
 0001:00023BD8       loc_424BD8
 0001:00023BE6       loc_424BE6
 0001:00023BF4       loc_424BF4
 0001:00023C02       loc_424C02
 0001:00023C0F       loc_424C0F
 0001:00023C1D       loc_424C1D
 0001:00023C29       loc_424C29
 0001:00023C33       loc_424C33
 0001:00023C4A       loc_424C4A
 0001:00023C4D       loc_424C4D
 0001:00023C6E       loc_424C6E
 0001:00023CBD       loc_424CBD
 0001:00023CF5       loc_424CF5
 0001:00023CFC       loc_424CFC
 0001:00023D29       loc_424D29
 0001:00023D78       loc_424D78
 0001:00023D95       loc_424D95
 0001:00023DAE       loc_424DAE
 0001:00023DB1       loc_424DB1
 0001:00023DBB       sub_424DBB
 0001:00023DFA       loc_424DFA
 0001:00023E51       loc_424E51
 0001:00023E58       loc_424E58
 0001:00023E62       loc_424E62
 0001:00023E97       loc_424E97
 0001:00023EA0       loc_424EA0
 0001:00023ED0       loc_424ED0
 0001:00023ED9       loc_424ED9
 0001:00023EF3       loc_424EF3
 0001:00023F20       loc_424F20
 0001:00023F59       loc_424F59
 0001:00023F64       loc_424F64
 0001:00023F99       loc_424F99
 0001:00023FA4       loc_424FA4
 0001:00023FAE       loc_424FAE
 0001:00023FF5       loc_424FF5
 0001:00023FFA       loc_424FFA
 0001:00024016       loc_425016
 0001:0002401D       loc_42501D
 0001:00024023       loc_425023
 0001:00024025       loc_425025
 0001:0002402F       loc_42502F
 0001:00024036       loc_425036
 0001:0002405A       loc_42505A
 0001:000240A3       loc_4250A3
 0001:000240DE       loc_4250DE
 0001:000240E5       loc_4250E5
 0001:00024112       loc_425112
 0001:00024161       loc_425161
 0001:0002417E       loc_42517E
 0001:00024198       loc_425198
 0001:0002419B       loc_42519B
 0001:000241A4       sub_4251A4
 0001:000241DF       loc_4251DF
 0001:00024256       loc_425256
 0001:0002426C       loc_42526C
 0001:00024272       loc_425272
 0001:0002427C       loc_42527C
 0001:000242AC       loc_4252AC
 0001:000242CA       loc_4252CA
 0001:000242FC       loc_4252FC
 0001:00024302       loc_425302
 0001:0002431C       loc_42531C
 0001:00024327       loc_425327
 0001:00024334       loc_425334
 0001:00024335       loc_425335
 0001:00024340       loc_425340
 0001:00024349       loc_425349
 0001:0002435C       loc_42535C
 0001:00024366       loc_425366
 0001:0002437B       loc_42537B
 0001:000243C3       loc_4253C3
 0001:000243C7       loc_4253C7
 0001:000243C9       loc_4253C9
 0001:000243FB       loc_4253FB
 0001:00024441       loc_425441
 0001:0002445D       loc_42545D
 0001:00024479       loc_425479
 0001:00024493       loc_425493
 0001:0002449B       loc_42549B
 0001:000244BC       loc_4254BC
 0001:000244DA       loc_4254DA
 0001:000244E4       loc_4254E4
 0001:000244F4       loc_4254F4
 0001:00024520       loc_425520
 0001:00024534       loc_425534
 0001:00024549       loc_425549
 0001:0002456D       loc_42556D
 0001:00024573       loc_425573
 0001:00024576       loc_425576
 0001:00024577       loc_425577
 0001:00024586       loc_425586
 0001:000245A5       loc_4255A5
 0001:000245C8       loc_4255C8
 0001:000245CE       loc_4255CE
 0001:000245F1       loc_4255F1
 0001:000245F5       loc_4255F5
 0001:00024606       loc_425606
 0001:00024610       loc_425610
 0001:00024612       loc_425612
 0001:00024615       loc_425615
 0001:00024627       loc_425627
 0001:00024630       loc_425630
 0001:00024636       loc_425636
 0001:0002463D       loc_42563D
 0001:0002466A       loc_42566A
 0001:0002466D       loc_42566D
 0001:0002468C       loc_42568C
 0001:00024698       loc_425698
 0001:000246A9       loc_4256A9
 0001:000246D3       loc_4256D3
 0001:000246D7       loc_4256D7
 0001:000246D9       loc_4256D9
 0001:000246FB       loc_4256FB
 0001:0002470D       loc_42570D
 0001:00024722       loc_425722
 0001:00024737       loc_425737
 0001:00024739       loc_425739
 0001:0002473E       sub_42573E
 0001:00024784       loc_425784
 0001:00024789       sub_425789
 0001:000247DA       loc_4257DA
 0001:00024806       loc_425806
 0001:00024821       loc_425821
 0001:00024826       loc_425826
 0001:00024829       loc_425829
 0001:00024842       loc_425842
 0001:00024848       loc_425848
 0001:0002484F       loc_42584F
 0001:00024855       sub_425855
 0001:00024871       loc_425871
 0001:0002488E       loc_42588E
 0001:000248A6       loc_4258A6
 0001:000248AB       sub_4258AB
 0001:000248EE       loc_4258EE
 0001:000248F3       loc_4258F3
 0001:0002490D       loc_42590D
 0001:00024916       loc_425916
 0001:0002492D       loc_42592D
 0001:0002493C       loc_42593C
 0001:00024969       loc_425969
 0001:0002499C       loc_42599C
 0001:000249B5       loc_4259B5
 0001:000249E9       loc_4259E9
 0001:000249F6       loc_4259F6
 0001:00024A0B       loc_425A0B
 0001:00024A3E       loc_425A3E
 0001:00024A57       loc_425A57
 0001:00024AB4       loc_425AB4
 0001:00024ABE       loc_425ABE
 0001:00024AD5       loc_425AD5
 0001:00024ADB       loc_425ADB
 0001:00024AFA       loc_425AFA
 0001:00024B0C       loc_425B0C
 0001:00024B12       loc_425B12
 0001:00024B18       loc_425B18
 0001:00024B1E       loc_425B1E
 0001:00024B24       loc_425B24
 0001:00024B28       loc_425B28
 0001:00024B31       loc_425B31
 0001:00024B65       loc_425B65
 0001:00024B6F       loc_425B6F
 0001:00024B81       loc_425B81
 0001:00024B83       loc_425B83
 0001:00024B87       off_425B87
 0001:00024BAF       sub_425BAF
 0001:00024BC4       loc_425BC4
 0001:00024BD2       loc_425BD2
 0001:00024BD7       loc_425BD7
 0001:00024BF5       loc_425BF5
 0001:00024BFA       loc_425BFA
 0001:00024C03       loc_425C03
 0001:00024C0A       loc_425C0A
 0001:00024C12       loc_425C12
 0001:00024C18       sub_425C18
 0001:00024C1D       loc_425C1D
 0001:00024C28       loc_425C28
 0001:00024C2B       loc_425C2B
 0001:00024C31       loc_425C31
 0001:00024C34       sub_425C34
 0001:00024C6B       loc_425C6B
 0001:00024C90       loc_425C90
 0001:00024C95       loc_425C95
 0001:00024D15       loc_425D15
 0001:00024D2A       loc_425D2A
 0001:00024D4D       loc_425D4D
 0001:00024D61       loc_425D61
 0001:00024D64       loc_425D64
 0001:00024DBE       loc_425DBE
 0001:00024DC0       loc_425DC0
 0001:00024E28       loc_425E28
 0001:00024E30       loc_425E30
 0001:00024E35       loc_425E35
 0001:00024E50       loc_425E50
 0001:00024E54       loc_425E54
 0001:00024E5E       loc_425E5E
 0001:00024E69       loc_425E69
 0001:00024E6D       DialogFunc
 0001:00024E9A       loc_425E9A
 0001:00024EBC       loc_425EBC
 0001:00024EC1       loc_425EC1
 0001:00024EFB       loc_425EFB
 0001:00024F0E       loc_425F0E
 0001:00024F12       loc_425F12
 0001:00024F19       loc_425F19
 0001:00024F58       loc_425F58
 0001:00024F62       loc_425F62
 0001:00024FA0       loc_425FA0
 0001:00024FD7       loc_425FD7
 0001:00024FDA       loc_425FDA
 0001:00024FE8       loc_425FE8
 0001:00024FEC       loc_425FEC
 0001:00025007       loc_426007
 0001:0002501A       loc_42601A
 0001:0002502F       loc_42602F
 0001:0002505F       loc_42605F
 0001:00025085       loc_426085
 0001:000250A7       loc_4260A7
 0001:000250BC       loc_4260BC
 0001:000250BE       loc_4260BE
 0001:000250D2       loc_4260D2
 0001:000250EB       loc_4260EB
 0001:000250F7       loc_4260F7
 0001:00025143       loc_426143
 0001:00025154       loc_426154
 0001:00025179       loc_426179
 0001:000251BD       loc_4261BD
 0001:00025207       loc_426207
 0001:00025219       loc_426219
 0001:00025248       loc_426248
 0001:00025278       loc_426278
 0001:0002528B       loc_42628B
 0001:000252B3       loc_4262B3
 0001:000252E2       loc_4262E2
 0001:000252F5       loc_4262F5
 0001:0002530F       loc_42630F
 0001:00025335       loc_426335
 0001:00025342       loc_426342
 0001:00025345       loc_426345
 0001:00025346       loc_426346
 0001:0002534C       sub_42634C
 0001:000253E0       loc_4263E0
 0001:000253E9       loc_4263E9
 0001:000253EA       loc_4263EA
 0001:000253F6       loc_4263F6
 0001:00025406       sub_426406
 0001:0002542C       loc_42642C
 0001:00025457       loc_426457
 0001:00025477       loc_426477
 0001:0002548F       loc_42648F
 0001:000254EF       loc_4264EF
 0001:000254FE       loc_4264FE
 0001:0002551E       loc_42651E
 0001:00025545       loc_426545
 0001:000255C0       loc_4265C0
 0001:000255FB       loc_4265FB
 0001:00025611       loc_426611
 0001:00025629       loc_426629
 0001:00025630       loc_426630
 0001:00025640       loc_426640
 0001:00025651       loc_426651
 0001:00025661       loc_426661
 0001:00025674       loc_426674
 0001:000256A7       loc_4266A7
 0001:000256AC       loc_4266AC
 0001:000256B8       loc_4266B8
 0001:000256C0       loc_4266C0
 0001:000256DB       loc_4266DB
 0001:000256E9       loc_4266E9
 0001:000256F6       loc_4266F6
 0001:00025733       loc_426733
 0001:00025735       loc_426735
 0001:0002579E       loc_42679E
 0001:000257A6       loc_4267A6
 0001:000257B8       loc_4267B8
 0001:000257DF       loc_4267DF
 0001:000257E7       loc_4267E7
 0001:00025802       loc_426802
 0001:0002582D       loc_42682D
 0001:0002582F       loc_42682F
 0001:00025869       loc_426869
 0001:00025881       loc_426881
 0001:00025886       loc_426886
 0001:000258B7       loc_4268B7
 0001:000258CB       loc_4268CB
 0001:000258D9       loc_4268D9
 0001:000258ED       loc_4268ED
 0001:000258FB       loc_4268FB
 0001:00025909       loc_426909
 0001:00025924       loc_426924
 0001:00025941       loc_426941
 0001:0002594D       loc_42694D
 0001:000259C6       loc_4269C6
 0001:00025A07       loc_426A07
 0001:00025A1A       loc_426A1A
 0001:00025A2F       loc_426A2F
 0001:00025A49       loc_426A49
 0001:00025A67       loc_426A67
 0001:00025A84       loc_426A84
 0001:00025A90       loc_426A90
 0001:00025AC4       loc_426AC4
 0001:00025ACE       loc_426ACE
 0001:00025AED       loc_426AED
 0001:00025B09       loc_426B09
 0001:00025B0D       loc_426B0D
 0001:00025B2E       loc_426B2E
 0001:00025B54       loc_426B54
 0001:00025B66       loc_426B66
 0001:00025B7B       loc_426B7B
 0001:00025B7F       loc_426B7F
 0001:00025B9A       loc_426B9A
 0001:00025BA5       loc_426BA5
 0001:00025BB0       loc_426BB0
 0001:00025BB6       loc_426BB6
 0001:00025BBD       sub_426BBD
 0001:00025C63       loc_426C63
 0001:00025C7B       loc_426C7B
 0001:00025C83       loc_426C83
 0001:00025C86       loc_426C86
 0001:00025CA0       loc_426CA0
 0001:00025CBE       loc_426CBE
 0001:00025CD7       loc_426CD7
 0001:00025CF6       loc_426CF6
 0001:00025D1C       loc_426D1C
 0001:00025D33       loc_426D33
 0001:00025D58       loc_426D58
 0001:00025D6D       loc_426D6D
 0001:00025D70       loc_426D70
 0001:00025D7A       loc_426D7A
 0001:00025D8F       loc_426D8F
 0001:00025DAE       loc_426DAE
 0001:00025DDB       loc_426DDB
 0001:00025E0B       loc_426E0B
 0001:00025E21       loc_426E21
 0001:00025E32       loc_426E32
 0001:00025E4D       loc_426E4D
 0001:00025E5B       loc_426E5B
 0001:00025E6B       loc_426E6B
 0001:00025E75       loc_426E75
 0001:00025E7F       loc_426E7F
 0001:00025E8C       loc_426E8C
 0001:00025EBB       loc_426EBB
 0001:00025EC2       loc_426EC2
 0001:00025F1B       loc_426F1B
 0001:00025F28       loc_426F28
 0001:00025F49       loc_426F49
 0001:00025F57       loc_426F57
 0001:00025F5F       loc_426F5F
 0001:00025FB0       loc_426FB0
 0001:00025FC1       loc_426FC1
 0001:00025FE1       loc_426FE1
 0001:00025FF2       loc_426FF2
 0001:0002602D       loc_42702D
 0001:00026054       loc_427054
 0001:00026079       loc_427079
 0001:0002609B       loc_42709B
 0001:000260C6       loc_4270C6
 0001:000260CE       loc_4270CE
 0001:000260D4       loc_4270D4
 0001:000260E0       loc_4270E0
 0001:00026123       loc_427123
 0001:00026140       loc_427140
 0001:00026154       loc_427154
 0001:00026165       loc_427165
 0001:0002616E       loc_42716E
 0001:00026183       loc_427183
 0001:000261F4       loc_4271F4
 0001:00026205       loc_427205
 0001:00026220       loc_427220
 0001:00026231       loc_427231
 0001:00026242       loc_427242
 0001:00026253       loc_427253
 0001:0002627F       loc_42727F
 0001:00026295       loc_427295
 0001:000262AB       loc_4272AB
 0001:000262B1       loc_4272B1
 0001:000262E9       loc_4272E9
 0001:000262EA       loc_4272EA
 0001:000262EB       loc_4272EB
 0001:0002636D       loc_42736D
 0001:00026376       loc_427376
 0001:0002637C       loc_42737C
 0001:00026448       loc_427448
 0001:0002649B       loc_42749B
 0001:000264D8       loc_4274D8
 0001:000264FF       loc_4274FF
 0001:0002652E       loc_42752E
 0001:00026531       loc_427531
 0001:00026544       loc_427544
 0001:00026552       loc_427552
 0001:0002655B       loc_42755B
 0001:00026565       loc_427565
 0001:0002656D       loc_42756D
 0001:00026579       loc_427579
 0001:000265A8       loc_4275A8
 0001:000265BC       loc_4275BC
 0001:000265D3       loc_4275D3
 0001:000265E1       loc_4275E1
 0001:00026610       loc_427610
 0001:00026627       loc_427627
 0001:00026635       loc_427635
 0001:00026653       loc_427653
 0001:0002665D       loc_42765D
 0001:0002669F       loc_42769F
 0001:000266AD       loc_4276AD
 0001:000266B8       loc_4276B8
 0001:000266EE       loc_4276EE
 0001:0002671C       loc_42771C
 0001:0002672A       loc_42772A
 0001:0002672C       loc_42772C
 0001:00026763       loc_427763
 0001:0002679C       loc_42779C
 0001:0002679E       loc_42779E
 0001:000267AC       loc_4277AC
 0001:00026813       loc_427813
 0001:00026819       loc_427819
 0001:0002682F       loc_42782F
 0001:00026845       loc_427845
 0001:00026862       loc_427862
 0001:00026864       loc_427864
 0001:00026876       loc_427876
 0001:00026878       loc_427878
 0001:000268A5       loc_4278A5
 0001:000268AC       loc_4278AC
 0001:000268C4       loc_4278C4
 0001:000268E9       loc_4278E9
 0001:000268FD       loc_4278FD
 0001:00026914       loc_427914
 0001:00026916       loc_427916
 0001:0002697F       loc_42797F
 0001:00026987       loc_427987
 0001:000269D9       loc_4279D9
 0001:00026A07       loc_427A07
 0001:00026A10       loc_427A10
 0001:00026A13       loc_427A13
 0001:00026A3C       loc_427A3C
 0001:00026A52       loc_427A52
 0001:00026A68       loc_427A68
 0001:00026A76       loc_427A76
 0001:00026A7C       loc_427A7C
 0001:00026AC8       loc_427AC8
 0001:00026AD0       loc_427AD0
 0001:00026AD4       loc_427AD4
 0001:00026AE1       loc_427AE1
 0001:00026AE6       loc_427AE6
 0001:00026AE7       loc_427AE7
 0001:00026AF5       loc_427AF5
 0001:00026AFF       sub_427AFF
 0001:00026B39       loc_427B39
 0001:00026B3C       loc_427B3C
 0001:00026B6C       loc_427B6C
 0001:00026C5E       loc_427C5E
 0001:00026C98       sub_427C98
 0001:00026CAC       loc_427CAC
 0001:00026CB3       loc_427CB3
 0001:00026CC9       loc_427CC9
 0001:00026CCD       sub_427CCD
 0001:00026D40       loc_427D40
 0001:00026D57       loc_427D57
 0001:00026D6D       loc_427D6D
 0001:00026D76       loc_427D76
 0001:00026D9C       loc_427D9C
 0001:00026DB0       loc_427DB0
 0001:00026DCE       loc_427DCE
 0001:00026DD3       loc_427DD3
 0001:00026DDB       loc_427DDB
 0001:00026E15       loc_427E15
 0001:00026E2E       loc_427E2E
 0001:00026E66       loc_427E66
 0001:00026E6E       loc_427E6E
 0001:00026E96       loc_427E96
 0001:00026E9E       loc_427E9E
 0001:00026EA5       sub_427EA5
 0001:00026EC3       loc_427EC3
 0001:00026EE6       loc_427EE6
 0001:00026F07       loc_427F07
 0001:00026F0B       loc_427F0B
 0001:00026F0F       loc_427F0F
 0001:00026F1E       loc_427F1E
 0001:00026F2D       loc_427F2D
 0001:00026F45       loc_427F45
 0001:00026F47       loc_427F47
 0001:00026F48       loc_427F48
 0001:00026F74       loc_427F74
 0001:00026F7E       loc_427F7E
 0001:00026F87       sub_427F87
 0001:00027008       loc_428008
 0001:00027041       loc_428041
 0001:00027044       loc_428044
 0001:00027092       loc_428092
 0001:00027099       loc_428099
 0001:000270AF       loc_4280AF
 0001:000270E6       loc_4280E6
 0001:000270EB       loc_4280EB
 0001:000270EF       loc_4280EF
 0001:000270F0       loc_4280F0
 0001:00027104       loc_428104
 0001:0002711D       loc_42811D
 0001:00027121       loc_428121
 0001:00027126       loc_428126
 0001:00027130       loc_428130
 0001:00027153       loc_428153
 0001:0002715A       loc_42815A
 0001:00027174       loc_428174
 0001:0002718B       loc_42818B
 0001:0002718F       loc_42818F
 0001:000271AA       loc_4281AA
 0001:000271B4       loc_4281B4
 0001:000271D8       loc_4281D8
 0001:000271E4       loc_4281E4
 0001:000271ED       loc_4281ED
 0001:000271F3       loc_4281F3
 0001:00027238       loc_428238
 0001:00027241       loc_428241
 0001:0002724A       loc_42824A
 0001:00027253       loc_428253
 0001:00027262       loc_428262
 0001:0002726A       loc_42826A
 0001:0002729D       loc_42829D
 0001:000272A9       loc_4282A9
 0001:000272B2       loc_4282B2
 0001:000272BB       loc_4282BB
 0001:000272C4       loc_4282C4
 0001:000272D3       loc_4282D3
 0001:000272DC       loc_4282DC
 0001:000272E8       loc_4282E8
 0001:000272F1       loc_4282F1
 0001:000272FA       loc_4282FA
 0001:00027303       loc_428303
 0001:0002731D       loc_42831D
 0001:00027329       loc_428329
 0001:00027332       loc_428332
 0001:0002733B       loc_42833B
 0001:00027344       loc_428344
 0001:0002735E       loc_42835E
 0001:00027371       loc_428371
 0001:0002737C       loc_42837C
 0001:000273A3       loc_4283A3
 0001:000273A7       loc_4283A7
 0001:000273B3       loc_4283B3
 0001:000273BD       loc_4283BD
 0001:000273D5       loc_4283D5
 0001:000273EA       loc_4283EA
 0001:000273EE       loc_4283EE
 0001:000273FB       loc_4283FB
 0001:0002741A       loc_42841A
 0001:00027479       loc_428479
 0001:00027483       loc_428483
 0001:00027488       loc_428488
 0001:00027497       loc_428497
 0001:000274AC       loc_4284AC
 0001:000274B0       loc_4284B0
 0001:000274B7       loc_4284B7
 0001:000274C2       loc_4284C2
 0001:000274CA       sub_4284CA
 0001:000274DD       loc_4284DD
 0001:00027511       loc_428511
 0001:00027531       loc_428531
 0001:00027551       loc_428551
 0001:000275BA       loc_4285BA
 0001:000275BE       loc_4285BE
 0001:000275CA       loc_4285CA
 0001:0002761B       loc_42861B
 0001:0002762D       loc_42862D
 0001:00027638       loc_428638
 0001:00027673       loc_428673
 0001:00027677       loc_428677
 0001:0002768D       loc_42868D
 0001:0002769C       loc_42869C
 0001:0002769E       loc_42869E
 0001:000276A3       sub_4286A3
 0001:000276B6       loc_4286B6
 0001:00027757       loc_428757
 0001:0002775A       loc_42875A
 0001:0002776D       loc_42876D
 0001:00027783       loc_428783
 0001:00027815       loc_428815
 0001:0002781E       loc_42881E
 0001:0002782B       loc_42882B
 0001:00027834       loc_428834
 0001:00027836       loc_428836
 0001:00027839       loc_428839
 0001:000278AA       loc_4288AA
 0001:000278B1       loc_4288B1
 0001:000278C2       loc_4288C2
 0001:000278D9       loc_4288D9
 0001:000278F7       sub_4288F7
 0001:00027928       loc_428928
 0001:0002797E       loc_42897E
 0001:00027985       loc_428985
 0001:00027998       loc_428998
 0001:0002799D       loc_42899D
 0001:000279AB       loc_4289AB
 0001:000279B4       loc_4289B4
 0001:000279B8       loc_4289B8
 0001:000279CE       loc_4289CE
 0001:000279DB       loc_4289DB
 0001:000279F5       loc_4289F5
 0001:000279FC       loc_4289FC
 0001:00027A2B       loc_428A2B
 0001:00027A2D       loc_428A2D
 0001:00027A30       loc_428A30
 0001:00027A34       loc_428A34
 0001:00027A3B       loc_428A3B
 0001:00027A42       loc_428A42
 0001:00027A47       loc_428A47
 0001:00027A5F       loc_428A5F
 0001:00027A64       loc_428A64
 0001:00027A68       loc_428A68
 0001:00027A6E       loc_428A6E
 0001:00027AA8       loc_428AA8
 0001:00027AAB       loc_428AAB
 0001:00027AB5       loc_428AB5
 0001:00027AC8       loc_428AC8
 0001:00027ACD       loc_428ACD
 0001:00027AF9       loc_428AF9
 0001:00027B0F       loc_428B0F
 0001:00027B25       loc_428B25
 0001:00027B29       loc_428B29
 0001:00027B30       loc_428B30
 0001:00027B36       loc_428B36
 0001:00027B3A       loc_428B3A
 0001:00027B48       loc_428B48
 0001:00027B4F       sub_428B4F
 0001:00027B94       loc_428B94
 0001:00027BC2       loc_428BC2
 0001:00027BCB       loc_428BCB
 0001:00027BE6       loc_428BE6
 0001:00027BEF       loc_428BEF
 0001:00027C0D       loc_428C0D
 0001:00027C3C       loc_428C3C
 0001:00027C43       loc_428C43
 0001:00027C8B       loc_428C8B
 0001:00027C99       loc_428C99
 0001:00027CC2       loc_428CC2
 0001:00027CCC       loc_428CCC
 0001:00027CCE       loc_428CCE
 0001:00027CDB       loc_428CDB
 0001:00027CE6       loc_428CE6
 0001:00027CF6       loc_428CF6
 0001:00027D02       loc_428D02
 0001:00027D07       loc_428D07
 0001:00027D0D       sub_428D0D
 0001:00027D38       loc_428D38
 0001:00027D5A       loc_428D5A
 0001:00027D6A       loc_428D6A
 0001:00027D70       sub_428D70
 0001:00027D8F       loc_428D8F
 0001:00027DA0       loc_428DA0
 0001:00027DB2       loc_428DB2
 0001:00027DBE       loc_428DBE
 0001:00027DC3       loc_428DC3
 0001:00027DC5       loc_428DC5
 0001:00027DD2       locret_428DD2
 0001:00027DD3       loc_428DD3
 0001:00027DE2       sub_428DE2
 0001:00027E0F       loc_428E0F
 0001:00027E24       loc_428E24
 0001:00027E26       loc_428E26
 0001:00027E5A       loc_428E5A
 0001:00027E6C       loc_428E6C
 0001:00027E71       loc_428E71
 0001:00027E83       loc_428E83
 0001:00027E8F       loc_428E8F
 0001:00027E94       loc_428E94
 0001:00027E96       loc_428E96
 0001:00027EA1       loc_428EA1
 0001:00027EA5       sub_428EA5
 0001:00027F03       loc_428F03
 0001:00027F45       loc_428F45
 0001:00027F6E       loc_428F6E
 0001:00027FCC       loc_428FCC
 0001:00027FEC       loc_428FEC
 0001:00028009       loc_429009
 0001:00028012       loc_429012
 0001:00028024       loc_429024
 0001:0002802C       loc_42902C
 0001:00028045       loc_429045
 0001:0002804B       loc_42904B
 0001:00028055       loc_429055
 0001:00028072       loc_429072
 0001:00028079       loc_429079
 0001:00028083       loc_429083
 0001:000280A6       loc_4290A6
 0001:000280B7       loc_4290B7
 0001:000280BF       loc_4290BF
 0001:000280E0       loc_4290E0
 0001:00028102       loc_429102
 0001:00028106       loc_429106
 0001:0002811F       loc_42911F
 0001:0002812E       loc_42912E
 0001:00028169       loc_429169
 0001:0002818D       loc_42918D
 0001:000281A6       loc_4291A6
 0001:000281B1       loc_4291B1
 0001:000281CC       loc_4291CC
 0001:000281D4       loc_4291D4
 0001:000281D5       loc_4291D5
 0001:000281F1       loc_4291F1
 0001:00028201       loc_429201
 0001:0002820E       loc_42920E
 0001:0002821E       loc_42921E
 0001:0002821F       loc_42921F
 0001:0002824B       loc_42924B
 0001:00028267       loc_429267
 0001:000282A9       loc_4292A9
 0001:000282BC       loc_4292BC
 0001:000282CA       loc_4292CA
 0001:000282EA       loc_4292EA
 0001:000282FD       loc_4292FD
 0001:00028309       loc_429309
 0001:0002830E       loc_42930E
 0001:00028310       loc_429310
 0001:00028319       loc_429319
 0001:0002831D       loc_42931D
 0001:00028321       loc_429321
 0001:00028336       loc_429336
 0001:0002833C       loc_42933C
 0001:00028343       loc_429343
 0001:00028346       loc_429346
 0001:00028373       loc_429373
 0001:0002837D       loc_42937D
 0001:0002837F       loc_42937F
 0001:00028397       loc_429397
 0001:000283A6       loc_4293A6
 0001:000283B7       sub_4293B7
 0001:000283EB       loc_4293EB
 0001:0002843F       loc_42943F
 0001:00028462       loc_429462
 0001:00028467       loc_429467
 0001:00028471       loc_429471
 0001:00028474       loc_429474
 0001:0002848C       loc_42948C
 0001:0002848F       sub_42948F
 0001:000284CF       loc_4294CF
 0001:000284FC       locret_4294FC
 0001:00028500       sub_429500
 0001:00028534       loc_429534
 0001:0002854B       loc_42954B
 0001:0002857D       loc_42957D
 0001:000285B0       loc_4295B0
 0001:000285BC       loc_4295BC
 0001:000285ED       loc_4295ED
 0001:0002860F       loc_42960F
 0001:00028629       loc_429629
 0001:00028633       loc_429633
 0001:00028636       loc_429636
 0001:00028639       locret_429639
 0001:0002863D       sub_42963D
 0001:0002868A       loc_42968A
 0001:0002868F       loc_42968F
 0001:000286A7       loc_4296A7
 0001:000286A9       loc_4296A9
 0001:000286AC       loc_4296AC
 0001:000286E1       loc_4296E1
 0001:00028702       loc_429702
 0001:00028705       loc_429705
 0001:0002875B       loc_42975B
 0001:00028773       loc_429773
 0001:000287A3       loc_4297A3
 0001:000287E1       loc_4297E1
 0001:000287E7       loc_4297E7
 0001:000287F5       loc_4297F5
 0001:0002880D       loc_42980D
 0001:00028812       loc_429812
 0001:00028865       loc_429865
 0001:00028887       loc_429887
 0001:0002888C       loc_42988C
 0001:00028891       loc_429891
 0001:00028897       loc_429897
 0001:0002889B       loc_42989B
 0001:000288CC       loc_4298CC
 0001:000288F5       loc_4298F5
 0001:00028910       loc_429910
 0001:00028914       loc_429914
 0001:00028916       loc_429916
 0001:00028933       loc_429933
 0001:00028936       loc_429936
 0001:0002895D       loc_42995D
 0001:00028968       loc_429968
 0001:00028978       loc_429978
 0001:0002897D       loc_42997D
 0001:00028982       loc_429982
 0001:00028998       loc_429998
 0001:000289C4       loc_4299C4
 0001:000289C9       loc_4299C9
 0001:000289D6       loc_4299D6
 0001:000289D9       loc_4299D9
 0001:000289DC       loc_4299DC
 0001:000289E4       loc_4299E4
 0001:00028A15       loc_429A15
 0001:00028A20       loc_429A20
 0001:00028A36       loc_429A36
 0001:00028A52       loc_429A52
 0001:00028A63       loc_429A63
 0001:00028A6C       loc_429A6C
 0001:00028A72       loc_429A72
 0001:00028A77       loc_429A77
 0001:00028A81       sub_429A81
 0001:00028AAA       loc_429AAA
 0001:00028ABF       loc_429ABF
 0001:00028AEA       loc_429AEA
 0001:00028AEF       loc_429AEF
 0001:00028AFB       loc_429AFB
 0001:00028B26       loc_429B26
 0001:00028B2C       loc_429B2C
 0001:00028B34       loc_429B34
 0001:00028B3A       loc_429B3A
 0001:00028B40       loc_429B40
 0001:00028B5F       loc_429B5F
 0001:00028B6A       loc_429B6A
 0001:00028B7C       sub_429B7C
 0001:00028C39       loc_429C39
 0001:00028C3D       loc_429C3D
 0001:00028C7B       loc_429C7B
 0001:00028C80       loc_429C80
 0001:00028CB2       loc_429CB2
 0001:00028CB8       loc_429CB8
 0001:00028CC3       loc_429CC3
 0001:00028CCB       loc_429CCB
 0001:00028CF5       loc_429CF5
 0001:00028CF9       loc_429CF9
 0001:00028D16       loc_429D16
 0001:00028D2D       loc_429D2D
 0001:00028D55       loc_429D55
 0001:00028D64       loc_429D64
 0001:00028D79       loc_429D79
 0001:00028D7F       loc_429D7F
 0001:00028D8C       loc_429D8C
 0001:00028D9E       loc_429D9E
 0001:00028DA8       loc_429DA8
 0001:00028DBD       loc_429DBD
 0001:00028DDE       loc_429DDE
 0001:00028DE2       loc_429DE2
 0001:00028DE5       loc_429DE5
 0001:00028DEF       sub_429DEF
 0001:00028E19       loc_429E19
 0001:00028E1B       loc_429E1B
 0001:00028E42       sub_429E42
 0001:00028E90       loc_429E90
 0001:00028E92       loc_429E92
 0001:00028EB0       loc_429EB0
 0001:00028EB3       loc_429EB3
 0001:00028EE0       sub_429EE0
 0001:00028F2B       loc_429F2B
 0001:00028F55       loc_429F55
 0001:00028F7B       loc_429F7B
 0001:00028F97       loc_429F97
 0001:00028FDB       loc_429FDB
 0001:00028FFB       loc_429FFB
 0001:00029021       loc_42A021
 0001:00029028       loc_42A028
 0001:00029062       loc_42A062
 0001:0002907B       loc_42A07B
 0001:00029085       loc_42A085
 0001:00029093       loc_42A093
 0001:0002909E       loc_42A09E
 0001:000290E7       loc_42A0E7
 0001:000290F9       loc_42A0F9
 0001:00029104       loc_42A104
 0001:00029105       loc_42A105
 0001:0002910B       sub_42A10B
 0001:00029148       loc_42A148
 0001:0002918F       loc_42A18F
 0001:00029194       loc_42A194
 0001:000291F4       loc_42A1F4
 0001:000291FE       loc_42A1FE
 0001:00029203       loc_42A203
 0001:0002920F       loc_42A20F
 0001:0002933C       loc_42A33C
 0001:00029348       loc_42A348
 0001:00029351       loc_42A351
 0001:0002938C       loc_42A38C
 0001:000293AD       loc_42A3AD
 0001:000293BA       loc_42A3BA
 0001:000293FE       loc_42A3FE
 0001:00029402       loc_42A402
 0001:00029408       loc_42A408
 0001:0002940C       loc_42A40C
 0001:00029412       loc_42A412
 0001:00029419       loc_42A419
 0001:0002942B       loc_42A42B
 0001:0002943B       loc_42A43B
 0001:00029440       loc_42A440
 0001:00029447       loc_42A447
 0001:00029449       loc_42A449
 0001:00029450       sub_42A450
 0001:0002946E       loc_42A46E
 0001:00029470       loc_42A470
 0001:000294AD       loc_42A4AD
 0001:000294B4       loc_42A4B4
 0001:000294D1       loc_42A4D1
 0001:000294F1       loc_42A4F1
 0001:00029507       loc_42A507
 0001:0002952E       loc_42A52E
 0001:0002953F       loc_42A53F
 0001:00029550       loc_42A550
 0001:00029586       loc_42A586
 0001:000295F0       loc_42A5F0
 0001:00029636       loc_42A636
 0001:00029649       loc_42A649
 0001:00029691       loc_42A691
 0001:000296BA       loc_42A6BA
 0001:000296BF       loc_42A6BF
 0001:000296CD       loc_42A6CD
 0001:000296D4       sub_42A6D4
 0001:00029773       loc_42A773
 0001:00029778       sub_42A778
 0001:000297AD       loc_42A7AD
 0001:000297C7       loc_42A7C7
 0001:000297C9       loc_42A7C9
 0001:000297CF       loc_42A7CF
 0001:000297F5       loc_42A7F5
 0001:00029865       loc_42A865
 0001:00029875       loc_42A875
 0001:00029877       loc_42A877
 0001:00029899       loc_42A899
 0001:000298F6       loc_42A8F6
 0001:000298FA       loc_42A8FA
 0001:000298FC       loc_42A8FC
 0001:0002990A       loc_42A90A
 0001:0002990E       loc_42A90E
 0001:00029910       loc_42A910
 0001:0002991E       loc_42A91E
 0001:00029966       loc_42A966
 0001:00029984       loc_42A984
 0001:0002998A       loc_42A98A
 0001:0002998C       loc_42A98C
 0001:00029990       loc_42A990
 0001:00029993       loc_42A993
 0001:000299C2       loc_42A9C2
 0001:000299E4       loc_42A9E4
 0001:00029A04       loc_42AA04
 0001:00029A17       loc_42AA17
 0001:00029A1A       loc_42AA1A
 0001:00029A60       loc_42AA60
 0001:00029A9D       loc_42AA9D
 0001:00029AB4       loc_42AAB4
 0001:00029ACC       loc_42AACC
 0001:00029AE6       loc_42AAE6
 0001:00029B1B       loc_42AB1B
 0001:00029B4E       loc_42AB4E
 0001:00029B66       loc_42AB66
 0001:00029B80       loc_42AB80
 0001:00029BA9       loc_42ABA9
 0001:00029BDC       loc_42ABDC
 0001:00029BFC       loc_42ABFC
 0001:00029C0A       loc_42AC0A
 0001:00029C0B       loc_42AC0B
 0001:00029C16       loc_42AC16
 0001:00029C61       loc_42AC61
 0001:00029CCF       loc_42ACCF
 0001:00029CE6       loc_42ACE6
 0001:00029D03       loc_42AD03
 0001:00029D19       loc_42AD19
 0001:00029D9A       loc_42AD9A
 0001:00029DB6       loc_42ADB6
 0001:00029DCB       loc_42ADCB
 0001:00029DD4       loc_42ADD4
 0001:00029DD6       loc_42ADD6
 0001:00029DDC       loc_42ADDC
 0001:00029E00       loc_42AE00
 0001:00029E0A       loc_42AE0A
 0001:00029E20       loc_42AE20
 0001:00029E21       loc_42AE21
 0001:00029E27       off_42AE27
 0001:00029E6B       sub_42AE6B
 0001:00029EF2       loc_42AEF2
 0001:00029F26       loc_42AF26
 0001:00029F31       loc_42AF31
 0001:00029F3A       loc_42AF3A
 0001:00029F47       loc_42AF47
 0001:00029F51       loc_42AF51
 0001:00029F65       loc_42AF65
 0001:00029F7B       loc_42AF7B
 0001:00029F93       loc_42AF93
 0001:00029FAD       loc_42AFAD
 0001:00029FBE       loc_42AFBE
 0001:00029FE6       loc_42AFE6
 0001:00029FFC       loc_42AFFC
 0001:0002A022       loc_42B022
 0001:0002A04A       loc_42B04A
 0001:0002A0DE       loc_42B0DE
 0001:0002A0EC       loc_42B0EC
 0001:0002A102       loc_42B102
 0001:0002A12A       loc_42B12A
 0001:0002A150       loc_42B150
 0001:0002A178       loc_42B178
 0001:0002A1B3       loc_42B1B3
 0001:0002A1E8       loc_42B1E8
 0001:0002A1FD       loc_42B1FD
 0001:0002A204       loc_42B204
 0001:0002A221       loc_42B221
 0001:0002A248       loc_42B248
 0001:0002A25A       loc_42B25A
 0001:0002A265       loc_42B265
 0001:0002A280       loc_42B280
 0001:0002A2AC       loc_42B2AC
 0001:0002A2CE       loc_42B2CE
 0001:0002A2D9       loc_42B2D9
 0001:0002A2E5       loc_42B2E5
 0001:0002A33C       loc_42B33C
 0001:0002A34A       loc_42B34A
 0001:0002A360       loc_42B360
 0001:0002A373       loc_42B373
 0001:0002A37D       loc_42B37D
 0001:0002A380       loc_42B380
 0001:0002A381       loc_42B381
 0001:0002A38B       loc_42B38B
 0001:0002A3E7       loc_42B3E7
 0001:0002A40D       loc_42B40D
 0001:0002A41A       loc_42B41A
 0001:0002A42D       loc_42B42D
 0001:0002A4A2       loc_42B4A2
 0001:0002A4A9       loc_42B4A9
 0001:0002A4B4       loc_42B4B4
 0001:0002A4B8       loc_42B4B8
 0001:0002A4BA       loc_42B4BA
 0001:0002A4D8       loc_42B4D8
 0001:0002A4DE       loc_42B4DE
 0001:0002A4E7       loc_42B4E7
 0001:0002A4F1       loc_42B4F1
 0001:0002A501       loc_42B501
 0001:0002A506       loc_42B506
 0001:0002A510       off_42B510
 0001:0002A54C       sub_42B54C
 0001:0002A55B       loc_42B55B
 0001:0002A56C       loc_42B56C
 0001:0002A57F       loc_42B57F
 0001:0002A582       loc_42B582
 0001:0002A58F       loc_42B58F
 0001:0002A5A4       loc_42B5A4
 0001:0002A5A7       loc_42B5A7
 0001:0002A5B4       loc_42B5B4
 0001:0002A5C9       loc_42B5C9
 0001:0002A5CC       loc_42B5CC
 0001:0002A5D6       loc_42B5D6
 0001:0002A5DA       loc_42B5DA
 0001:0002A5ED       loc_42B5ED
 0001:0002A5F0       loc_42B5F0
 0001:0002A5FC       loc_42B5FC
 0001:0002A617       loc_42B617
 0001:0002A61C       sub_42B61C
 0001:0002A682       loc_42B682
 0001:0002A693       loc_42B693
 0001:0002A6A4       loc_42B6A4
 0001:0002A6BD       loc_42B6BD
 0001:0002A6BF       loc_42B6BF
 0001:0002A6CA       loc_42B6CA
 0001:0002A6FC       loc_42B6FC
 0001:0002A716       loc_42B716
 0001:0002A76E       loc_42B76E
 0001:0002A777       loc_42B777
 0001:0002A780       loc_42B780
 0001:0002A78E       sub_42B78E
 0001:0002A821       loc_42B821
 0001:0002A835       loc_42B835
 0001:0002A846       loc_42B846
 0001:0002A857       loc_42B857
 0001:0002A868       loc_42B868
 0001:0002A879       loc_42B879
 0001:0002A88A       loc_42B88A
 0001:0002A94F       loc_42B94F
 0001:0002A979       loc_42B979
 0001:0002A9A3       loc_42B9A3
 0001:0002A9CD       loc_42B9CD
 0001:0002A9D7       loc_42B9D7
 0001:0002AA05       loc_42BA05
 0001:0002AA24       loc_42BA24
 0001:0002AA2F       loc_42BA2F
 0001:0002AA51       loc_42BA51
 0001:0002AA66       loc_42BA66
 0001:0002AA6F       loc_42BA6F
 0001:0002AA78       loc_42BA78
 0001:0002AA7E       loc_42BA7E
 0001:0002AA88       sub_42BA88
 0001:0002AB1C       loc_42BB1C
 0001:0002AB89       loc_42BB89
 0001:0002AB8B       loc_42BB8B
 0001:0002AB92       sub_42BB92
 0001:0002AC09       loc_42BC09
 0001:0002AC11       loc_42BC11
 0001:0002AC1B       loc_42BC1B
 0001:0002AC2B       sub_42BC2B
 0001:0002AC53       loc_42BC53
 0001:0002AC6A       loc_42BC6A
 0001:0002AC70       loc_42BC70
 0001:0002AC7C       loc_42BC7C
 0001:0002AC8C       loc_42BC8C
 0001:0002AC9C       sub_42BC9C
 0001:0002AD00       loc_42BD00
 0001:0002AD07       loc_42BD07
 0001:0002AD5B       loc_42BD5B
 0001:0002AD5E       loc_42BD5E
 0001:0002AD61       loc_42BD61
 0001:0002AD63       loc_42BD63
 0001:0002AD69       loc_42BD69
 0001:0002AD75       loc_42BD75
 0001:0002AD78       loc_42BD78
 0001:0002AD82       loc_42BD82
 0001:0002AD92       loc_42BD92
 0001:0002AD95       loc_42BD95
 0001:0002ADFA       loc_42BDFA
 0001:0002ADFD       loc_42BDFD
 0001:0002AE1F       loc_42BE1F
 0001:0002AE22       loc_42BE22
 0001:0002AE44       loc_42BE44
 0001:0002AE63       loc_42BE63
 0001:0002AE7C       loc_42BE7C
 0001:0002AE7F       loc_42BE7F
 0001:0002AF04       loc_42BF04
 0001:0002AF09       loc_42BF09
 0001:0002AF59       loc_42BF59
 0001:0002AF5F       sub_42BF5F
 0001:0002AF7B       loc_42BF7B
 0001:0002AF88       sub_42BF88
 0001:0002AFC3       loc_42BFC3
 0001:0002B071       loc_42C071
 0001:0002B0B7       loc_42C0B7
 0001:0002B0BB       loc_42C0BB
 0001:0002B0C7       loc_42C0C7
 0001:0002B100       loc_42C100
 0001:0002B142       loc_42C142
 0001:0002B149       loc_42C149
 0001:0002B160       loc_42C160
 0001:0002B17A       loc_42C17A
 0001:0002B1B8       loc_42C1B8
 0001:0002B1BF       loc_42C1BF
 0001:0002B1D9       loc_42C1D9
 0001:0002B1EC       loc_42C1EC
 0001:0002B21A       loc_42C21A
 0001:0002B223       loc_42C223
 0001:0002B22D       loc_42C22D
 0001:0002B239       loc_42C239
 0001:0002B23F       sub_42C23F
 0001:0002B263       sub_42C263
 0001:0002B275       loc_42C275
 0001:0002B282       loc_42C282
 0001:0002B284       sub_42C284
 0001:0002B2D5       loc_42C2D5
 0001:0002B2E4       loc_42C2E4
 0001:0002B2E6       loc_42C2E6
 0001:0002B2EA       loc_42C2EA
 0001:0002B368       sub_42C368
 0001:0002B3B7       loc_42C3B7
 0001:0002B3D7       loc_42C3D7
 0001:0002B3FA       loc_42C3FA
 0001:0002B463       loc_42C463
 0001:0002B498       loc_42C498
 0001:0002B49F       loc_42C49F
 0001:0002B535       loc_42C535
 0001:0002B552       loc_42C552
 0001:0002B556       loc_42C556
 0001:0002B559       loc_42C559
 0001:0002B57F       loc_42C57F
 0001:0002B582       sub_42C582
 0001:0002B5E2       loc_42C5E2
 0001:0002B5F2       loc_42C5F2
 0001:0002B5FA       loc_42C5FA
 0001:0002B5FC       loc_42C5FC
 0001:0002B603       sub_42C603
 0001:0002B63B       loc_42C63B
 0001:0002B652       loc_42C652
 0001:0002B65B       loc_42C65B
 0001:0002B65E       sub_42C65E
 0001:0002B687       loc_42C687
 0001:0002B6F0       loc_42C6F0
 0001:0002B70E       loc_42C70E
 0001:0002B785       loc_42C785
 0001:0002B7A5       loc_42C7A5
 0001:0002B7B5       loc_42C7B5
 0001:0002B7C4       loc_42C7C4
 0001:0002B7C8       sub_42C7C8
 0001:0002B7F5       loc_42C7F5
 0001:0002B804       loc_42C804
 0001:0002B809       loc_42C809
 0001:0002B80E       loc_42C80E
 0001:0002B81D       loc_42C81D
 0001:0002B828       loc_42C828
 0001:0002B829       loc_42C829
 0001:0002B835       loc_42C835
 0001:0002B840       loc_42C840
 0001:0002B844       sub_42C844
 0001:0002B8DA       loc_42C8DA
 0001:0002B8DE       sub_42C8DE
 0001:0002B8F5       loc_42C8F5
 0001:0002B8F8       sub_42C8F8
 0001:0002B934       loc_42C934
 0001:0002B959       loc_42C959
 0001:0002B960       loc_42C960
 0001:0002B9A5       loc_42C9A5
 0001:0002BA08       loc_42CA08
 0001:0002BA17       loc_42CA17
 0001:0002BA1A       sub_42CA1A
 0001:0002BA47       loc_42CA47
 0001:0002BA63       loc_42CA63
 0001:0002BAA4       loc_42CAA4
 0001:0002BAA7       sub_42CAA7
 0001:0002BB08       loc_42CB08
 0001:0002BB0C       loc_42CB0C
 0001:0002BB2A       loc_42CB2A
 0001:0002BB39       loc_42CB39
 0001:0002BB3C       loc_42CB3C
 0001:0002BB57       loc_42CB57
 0001:0002BB5B       sub_42CB5B
 0001:0002BB9E       loc_42CB9E
 0001:0002BBA0       loc_42CBA0
 0001:0002BBB3       loc_42CBB3
 0001:0002BBB4       loc_42CBB4
 0001:0002BBB7       sub_42CBB7
 0001:0002BC41       loc_42CC41
 0001:0002BC48       loc_42CC48
 0001:0002BC62       loc_42CC62
 0001:0002BC9A       loc_42CC9A
 0001:0002BC9D       loc_42CC9D
 0001:0002BCD9       loc_42CCD9
 0001:0002BCE6       loc_42CCE6
 0001:0002BCF6       loc_42CCF6
 0001:0002BCF9       loc_42CCF9
 0001:0002BD18       loc_42CD18
 0001:0002BD72       loc_42CD72
 0001:0002BDA2       loc_42CDA2
 0001:0002BDD1       loc_42CDD1
 0001:0002BDD9       loc_42CDD9
 0001:0002BDDD       loc_42CDDD
 0001:0002BDF1       loc_42CDF1
 0001:0002BDF7       loc_42CDF7
 0001:0002BDFC       loc_42CDFC
 0001:0002BE25       loc_42CE25
 0001:0002BE2C       sub_42CE2C
 0001:0002BF3C       sub_42CF3C
 0001:0002BF75       loc_42CF75
 0001:0002BF8E       loc_42CF8E
 0001:0002BF98       loc_42CF98
 0001:0002BFC3       loc_42CFC3
 0001:0002BFD9       loc_42CFD9
 0001:0002BFE8       loc_42CFE8
 0001:0002BFF1       loc_42CFF1
 0001:0002C009       loc_42D009
 0001:0002C00F       loc_42D00F
 0001:0002C018       loc_42D018
 0001:0002C01B       loc_42D01B
 0001:0002C04D       loc_42D04D
 0001:0002C073       loc_42D073
 0001:0002C079       loc_42D079
 0001:0002C0C3       loc_42D0C3
 0001:0002C0CF       loc_42D0CF
 0001:0002C0E2       loc_42D0E2
 0001:0002C0F2       loc_42D0F2
 0001:0002C0FD       loc_42D0FD
 0001:0002C10A       loc_42D10A
 0001:0002C129       loc_42D129
 0001:0002C135       loc_42D135
 0001:0002C144       loc_42D144
 0001:0002C150       loc_42D150
 0001:0002C170       loc_42D170
 0001:0002C17C       loc_42D17C
 0001:0002C182       loc_42D182
 0001:0002C18B       loc_42D18B
 0001:0002C194       loc_42D194
 0001:0002C1A0       loc_42D1A0
 0001:0002C1A8       loc_42D1A8
 0001:0002C1B0       loc_42D1B0
 0001:0002C1C0       loc_42D1C0
 0001:0002C1CD       loc_42D1CD
 0001:0002C1D4       loc_42D1D4
 0001:0002C1FF       loc_42D1FF
 0001:0002C218       loc_42D218
 0001:0002C23A       loc_42D23A
 0001:0002C283       loc_42D283
 0001:0002C28F       loc_42D28F
 0001:0002C2EB       loc_42D2EB
 0001:0002C2F6       loc_42D2F6
 0001:0002C308       loc_42D308
 0001:0002C310       loc_42D310
 0001:0002C31C       loc_42D31C
 0001:0002C31F       loc_42D31F
 0001:0002C327       loc_42D327
 0001:0002C331       loc_42D331
 0001:0002C339       loc_42D339
 0001:0002C367       loc_42D367
 0001:0002C370       loc_42D370
 0001:0002C377       loc_42D377
 0001:0002C37E       loc_42D37E
 0001:0002C3A7       loc_42D3A7
 0001:0002C3B1       loc_42D3B1
 0001:0002C3C4       loc_42D3C4
 0001:0002C3CB       loc_42D3CB
 0001:0002C3D0       loc_42D3D0
 0001:0002C3D6       loc_42D3D6
 0001:0002C3D9       loc_42D3D9
 0001:0002C418       loc_42D418
 0001:0002C41F       loc_42D41F
 0001:0002C4FD       loc_42D4FD
 0001:0002C520       loc_42D520
 0001:0002C526       loc_42D526
 0001:0002C585       loc_42D585
 0001:0002C59D       loc_42D59D
 0001:0002C5CE       loc_42D5CE
 0001:0002C5E0       loc_42D5E0
 0001:0002C5E4       loc_42D5E4
 0001:0002C5E6       loc_42D5E6
 0001:0002C62F       loc_42D62F
 0001:0002C649       loc_42D649
 0001:0002C669       loc_42D669
 0001:0002C678       loc_42D678
 0001:0002C687       loc_42D687
 0001:0002C696       loc_42D696
 0001:0002C6A4       loc_42D6A4
 0001:0002C6AE       loc_42D6AE
 0001:0002C6B6       loc_42D6B6
 0001:0002C6D4       loc_42D6D4
 0001:0002C6DA       loc_42D6DA
 0001:0002C6F1       loc_42D6F1
 0001:0002C6FD       loc_42D6FD
 0001:0002C709       loc_42D709
 0001:0002C716       loc_42D716
 0001:0002C747       loc_42D747
 0001:0002C759       loc_42D759
 0001:0002C803       loc_42D803
 0001:0002C818       loc_42D818
 0001:0002C820       loc_42D820
 0001:0002C845       loc_42D845
 0001:0002C84D       loc_42D84D
 0001:0002C866       loc_42D866
 0001:0002C874       loc_42D874
 0001:0002C891       loc_42D891
 0001:0002C8FA       loc_42D8FA
 0001:0002C927       loc_42D927
 0001:0002C92C       loc_42D92C
 0001:0002C95C       loc_42D95C
 0001:0002C973       loc_42D973
 0001:0002C97F       loc_42D97F
 0001:0002C9A7       loc_42D9A7
 0001:0002C9B9       loc_42D9B9
 0001:0002CA02       loc_42DA02
 0001:0002CA3C       loc_42DA3C
 0001:0002CA67       loc_42DA67
 0001:0002CA8A       loc_42DA8A
 0001:0002CA9E       loc_42DA9E
 0001:0002CAD7       loc_42DAD7
 0001:0002CB14       loc_42DB14
 0001:0002CB18       loc_42DB18
 0001:0002CB20       loc_42DB20
 0001:0002CB38       loc_42DB38
 0001:0002CB3E       loc_42DB3E
 0001:0002CB43       loc_42DB43
 0001:0002CB4B       loc_42DB4B
 0001:0002CB54       loc_42DB54
 0001:0002CB5A       loc_42DB5A
 0001:0002CBB5       loc_42DBB5
 0001:0002CBEA       loc_42DBEA
 0001:0002CC3E       loc_42DC3E
 0001:0002CC46       loc_42DC46
 0001:0002CC7B       loc_42DC7B
 0001:0002CC7F       loc_42DC7F
 0001:0002CCC9       loc_42DCC9
 0001:0002CCCD       loc_42DCCD
 0001:0002CCE1       loc_42DCE1
 0001:0002CD16       loc_42DD16
 0001:0002CD2A       loc_42DD2A
 0001:0002CD39       loc_42DD39
 0001:0002CDEE       loc_42DDEE
 0001:0002CDF7       loc_42DDF7
 0001:0002CE78       loc_42DE78
 0001:0002CE9E       loc_42DE9E
 0001:0002CF00       loc_42DF00
 0001:0002CF30       loc_42DF30
 0001:0002CF40       loc_42DF40
 0001:0002CF53       loc_42DF53
 0001:0002CFE6       loc_42DFE6
 0001:0002CFED       loc_42DFED
 0001:0002D028       loc_42E028
 0001:0002D033       loc_42E033
 0001:0002D090       loc_42E090
 0001:0002D0E0       loc_42E0E0
 0001:0002D12D       loc_42E12D
 0001:0002D14F       loc_42E14F
 0001:0002D158       loc_42E158
 0001:0002D170       loc_42E170
 0001:0002D182       loc_42E182
 0001:0002D1E4       loc_42E1E4
 0001:0002D215       loc_42E215
 0001:0002D22B       loc_42E22B
 0001:0002D245       loc_42E245
 0001:0002D2CC       loc_42E2CC
 0001:0002D302       loc_42E302
 0001:0002D34C       loc_42E34C
 0001:0002D364       loc_42E364
 0001:0002D385       loc_42E385
 0001:0002D3AE       loc_42E3AE
 0001:0002D3C9       loc_42E3C9
 0001:0002D3CC       loc_42E3CC
 0001:0002D3DA       loc_42E3DA
 0001:0002D3EC       loc_42E3EC
 0001:0002D44B       loc_42E44B
 0001:0002D474       loc_42E474
 0001:0002D4D9       loc_42E4D9
 0001:0002D4EF       loc_42E4EF
 0001:0002D507       loc_42E507
 0001:0002D517       loc_42E517
 0001:0002D52C       loc_42E52C
 0001:0002D536       loc_42E536
 0001:0002D58E       loc_42E58E
 0001:0002D59E       loc_42E59E
 0001:0002D5C8       loc_42E5C8
 0001:0002D5E8       loc_42E5E8
 0001:0002D60E       loc_42E60E
 0001:0002D613       loc_42E613
 0001:0002D631       loc_42E631
 0001:0002D635       loc_42E635
 0001:0002D642       loc_42E642
 0001:0002D69A       loc_42E69A
 0001:0002D6B0       loc_42E6B0
 0001:0002D6D3       loc_42E6D3
 0001:0002D6EE       loc_42E6EE
 0001:0002D716       loc_42E716
 0001:0002D727       loc_42E727
 0001:0002D734       loc_42E734
 0001:0002D789       loc_42E789
 0001:0002D79F       loc_42E79F
 0001:0002D7C4       loc_42E7C4
 0001:0002D7D1       loc_42E7D1
 0001:0002D7DC       loc_42E7DC
 0001:0002D7E0       loc_42E7E0
 0001:0002D7F6       loc_42E7F6
 0001:0002D834       loc_42E834
 0001:0002D86C       loc_42E86C
 0001:0002D86F       loc_42E86F
 0001:0002D883       loc_42E883
 0001:0002D898       loc_42E898
 0001:0002D911       loc_42E911
 0001:0002D93D       loc_42E93D
 0001:0002D984       loc_42E984
 0001:0002D98C       loc_42E98C
 0001:0002D9AB       loc_42E9AB
 0001:0002DA0E       loc_42EA0E
 0001:0002DA2D       loc_42EA2D
 0001:0002DA52       loc_42EA52
 0001:0002DA5A       loc_42EA5A
 0001:0002DAB4       loc_42EAB4
 0001:0002DACE       loc_42EACE
 0001:0002DB72       loc_42EB72
 0001:0002DBB1       loc_42EBB1
 0001:0002DBD0       loc_42EBD0
 0001:0002DBD9       loc_42EBD9
 0001:0002DBE8       loc_42EBE8
 0001:0002DC0D       loc_42EC0D
 0001:0002DC17       loc_42EC17
 0001:0002DC1D       loc_42EC1D
 0001:0002DC2B       loc_42EC2B
 0001:0002DC5A       loc_42EC5A
 0001:0002DCD2       loc_42ECD2
 0001:0002DCD9       loc_42ECD9
 0001:0002DD4B       loc_42ED4B
 0001:0002DD54       loc_42ED54
 0001:0002DDBA       loc_42EDBA
 0001:0002DDEA       loc_42EDEA
 0001:0002DDEB       loc_42EDEB
 0001:0002DDED       loc_42EDED
 0001:0002DE05       loc_42EE05
 0001:0002DE10       loc_42EE10
 0001:0002DE2E       loc_42EE2E
 0001:0002DE4B       loc_42EE4B
 0001:0002DE6D       loc_42EE6D
 0001:0002DE73       loc_42EE73
 0001:0002DE77       loc_42EE77
 0001:0002DE84       loc_42EE84
 0001:0002DE91       loc_42EE91
 0001:0002DEAF       loc_42EEAF
 0001:0002DEBB       loc_42EEBB
 0001:0002DECC       loc_42EECC
 0001:0002DEF6       loc_42EEF6
 0001:0002DF06       loc_42EF06
 0001:0002DF6F       loc_42EF6F
 0001:0002DF91       loc_42EF91
 0001:0002DFBA       loc_42EFBA
 0001:0002E002       loc_42F002
 0001:0002E013       loc_42F013
 0001:0002E019       loc_42F019
 0001:0002E05B       loc_42F05B
 0001:0002E07A       loc_42F07A
 0001:0002E094       loc_42F094
 0001:0002E0D5       loc_42F0D5
 0001:0002E0E1       loc_42F0E1
 0001:0002E0FD       loc_42F0FD
 0001:0002E109       loc_42F109
 0001:0002E117       loc_42F117
 0001:0002E120       loc_42F120
 0001:0002E138       loc_42F138
 0001:0002E13B       loc_42F13B
 0001:0002E13C       loc_42F13C
 0001:0002E13D       loc_42F13D
 0001:0002E145       off_42F145
 0001:0002E18D       off_42F18D
 0001:0002E1D1       off_42F1D1
 0001:0002E1F1       byte_42F1F1
 0001:0002E202       off_42F202
 0001:0002E256       sub_42F256
 0001:0002E265       loc_42F265
 0001:0002E269       sub_42F269
 0001:0002E274       loc_42F274
 0001:0002E28C       sub_42F28C
 0001:0002E2C5       loc_42F2C5
 0001:0002E2CF       loc_42F2CF
 0001:0002E2F3       loc_42F2F3
 0001:0002E301       loc_42F301
 0001:0002E323       loc_42F323
 0001:0002E343       loc_42F343
 0001:0002E353       loc_42F353
 0001:0002E36A       loc_42F36A
 0001:0002E378       loc_42F378
 0001:0002E389       loc_42F389
 0001:0002E398       loc_42F398
 0001:0002E3A4       loc_42F3A4
 0001:0002E3D5       loc_42F3D5
 0001:0002E3E5       loc_42F3E5
 0001:0002E3F1       loc_42F3F1
 0001:0002E3F5       loc_42F3F5
 0001:0002E3F8       loc_42F3F8
 0001:0002E3FB       loc_42F3FB
 0001:0002E42A       loc_42F42A
 0001:0002E43F       loc_42F43F
 0001:0002E458       loc_42F458
 0001:0002E468       loc_42F468
 0001:0002E46E       loc_42F46E
 0001:0002E472       loc_42F472
 0001:0002E473       loc_42F473
 0001:0002E474       loc_42F474
 0001:0002E479       sub_42F479
 0001:0002E4B4       loc_42F4B4
 0001:0002E4C8       loc_42F4C8
 0001:0002E4D8       loc_42F4D8
 0001:0002E4DE       loc_42F4DE
 0001:0002E50E       loc_42F50E
 0001:0002E514       sub_42F514
 0001:0002E5A3       loc_42F5A3
 0001:0002E5D1       loc_42F5D1
 0001:0002E5E0       loc_42F5E0
 0001:0002E5EF       loc_42F5EF
 0001:0002E612       loc_42F612
 0001:0002E617       loc_42F617
 0001:0002E61D       loc_42F61D
 0001:0002E623       loc_42F623
 0001:0002E676       loc_42F676
 0001:0002E6CF       loc_42F6CF
 0001:0002E6D5       loc_42F6D5
 0001:0002E6DB       loc_42F6DB
 0001:0002E6E7       loc_42F6E7
 0001:0002E75C       loc_42F75C
 0001:0002E792       loc_42F792
 0001:0002E7C4       loc_42F7C4
 0001:0002E7D1       loc_42F7D1
 0001:0002E7F7       loc_42F7F7
 0001:0002E7FB       loc_42F7FB
 0001:0002E82A       loc_42F82A
 0001:0002E838       loc_42F838
 0001:0002E848       loc_42F848
 0001:0002E856       loc_42F856
 0001:0002E876       loc_42F876
 0001:0002E881       loc_42F881
 0001:0002E88A       loc_42F88A
 0001:0002E89C       loc_42F89C
 0001:0002E90E       loc_42F90E
 0001:0002E924       loc_42F924
 0001:0002E926       loc_42F926
 0001:0002E92F       loc_42F92F
 0001:0002E935       loc_42F935
 0001:0002E93B       loc_42F93B
 0001:0002E97A       loc_42F97A
 0001:0002E97F       loc_42F97F
 0001:0002E987       loc_42F987
 0001:0002E9A5       loc_42F9A5
 0001:0002E9AC       loc_42F9AC
 0001:0002E9E4       loc_42F9E4
 0001:0002EA29       loc_42FA29
 0001:0002EA37       loc_42FA37
 0001:0002EA48       loc_42FA48
 0001:0002EA52       loc_42FA52
 0001:0002EA6F       loc_42FA6F
 0001:0002EA80       loc_42FA80
 0001:0002EA90       loc_42FA90
 0001:0002EA93       loc_42FA93
 0001:0002EAA2       loc_42FAA2
 0001:0002EACD       loc_42FACD
 0001:0002EB26       loc_42FB26
 0001:0002EB4C       loc_42FB4C
 0001:0002EB78       loc_42FB78
 0001:0002EB7D       loc_42FB7D
 0001:0002EB82       loc_42FB82
 0001:0002EB83       loc_42FB83
 0001:0002EB86       loc_42FB86
 0001:0002EB8B       loc_42FB8B
 0001:0002EB92       off_42FB92
 0001:0002EBAE       byte_42FBAE
 0001:0002EBC1       sub_42FBC1
 0001:0002EBCD       loc_42FBCD
 0001:0002EBE3       loc_42FBE3
 0001:0002EBE6       locret_42FBE6
 0001:0002EBE9       sub_42FBE9
 0001:0002EC05       loc_42FC05
 0001:0002EC15       sub_42FC15
 0001:0002EC57       loc_42FC57
 0001:0002EC7D       loc_42FC7D
 0001:0002ECA8       loc_42FCA8
 0001:0002ECC8       loc_42FCC8
 0001:0002ECCC       loc_42FCCC
 0001:0002ECD5       loc_42FCD5
 0001:0002ECE3       loc_42FCE3
 0001:0002ECF2       loc_42FCF2
 0001:0002ED15       sub_42FD15
 0001:0002ED4D       loc_42FD4D
 0001:0002ED51       loc_42FD51
 0001:0002ED71       sub_42FD71
 0001:0002EDA9       loc_42FDA9
 0001:0002EDAD       loc_42FDAD
 0001:0002EDB4       sub_42FDB4
 0001:0002EE4A       loc_42FE4A
 0001:0002EE4E       loc_42FE4E
 0001:0002EE50       loc_42FE50
 0001:0002EE55       sub_42FE55
 0001:0002EE76       loc_42FE76
 0001:0002EE79       loc_42FE79
 0001:0002EE86       loc_42FE86
 0001:0002EE90       loc_42FE90
 0001:0002EE96       loc_42FE96
 0001:0002EE97       loc_42FE97
 0001:0002EEC2       loc_42FEC2
 0001:0002EEF6       loc_42FEF6
 0001:0002EF15       loc_42FF15
 0001:0002EF1E       loc_42FF1E
 0001:0002EF55       loc_42FF55
 0001:0002EF68       loc_42FF68
 0001:0002EF71       loc_42FF71
 0001:0002EF95       loc_42FF95
 0001:0002EFA0       loc_42FFA0
 0001:0002EFEB       loc_42FFEB
 0001:0002F00E       loc_43000E
 0001:0002F02B       loc_43002B
 0001:0002F051       loc_430051
 0001:0002F06F       loc_43006F
 0001:0002F078       loc_430078
 0001:0002F096       loc_430096
 0001:0002F09F       loc_43009F
 0001:0002F0C1       loc_4300C1
 0001:0002F0CA       loc_4300CA
 0001:0002F0E3       loc_4300E3
 0001:0002F0E6       loc_4300E6
 0001:0002F0EE       loc_4300EE
 0001:0002F0F7       loc_4300F7
 0001:0002F10C       loc_43010C
 0001:0002F115       loc_430115
 0001:0002F12A       loc_43012A
 0001:0002F133       loc_430133
 0001:0002F16B       loc_43016B
 0001:0002F174       loc_430174
 0001:0002F1A0       loc_4301A0
 0001:0002F1BB       loc_4301BB
 0001:0002F1C8       loc_4301C8
 0001:0002F1D1       loc_4301D1
 0001:0002F1FD       loc_4301FD
 0001:0002F21B       loc_43021B
 0001:0002F228       loc_430228
 0001:0002F231       loc_430231
 0001:0002F27A       loc_43027A
 0001:0002F28A       loc_43028A
 0001:0002F292       loc_430292
 0001:0002F29B       loc_43029B
 0001:0002F2B0       loc_4302B0
 0001:0002F2DE       loc_4302DE
 0001:0002F31A       loc_43031A
 0001:0002F326       loc_430326
 0001:0002F348       loc_430348
 0001:0002F351       loc_430351
 0001:0002F360       loc_430360
 0001:0002F371       loc_430371
 0001:0002F382       loc_430382
 0001:0002F39E       loc_43039E
 0001:0002F3CC       loc_4303CC
 0001:0002F407       loc_430407
 0001:0002F41E       loc_43041E
 0001:0002F43B       loc_43043B
 0001:0002F458       loc_430458
 0001:0002F481       loc_430481
 0001:0002F4A4       loc_4304A4
 0001:0002F4AD       loc_4304AD
 0001:0002F4E3       loc_4304E3
 0001:0002F4EC       loc_4304EC
 0001:0002F4F7       loc_4304F7
 0001:0002F51B       loc_43051B
 0001:0002F524       loc_430524
 0001:0002F53B       loc_43053B
 0001:0002F547       loc_430547
 0001:0002F585       loc_430585
 0001:0002F58F       loc_43058F
 0001:0002F5BD       loc_4305BD
 0001:0002F5D8       loc_4305D8
 0001:0002F5F3       loc_4305F3
 0001:0002F639       loc_430639
 0001:0002F642       loc_430642
 0001:0002F64B       loc_43064B
 0001:0002F658       loc_430658
 0001:0002F660       loc_430660
 0001:0002F669       loc_430669
 0001:0002F697       loc_430697
 0001:0002F6A4       loc_4306A4
 0001:0002F6B1       loc_4306B1
 0001:0002F6BE       loc_4306BE
 0001:0002F6E2       loc_4306E2
 0001:0002F6EB       loc_4306EB
 0001:0002F725       loc_430725
 0001:0002F72E       loc_43072E
 0001:0002F739       loc_430739
 0001:0002F752       loc_430752
 0001:0002F75B       loc_43075B
 0001:0002F772       loc_430772
 0001:0002F79A       loc_43079A
 0001:0002F7A2       loc_4307A2
 0001:0002F7AB       loc_4307AB
 0001:0002F7B4       loc_4307B4
 0001:0002F7D9       loc_4307D9
 0001:0002F7E5       loc_4307E5
 0001:0002F7F6       loc_4307F6
 0001:0002F835       loc_430835
 0001:0002F847       loc_430847
 0001:0002F852       loc_430852
 0001:0002F86A       loc_43086A
 0001:0002F86D       loc_43086D
 0001:0002F893       loc_430893
 0001:0002F89B       loc_43089B
 0001:0002F8A7       loc_4308A7
 0001:0002F8C2       loc_4308C2
 0001:0002F91C       loc_43091C
 0001:0002F925       loc_430925
 0001:0002F94D       loc_43094D
 0001:0002F956       loc_430956
 0001:0002F971       loc_430971
 0001:0002F979       loc_430979
 0001:0002F982       loc_430982
 0001:0002F999       loc_430999
 0001:0002F9A9       loc_4309A9
 0001:0002F9DC       loc_4309DC
 0001:0002F9E9       loc_4309E9
 0001:0002FA1E       loc_430A1E
 0001:0002FA39       loc_430A39
 0001:0002FA49       loc_430A49
 0001:0002FA7D       loc_430A7D
 0001:0002FAB4       loc_430AB4
 0001:0002FB02       loc_430B02
 0001:0002FB0B       loc_430B0B
 0001:0002FB14       loc_430B14
 0001:0002FB1B       loc_430B1B
 0001:0002FB2B       loc_430B2B
 0001:0002FB34       loc_430B34
 0001:0002FB95       loc_430B95
 0001:0002FBB7       loc_430BB7
 0001:0002FBD1       loc_430BD1
 0001:0002FBD4       loc_430BD4
 0001:0002FBE6       loc_430BE6
 0001:0002FBFE       loc_430BFE
 0001:0002FC06       loc_430C06
 0001:0002FC0E       loc_430C0E
 0001:0002FC1B       loc_430C1B
 0001:0002FC85       loc_430C85
 0001:0002FCC8       loc_430CC8
 0001:0002FCDF       loc_430CDF
 0001:0002FCF7       loc_430CF7
 0001:0002FCFF       loc_430CFF
 0001:0002FD08       loc_430D08
 0001:0002FD10       loc_430D10
 0001:0002FD20       loc_430D20
 0001:0002FD47       loc_430D47
 0001:0002FD82       loc_430D82
 0001:0002FD8B       loc_430D8B
 0001:0002FD93       loc_430D93
 0001:0002FD9C       loc_430D9C
 0001:0002FDA8       loc_430DA8
 0001:0002FDD1       loc_430DD1
 0001:0002FDFB       loc_430DFB
 0001:0002FE18       loc_430E18
 0001:0002FE5F       loc_430E5F
 0001:0002FE68       loc_430E68
 0001:0002FE83       loc_430E83
 0001:0002FE8B       loc_430E8B
 0001:0002FE97       loc_430E97
 0001:0002FE9F       loc_430E9F
 0001:0002FEBD       loc_430EBD
 0001:0002FEC1       loc_430EC1
 0001:0002FEC9       loc_430EC9
 0001:0002FF09       loc_430F09
 0001:0002FF2A       loc_430F2A
 0001:0002FF33       loc_430F33
 0001:0002FF4B       loc_430F4B
 0001:0002FF52       loc_430F52
 0001:0002FF9F       loc_430F9F
 0001:0002FFBB       loc_430FBB
 0001:0002FFC6       loc_430FC6
 0001:0002FFCF       loc_430FCF
 0001:0002FFD8       loc_430FD8
 0001:0002FFED       loc_430FED
 0001:0002FFF6       loc_430FF6
 0001:0002FFF9       loc_430FF9
 0001:00030002       loc_431002
 0001:00030006       loc_431006
 0001:0003000E       loc_43100E
 0001:00030029       loc_431029
 0001:00030032       loc_431032
 0001:0003003B       loc_43103B
 0001:0003005C       loc_43105C
 0001:00030065       loc_431065
 0001:00030082       loc_431082
 0001:000300A1       loc_4310A1
 0001:000300A8       loc_4310A8
 0001:000300B0       loc_4310B0
 0001:000300DC       loc_4310DC
 0001:000300E5       loc_4310E5
 0001:0003010A       loc_43110A
 0001:00030116       loc_431116
 0001:0003015B       loc_43115B
 0001:0003017C       loc_43117C
 0001:00030184       loc_431184
 0001:0003018D       loc_43118D
 0001:000301CE       loc_4311CE
 0001:000301D9       loc_4311D9
 0001:000301DD       loc_4311DD
 0001:000301E9       loc_4311E9
 0001:00030213       loc_431213
 0001:0003021B       loc_43121B
 0001:0003024E       loc_43124E
 0001:00030261       loc_431261
 0001:00030268       loc_431268
 0001:0003028B       loc_43128B
 0001:00030326       loc_431326
 0001:0003034F       loc_43134F
 0001:00030384       loc_431384
 0001:000303BA       loc_4313BA
 0001:000303C2       loc_4313C2
 0001:000303FB       loc_4313FB
 0001:00030406       loc_431406
 0001:00030421       loc_431421
 0001:00030429       loc_431429
 0001:000304A6       loc_4314A6
 0001:000304CF       loc_4314CF
 0001:00030504       loc_431504
 0001:0003053A       loc_43153A
 0001:00030542       loc_431542
 0001:0003057B       loc_43157B
 0001:00030586       loc_431586
 0001:000305A1       loc_4315A1
 0001:000305A9       loc_4315A9
 0001:000305CA       loc_4315CA
 0001:000305CF       loc_4315CF
 0001:000305D8       loc_4315D8
 0001:000305FC       loc_4315FC
 0001:0003060C       loc_43160C
 0001:0003061D       loc_43161D
 0001:0003062E       loc_43162E
 0001:00030631       loc_431631
 0001:0003063B       loc_43163B
 0001:00030647       loc_431647
 0001:00030650       loc_431650
 0001:00030690       loc_431690
 0001:0003069D       loc_43169D
 0001:000306A1       loc_4316A1
 0001:000306B0       loc_4316B0
 0001:000306B7       loc_4316B7
 0001:000306C0       loc_4316C0
 0001:000306C6       loc_4316C6
 0001:000306E1       loc_4316E1
 0001:000306E8       loc_4316E8
 0001:000306ED       loc_4316ED
 0001:000306F7       loc_4316F7
 0001:00030705       loc_431705
 0001:00030710       loc_431710
 0001:0003071D       loc_43171D
 0001:00030720       loc_431720
 0001:00030755       loc_431755
 0001:00030793       loc_431793
 0001:000307AF       loc_4317AF
 0001:000307C0       loc_4317C0
 0001:000307C3       loc_4317C3
 0001:000307C8       loc_4317C8
 0001:000307D0       loc_4317D0
 0001:000307DD       loc_4317DD
 0001:000307E5       loc_4317E5
 0001:00030807       loc_431807
 0001:00030814       loc_431814
 0001:0003084F       loc_43184F
 0001:00030857       loc_431857
 0001:00030866       loc_431866
 0001:00030869       loc_431869
 0001:0003086E       loc_43186E
 0001:00030877       loc_431877
 0001:000308CE       loc_4318CE
 0001:000308D5       loc_4318D5
 0001:000308DF       loc_4318DF
 0001:000308E6       loc_4318E6
 0001:000308F1       loc_4318F1
 0001:000308FA       loc_4318FA
 0001:0003091C       loc_43191C
 0001:00030930       loc_431930
 0001:00030960       loc_431960
 0001:00030982       loc_431982
 0001:00030998       loc_431998
 0001:000309D0       loc_4319D0
 0001:000309F6       loc_4319F6
 0001:00030A09       loc_431A09
 0001:00030A0E       loc_431A0E
 0001:00030A45       loc_431A45
 0001:00030A55       loc_431A55
 0001:00030A62       loc_431A62
 0001:00030A76       loc_431A76
 0001:00030A82       loc_431A82
 0001:00030A8F       loc_431A8F
 0001:00030AAE       loc_431AAE
 0001:00030ABC       loc_431ABC
 0001:00030AD6       loc_431AD6
 0001:00030ADB       loc_431ADB
 0001:00030B0B       loc_431B0B
 0001:00030B1F       loc_431B1F
 0001:00030B43       loc_431B43
 0001:00030B46       loc_431B46
 0001:00030B50       off_431B50
 0001:00030B74       sub_431B74
 0001:00030BAB       loc_431BAB
 0001:00030BB7       loc_431BB7
 0001:00030BCB       loc_431BCB
 0001:00030BD8       loc_431BD8
 0001:00030BF2       loc_431BF2
 0001:00030C08       loc_431C08
 0001:00030C13       loc_431C13
 0001:00030C1A       sub_431C1A
 0001:00030C41       loc_431C41
 0001:00030C48       loc_431C48
 0001:00030C59       loc_431C59
 0001:00030C6C       loc_431C6C
 0001:00030C9C       loc_431C9C
 0001:00030CA5       loc_431CA5
 0001:00030CA9       loc_431CA9
 0001:00030CC0       loc_431CC0
 0001:00030CCF       loc_431CCF
 0001:00030CE9       loc_431CE9
 0001:00030CEC       loc_431CEC
 0001:00030CED       loc_431CED
 0001:00030CF8       loc_431CF8
 0001:00030D00       sub_431D00
 0001:00030D3A       loc_431D3A
 0001:00030D3C       loc_431D3C
 0001:00030D4F       loc_431D4F
 0001:00030D55       loc_431D55
 0001:00030D59       loc_431D59
 0001:00030D6B       loc_431D6B
 0001:00030D7D       loc_431D7D
 0001:00030D8F       loc_431D8F
 0001:00030DA2       loc_431DA2
 0001:00030DB7       loc_431DB7
 0001:00030DC8       loc_431DC8
 0001:00030DCF       sub_431DCF
 0001:00030DF7       loc_431DF7
 0001:00030E11       loc_431E11
 0001:00030E13       loc_431E13
 0001:00030E1F       loc_431E1F
 0001:00030E25       sub_431E25
 0001:00030E63       loc_431E63
 0001:00030E76       loc_431E76
 0001:00030E7E       locret_431E7E
 0001:00030E81       sub_431E81
 0001:00030EEF       loc_431EEF
 0001:00030EF3       loc_431EF3
 0001:00030F06       loc_431F06
 0001:00030F30       loc_431F30
 0001:00030F34       loc_431F34
 0001:00030F54       loc_431F54
 0001:00030F69       loc_431F69
 0001:00030F9F       loc_431F9F
 0001:00030FA3       loc_431FA3
 0001:00030FB9       loc_431FB9
 0001:00030FBD       loc_431FBD
 0001:00030FE8       loc_431FE8
 0001:00030FEE       loc_431FEE
 0001:00030FF8       loc_431FF8
 0001:00031006       loc_432006
 0001:0003100C       loc_43200C
 0001:00031016       loc_432016
 0001:0003104C       loc_43204C
 0001:00031050       loc_432050
 0001:0003107F       loc_43207F
 0001:0003108B       loc_43208B
 0001:0003108E       loc_43208E
 0001:000310A4       loc_4320A4
 0001:000310B9       loc_4320B9
 0001:000310C7       loc_4320C7
 0001:000310D9       loc_4320D9
 0001:000310EF       loc_4320EF
 0001:000310F7       loc_4320F7
 0001:000310FD       sub_4320FD
 0001:00031114       loc_432114
 0001:000311B1       loc_4321B1
 0001:000311B8       loc_4321B8
 0001:000311BF       loc_4321BF
 0001:000311CC       loc_4321CC
 0001:00031206       loc_432206
 0001:00031220       loc_432220
 0001:00031242       loc_432242
 0001:00031243       loc_432243
 0001:00031247       sub_432247
 0001:00031253       loc_432253
 0001:00031278       loc_432278
 0001:00031291       loc_432291
 0001:0003129A       loc_43229A
 0001:000312A0       loc_4322A0
 0001:000312C1       loc_4322C1
 0001:000312D9       loc_4322D9
 0001:000312DE       loc_4322DE
 0001:000312E2       loc_4322E2
 0001:00031318       loc_432318
 0001:00031326       loc_432326
 0001:00031334       loc_432334
 0001:00031342       loc_432342
 0001:0003134B       loc_43234B
 0001:0003136E       loc_43236E
 0001:00031376       loc_432376
 0001:00031384       loc_432384
 0001:0003138D       loc_43238D
 0001:000313BD       loc_4323BD
 0001:000313BE       loc_4323BE
 0001:000313C5       sub_4323C5
 0001:000313D5       loc_4323D5
 0001:000313E9       loc_4323E9
 0001:000313F4       loc_4323F4
 0001:000313FB       loc_4323FB
 0001:000313FD       sub_4323FD
 0001:00031417       loc_432417
 0001:0003141B       sub_43241B
 0001:0003144F       loc_43244F
 0001:000314CC       loc_4324CC
 0001:000314DE       loc_4324DE
 0001:000314E7       loc_4324E7
 0001:000314ED       loc_4324ED
 0001:000314F2       loc_4324F2
 0001:0003150C       loc_43250C
 0001:00031516       loc_432516
 0001:0003151D       loc_43251D
 0001:00031521       loc_432521
 0001:00031542       loc_432542
 0001:00031548       loc_432548
 0001:0003155D       loc_43255D
 0001:0003157A       loc_43257A
 0001:0003157B       loc_43257B
 0001:00031581       sub_432581
 0001:0003159B       loc_43259B
 0001:000315C6       loc_4325C6
 0001:000315DC       loc_4325DC
 0001:00031605       loc_432605
 0001:00031610       loc_432610
 0001:0003161F       loc_43261F
 0001:0003162B       loc_43262B
 0001:00031649       loc_432649
 0001:00031655       loc_432655
 0001:00031658       loc_432658
 0001:00031659       loc_432659
 0001:0003165F       loc_43265F
 0001:00031664       loc_432664
 0001:00031668       sub_432668
 0001:00031699       loc_432699
 0001:0003169E       loc_43269E
 0001:000316A9       loc_4326A9
 0001:000316B4       loc_4326B4
 0001:000316C1       loc_4326C1
 0001:000316C7       sub_4326C7
 0001:000316D6       loc_4326D6
 0001:000316EE       loc_4326EE
 0001:000316F4       loc_4326F4
 0001:000316F8       loc_4326F8
 0001:00031701       sub_432701
 0001:00031714       loc_432714
 0001:00031757       loc_432757
 0001:00031763       loc_432763
 0001:00031766       loc_432766
 0001:0003176A       loc_43276A
 0001:0003176E       sub_43276E
 0001:00031788       loc_432788
 0001:000317D8       loc_4327D8
 0001:00031912       loc_432912
 0001:0003191C       loc_43291C
 0001:00031923       loc_432923
 0001:0003193D       loc_43293D
 0001:0003195E       loc_43295E
 0001:0003196B       loc_43296B
 0001:000319BA       loc_4329BA
 0001:000319DE       loc_4329DE
 0001:000319F6       loc_4329F6
 0001:000319FE       loc_4329FE
 0001:00031A1B       loc_432A1B
 0001:00031A48       loc_432A48
 0001:00031A66       loc_432A66
 0001:00031A8C       loc_432A8C
 0001:00031ABE       loc_432ABE
 0001:00031ACC       loc_432ACC
 0001:00031AE7       loc_432AE7
 0001:00031AEA       loc_432AEA
 0001:00031AF3       loc_432AF3
 0001:00031AFC       loc_432AFC
 0001:00031B2E       loc_432B2E
 0001:00031B61       loc_432B61
 0001:00031BA8       loc_432BA8
 0001:00031BB2       loc_432BB2
 0001:00031BB7       loc_432BB7
 0001:00031BDC       loc_432BDC
 0001:00031BE4       Proc
 0001:00031BF0       sub_432BF0
 0001:00031C30       sub_432C30
 0001:00031C4B       loc_432C4B
 0001:00031C60       loc_432C60
 0001:00031C75       loc_432C75
 0001:00031C80       loc_432C80
 0001:00031CA9       loc_432CA9
 0001:00031CAC       loc_432CAC
 0001:00031CB1       loc_432CB1
 0001:00031CBD       sub_432CBD
 0001:00031CD8       loc_432CD8
 0001:00031CE5       loc_432CE5
 0001:00031CED       loc_432CED
 0001:00031CEF       loc_432CEF
 0001:00031CF2       locret_432CF2
 0001:00031CF5       loc_432CF5
 0001:00031CFD       sub_432CFD
 0001:00031D30       loc_432D30
 0001:00031D58       loc_432D58
 0001:00031D5D       loc_432D5D
 0001:00031D65       loc_432D65
 0001:00031D8E       loc_432D8E
 0001:00031DA0       loc_432DA0
 0001:00031DA4       loc_432DA4
 0001:00031DAA       loc_432DAA
 0001:00031DAD       loc_432DAD
 0001:00031DAE       loc_432DAE
 0001:00031DB4       loc_432DB4
 0001:00031DB8       sub_432DB8
 0001:00031DC8       loc_432DC8
 0001:00031DDA       loc_432DDA
 0001:00031DE0       loc_432DE0
 0001:00031DE6       sub_432DE6
 0001:00031E00       loc_432E00
 0001:00031E2F       loc_432E2F
 0001:00031E39       sub_432E39
 0001:00031EAB       loc_432EAB
 0001:00031EE6       loc_432EE6
 0001:00031EEC       loc_432EEC
 0001:00031EEF       loc_432EEF
 0001:00031F0B       sub_432F0B
 0001:00031F26       loc_432F26
 0001:00031F43       loc_432F43
 0001:00031F4C       sub_432F4C
 0001:00031F95       loc_432F95
 0001:0003202F       loc_43302F
 0001:00032053       loc_433053
 0001:0003205B       loc_43305B
 0001:00032072       loc_433072
 0001:0003207D       loc_43307D
 0001:0003207F       loc_43307F
 0001:00032099       loc_433099
 0001:000320E2       loc_4330E2
 0001:000320EF       loc_4330EF
 0001:00032103       loc_433103
 0001:00032121       loc_433121
 0001:0003214C       loc_43314C
 0001:0003216C       loc_43316C
 0001:00032176       loc_433176
 0001:00032177       loc_433177
 0001:00032194       loc_433194
 0001:00032197       loc_433197
 0001:000321C5       loc_4331C5
 0001:000321C8       loc_4331C8
 0001:000321CA       loc_4331CA
 0001:000321DF       loc_4331DF
 0001:00032201       loc_433201
 0001:00032209       loc_433209
 0001:00032213       loc_433213
 0001:00032250       loc_433250
 0001:00032256       loc_433256
 0001:00032259       loc_433259
 0001:00032264       loc_433264
 0001:00032268       loc_433268
 0001:00032271       loc_433271
 0001:000322BA       loc_4332BA
 0001:000322C2       loc_4332C2
 0001:000322D8       loc_4332D8
 0001:000322E4       loc_4332E4
 0001:00032305       loc_433305
 0001:00032307       loc_433307
 0001:0003230F       loc_43330F
 0001:00032334       loc_433334
 0001:0003235F       loc_43335F
 0001:00032369       loc_433369
 0001:00032371       loc_433371
 0001:000323A0       loc_4333A0
 0001:000323AB       loc_4333AB
 0001:000323C1       loc_4333C1
 0001:000323D7       loc_4333D7
 0001:000323DD       loc_4333DD
 0001:00032424       loc_433424
 0001:0003242E       loc_43342E
 0001:00032436       loc_433436
 0001:00032456       loc_433456
 0001:0003247A       loc_43347A
 0001:0003247C       loc_43347C
 0001:00032482       loc_433482
 0001:000324AB       loc_4334AB
 0001:000324B9       loc_4334B9
 0001:000324C1       loc_4334C1
 0001:000324D0       loc_4334D0
 0001:000324E9       loc_4334E9
 0001:00032514       loc_433514
 0001:00032518       loc_433518
 0001:00032526       loc_433526
 0001:0003252F       loc_43352F
 0001:00032546       loc_433546
 0001:00032560       loc_433560
 0001:0003257D       loc_43357D
 0001:0003257F       loc_43357F
 0001:00032586       loc_433586
 0001:000325A1       loc_4335A1
 0001:000325B9       loc_4335B9
 0001:000325C6       loc_4335C6
 0001:000325D5       loc_4335D5
 0001:000325E5       loc_4335E5
 0001:000325E7       loc_4335E7
 0001:00032607       loc_433607
 0001:00032633       loc_433633
 0001:00032638       loc_433638
 0001:00032645       loc_433645
 0001:00032649       loc_433649
 0001:0003267F       loc_43367F
 0001:0003269B       loc_43369B
 0001:000326C1       loc_4336C1
 0001:000326CC       loc_4336CC
 0001:000326D7       loc_4336D7
 0001:000326E0       loc_4336E0
 0001:000326E1       loc_4336E1
 0001:000326E8       loc_4336E8
 0001:00032719       loc_433719
 0001:00032723       loc_433723
 0001:00032730       loc_433730
 0001:0003273D       loc_43373D
 0001:000327A6       loc_4337A6
 0001:000327C3       loc_4337C3
 0001:000327FB       loc_4337FB
 0001:00032813       loc_433813
 0001:0003282D       loc_43382D
 0001:00032839       loc_433839
 0001:0003283D       loc_43383D
 0001:00032888       loc_433888
 0001:0003289A       loc_43389A
 0001:000328A6       loc_4338A6
 0001:000328B4       loc_4338B4
 0001:000328C0       loc_4338C0
 0001:000328C4       loc_4338C4
 0001:0003290F       loc_43390F
 0001:00032918       loc_433918
 0001:00032926       loc_433926
 0001:00032941       loc_433941
 0001:0003296A       loc_43396A
 0001:0003297D       loc_43397D
 0001:00032985       loc_433985
 0001:000329EC       loc_4339EC
 0001:00032A1A       loc_433A1A
 0001:00032A25       loc_433A25
 0001:00032A44       loc_433A44
 0001:00032A81       loc_433A81
 0001:00032A93       loc_433A93
 0001:00032A9C       loc_433A9C
 0001:00032AB1       loc_433AB1
 0001:00032ADE       loc_433ADE
 0001:00032AEE       loc_433AEE
 0001:00032AF8       loc_433AF8
 0001:00032B1B       loc_433B1B
 0001:00032B1E       loc_433B1E
 0001:00032B21       loc_433B21
 0001:00032B28       loc_433B28
 0001:00032B2A       loc_433B2A
 0001:00032B33       loc_433B33
 0001:00032B5A       loc_433B5A
 0001:00032B7F       loc_433B7F
 0001:00032BC0       loc_433BC0
 0001:00032BDE       loc_433BDE
 0001:00032BEA       loc_433BEA
 0001:00032BF6       loc_433BF6
 0001:00032C00       loc_433C00
 0001:00032C04       loc_433C04
 0001:00032C0F       loc_433C0F
 0001:00032C14       loc_433C14
 0001:00032C24       loc_433C24
 0001:00032C25       loc_433C25
 0001:00032C2B       off_433C2B
 0001:00032C5F       off_433C5F
 0001:00032CB3       sub_433CB3
 0001:00032D0D       loc_433D0D
 0001:00032D1F       loc_433D1F
 0001:00032D51       loc_433D51
 0001:00032DD9       loc_433DD9
 0001:00032DE7       loc_433DE7
 0001:00032DEF       loc_433DEF
 0001:00032DFD       loc_433DFD
 0001:00032E0F       loc_433E0F
 0001:00032E19       loc_433E19
 0001:00032E82       loc_433E82
 0001:00032E86       loc_433E86
 0001:00032E8D       loc_433E8D
 0001:00032F71       loc_433F71
 0001:00032F7D       loc_433F7D
 0001:00032F85       loc_433F85
 0001:00032FCD       loc_433FCD
 0001:00033023       loc_434023
 0001:00033033       loc_434033
 0001:00033043       loc_434043
 0001:00033048       loc_434048
 0001:00033071       loc_434071
 0001:0003307F       loc_43407F
 0001:00033084       loc_434084
 0001:00033099       loc_434099
 0001:0003309A       loc_43409A
 0001:000330A0       sub_4340A0
 0001:000330D4       loc_4340D4
 0001:000330F3       loc_4340F3
 0001:000330F5       loc_4340F5
 0001:000330FA       loc_4340FA
 0001:0003317A       loc_43417A
 0001:00033182       loc_434182
 0001:000331A7       loc_4341A7
 0001:000331C8       loc_4341C8
 0001:000331F7       loc_4341F7
 0001:00033213       loc_434213
 0001:00033220       loc_434220
 0001:0003322D       loc_43422D
 0001:00033243       loc_434243
 0001:0003328A       loc_43428A
 0001:000332A4       loc_4342A4
 0001:000332D7       loc_4342D7
 0001:00033360       loc_434360
 0001:00033363       loc_434363
 0001:00033377       loc_434377
 0001:00033387       loc_434387
 0001:0003341C       loc_43441C
 0001:0003343F       loc_43443F
 0001:0003345C       loc_43445C
 0001:00033465       loc_434465
 0001:0003346A       loc_43446A
 0001:00033471       loc_434471
 0001:0003348A       loc_43448A
 0001:0003349F       loc_43449F
 0001:000334A3       loc_4344A3
 0001:000334B1       loc_4344B1
 0001:000334E5       loc_4344E5
 0001:00033501       loc_434501
 0001:00033516       loc_434516
 0001:0003352E       loc_43452E
 0001:00033536       loc_434536
 0001:00033562       loc_434562
 0001:0003358F       loc_43458F
 0001:000335B4       loc_4345B4
 0001:000335BD       loc_4345BD
 0001:000335DA       loc_4345DA
 0001:000335EF       loc_4345EF
 0001:00033605       loc_434605
 0001:0003360E       loc_43460E
 0001:00033615       loc_434615
 0001:0003361D       loc_43461D
 0001:00033668       loc_434668
 0001:000336A0       loc_4346A0
 0001:000336B9       loc_4346B9
 0001:000336C2       loc_4346C2
 0001:000336CB       loc_4346CB
 0001:000336D2       loc_4346D2
 0001:000336D6       loc_4346D6
 0001:0003370B       loc_43470B
 0001:00033714       loc_434714
 0001:0003371B       loc_43471B
 0001:00033721       loc_434721
 0001:00033727       loc_434727
 0001:00033739       loc_434739
 0001:00033751       loc_434751
 0001:000337C2       loc_4347C2
 0001:000337CE       loc_4347CE
 0001:000337DA       loc_4347DA
 0001:00033811       loc_434811
 0001:00033819       loc_434819
 0001:00033822       loc_434822
 0001:00033829       loc_434829
 0001:0003382B       loc_43482B
 0001:0003383B       loc_43483B
 0001:00033841       loc_434841
 0001:0003388D       loc_43488D
 0001:00033899       loc_434899
 0001:000338C6       loc_4348C6
 0001:000338FB       loc_4348FB
 0001:0003390A       loc_43490A
 0001:00033919       loc_434919
 0001:0003393C       loc_43493C
 0001:00033972       loc_434972
 0001:0003397E       loc_43497E
 0001:00033989       loc_434989
 0001:00033993       loc_434993
 0001:000339BF       loc_4349BF
 0001:000339C4       loc_4349C4
 0001:000339CB       loc_4349CB
 0001:000339F5       loc_4349F5
 0001:000339FE       loc_4349FE
 0001:00033A0A       loc_434A0A
 0001:00033A11       loc_434A11
 0001:00033A23       loc_434A23
 0001:00033A26       loc_434A26
 0001:00033A2F       loc_434A2F
 0001:00033A36       loc_434A36
 0001:00033A3F       loc_434A3F
 0001:00033A51       loc_434A51
 0001:00033A62       loc_434A62
 0001:00033A6D       loc_434A6D
 0001:00033AD6       loc_434AD6
 0001:00033AEE       loc_434AEE
 0001:00033B20       loc_434B20
 0001:00033B51       loc_434B51
 0001:00033B6D       loc_434B6D
 0001:00033B88       loc_434B88
 0001:00033B95       loc_434B95
 0001:00033BB0       loc_434BB0
 0001:00033C1E       loc_434C1E
 0001:00033C6A       loc_434C6A
 0001:00033C89       loc_434C89
 0001:00033CA1       loc_434CA1
 0001:00033CA7       loc_434CA7
 0001:00033CAC       loc_434CAC
 0001:00033CD5       loc_434CD5
 0001:00033D04       loc_434D04
 0001:00033D1E       loc_434D1E
 0001:00033D32       loc_434D32
 0001:00033D3D       loc_434D3D
 0001:00033D60       loc_434D60
 0001:00033D6A       loc_434D6A
 0001:00033D72       loc_434D72
 0001:00033D87       loc_434D87
 0001:00033DAF       loc_434DAF
 0001:00033DBE       loc_434DBE
 0001:00033DD3       loc_434DD3
 0001:00033E38       loc_434E38
 0001:00033E3A       loc_434E3A
 0001:00033E4B       loc_434E4B
 0001:00033E50       loc_434E50
 0001:00033E57       loc_434E57
 0001:00033E60       loc_434E60
 0001:00033E68       loc_434E68
 0001:00033E71       loc_434E71
 0001:00033E73       loc_434E73
 0001:00033E7A       off_434E7A
 0001:00033EA6       off_434EA6
 0001:00033ED6       sub_434ED6
 0001:00033EEB       loc_434EEB
 0001:00033EF4       loc_434EF4
 0001:00033EFD       loc_434EFD
 0001:00033F23       loc_434F23
 0001:00033F39       loc_434F39
 0001:00033F7C       loc_434F7C
 0001:00033F88       loc_434F88
 0001:00033F8B       loc_434F8B
 0001:00033F93       sub_434F93
 0001:00033FAF       loc_434FAF
 0001:00033FB6       loc_434FB6
 0001:00033FD8       loc_434FD8
 0001:00033FE6       loc_434FE6
 0001:00034004       loc_435004
 0001:00034012       loc_435012
 0001:00034032       loc_435032
 0001:0003404B       loc_43504B
 0001:00034067       loc_435067
 0001:00034072       loc_435072
 0001:0003407E       loc_43507E
 0001:00034083       loc_435083
 0001:00034087       loc_435087
 0001:000340AF       loc_4350AF
 0001:000340C3       loc_4350C3
 0001:000340C6       loc_4350C6
 0001:000340D2       locret_4350D2
 0001:000340D6       sub_4350D6
 0001:000340E7       loc_4350E7
 0001:000340ED       loc_4350ED
 0001:000340F1       sub_4350F1
 0001:0003414E       loc_43514E
 0001:00034164       loc_435164
 0001:0003417A       loc_43517A
 0001:0003417E       loc_43517E
 0001:000341B5       loc_4351B5
 0001:000341F1       loc_4351F1
 0001:000341F7       loc_4351F7
 0001:00034229       loc_435229
 0001:0003423F       loc_43523F
 0001:00034272       loc_435272
 0001:0003427B       loc_43527B
 0001:0003428F       loc_43528F
 0001:00034293       loc_435293
 0001:00034302       loc_435302
 0001:00034304       loc_435304
 0001:0003432F       loc_43532F
 0001:0003435A       loc_43535A
 0001:0003435C       loc_43535C
 0001:0003436A       loc_43536A
 0001:0003436C       loc_43536C
 0001:0003436F       sub_43536F
 0001:00034397       loc_435397
 0001:000343AB       loc_4353AB
 0001:000343B5       loc_4353B5
 0001:000343BB       loc_4353BB
 0001:000343BC       loc_4353BC
 0001:000343E5       loc_4353E5
 0001:0003441E       loc_43541E
 0001:00034453       loc_435453
 0001:00034468       loc_435468
 0001:0003446D       loc_43546D
 0001:00034475       loc_435475
 0001:000344AD       loc_4354AD
 0001:000344B1       loc_4354B1
 0001:000344BE       loc_4354BE
 0001:000344C7       loc_4354C7
 0001:000344E5       loc_4354E5
 0001:000344EE       loc_4354EE
 0001:0003450C       loc_43550C
 0001:00034521       loc_435521
 0001:00034552       loc_435552
 0001:0003456C       loc_43556C
 0001:00034574       loc_435574
 0001:0003457C       loc_43557C
 0001:000345AC       loc_4355AC
 0001:000345B0       loc_4355B0
 0001:000345BD       loc_4355BD
 0001:000345C6       loc_4355C6
 0001:000345F2       loc_4355F2
 0001:00034611       loc_435611
 0001:0003462F       loc_43562F
 0001:00034638       loc_435638
 0001:00034656       loc_435656
 0001:0003465F       loc_43565F
 0001:000346BC       loc_4356BC
 0001:000346D9       loc_4356D9
 0001:000346E6       loc_4356E6
 0001:000346F1       loc_4356F1
 0001:00034707       loc_435707
 0001:00034764       loc_435764
 0001:00034781       loc_435781
 0001:00034793       loc_435793
 0001:000347A9       loc_4357A9
 0001:000347CA       loc_4357CA
 0001:000347E8       loc_4357E8
 0001:000347F1       loc_4357F1
 0001:0003480F       loc_43580F
 0001:00034818       loc_435818
 0001:00034831       loc_435831
 0001:0003484C       loc_43584C
 0001:00034852       loc_435852
 0001:00034885       loc_435885
 0001:0003488C       loc_43588C
 0001:000348B0       loc_4358B0
 0001:000348B5       loc_4358B5
 0001:000348BD       loc_4358BD
 0001:000348C6       loc_4358C6
 0001:000348CF       loc_4358CF
 0001:000348E5       loc_4358E5
 0001:00034900       loc_435900
 0001:00034902       loc_435902
 0001:00034917       loc_435917
 0001:00034926       loc_435926
 0001:0003494C       loc_43594C
 0001:0003494F       loc_43594F
 0001:00034956       sub_435956
 0001:00034994       loc_435994
 0001:00034A0D       loc_435A0D
 0001:00034A28       loc_435A28
 0001:00034A4B       loc_435A4B
 0001:00034A4D       loc_435A4D
 0001:00034A53       loc_435A53
 0001:00034A5B       loc_435A5B
 0001:00034A82       loc_435A82
 0001:00034A91       loc_435A91
 0001:00034AB5       loc_435AB5
 0001:00034AD8       loc_435AD8
 0001:00034AE0       loc_435AE0
 0001:00034AE8       loc_435AE8
 0001:00034B01       loc_435B01
 0001:00034B15       loc_435B15
 0001:00034B18       loc_435B18
 0001:00034B26       loc_435B26
 0001:00034B39       loc_435B39
 0001:00034B51       loc_435B51
 0001:00034B66       loc_435B66
 0001:00034B78       loc_435B78
 0001:00034B92       loc_435B92
 0001:00034BBC       loc_435BBC
 0001:00034BC7       loc_435BC7
 0001:00034BC9       loc_435BC9
 0001:00034BD2       loc_435BD2
 0001:00034BD4       loc_435BD4
 0001:00034BE2       loc_435BE2
 0001:00034BF4       loc_435BF4
 0001:00034C15       loc_435C15
 0001:00034C21       loc_435C21
 0001:00034C23       loc_435C23
 0001:00034C30       loc_435C30
 0001:00034C34       loc_435C34
 0001:00034C38       loc_435C38
 0001:00034C4A       loc_435C4A
 0001:00034C87       loc_435C87
 0001:00034C99       loc_435C99
 0001:00034CBE       loc_435CBE
 0001:00034CC3       loc_435CC3
 0001:00034CE3       loc_435CE3
 0001:00034D04       loc_435D04
 0001:00034D0F       loc_435D0F
 0001:00034D11       loc_435D11
 0001:00034D14       loc_435D14
 0001:00034D52       loc_435D52
 0001:00034D53       loc_435D53
 0001:00034D5D       loc_435D5D
 0001:00034D7D       loc_435D7D
 0001:00034D88       loc_435D88
 0001:00034D8B       loc_435D8B
 0001:00034D9F       loc_435D9F
 0001:00034DA8       loc_435DA8
 0001:00034DC1       loc_435DC1
 0001:00034DDA       loc_435DDA
 0001:00034DF3       loc_435DF3
 0001:00034E13       loc_435E13
 0001:00034E1E       loc_435E1E
 0001:00034E27       loc_435E27
 0001:00034E28       loc_435E28
 0001:00034E51       loc_435E51
 0001:00034E5F       loc_435E5F
 0001:00034E65       loc_435E65
 0001:00034E6D       loc_435E6D
 0001:00034E75       loc_435E75
 0001:00034E7B       off_435E7B
 0001:00034EBF       sub_435EBF
 0001:00034F01       loc_435F01
 0001:00034F22       loc_435F22
 0001:00034F36       loc_435F36
 0001:00034F3E       loc_435F3E
 0001:00034F42       loc_435F42
 0001:00034F46       loc_435F46
 0001:00034F7D       loc_435F7D
 0001:00034F80       loc_435F80
 0001:00034F87       sub_435F87
 0001:00034FBA       loc_435FBA
 0001:00034FC7       loc_435FC7
 0001:00034FC9       loc_435FC9
 0001:00034FCE       sub_435FCE
 0001:00034FF8       loc_435FF8
 0001:00034FFD       loc_435FFD
 0001:00035019       loc_436019
 0001:0003502C       loc_43602C
 0001:000350F0       loc_4360F0
 0001:000350F4       loc_4360F4
 0001:000350F9       sub_4360F9
 0001:00035113       loc_436113
 0001:0003512A       loc_43612A
 0001:00035162       loc_436162
 0001:00035174       loc_436174
 0001:00035185       loc_436185
 0001:000351E3       loc_4361E3
 0001:0003520D       loc_43620D
 0001:0003522F       loc_43622F
 0001:0003523E       loc_43623E
 0001:00035269       loc_436269
 0001:00035290       loc_436290
 0001:000352B2       loc_4362B2
 0001:000352DC       loc_4362DC
 0001:00035309       loc_436309
 0001:00035310       loc_436310
 0001:00035315       loc_436315
 0001:00035332       loc_436332
 0001:0003533E       loc_43633E
 0001:0003534A       loc_43634A
 0001:00035365       loc_436365
 0001:0003536B       loc_43636B
 0001:00035376       loc_436376
 0001:00035398       loc_436398
 0001:000353A4       loc_4363A4
 0001:000353B3       loc_4363B3
 0001:000353ED       loc_4363ED
 0001:0003542D       loc_43642D
 0001:00035438       loc_436438
 0001:00035454       loc_436454
 0001:00035461       loc_436461
 0001:00035497       loc_436497
 0001:000354AA       loc_4364AA
 0001:000354C4       loc_4364C4
 0001:00035502       loc_436502
 0001:0003551C       loc_43651C
 0001:0003552A       loc_43652A
 0001:00035543       loc_436543
 0001:00035558       loc_436558
 0001:00035566       loc_436566
 0001:00035577       loc_436577
 0001:00035583       loc_436583
 0001:00035613       loc_436613
 0001:00035622       loc_436622
 0001:00035638       loc_436638
 0001:00035650       loc_436650
 0001:00035681       loc_436681
 0001:0003568D       loc_43668D
 0001:000356A3       loc_4366A3
 0001:000356B2       loc_4366B2
 0001:000356BD       loc_4366BD
 0001:000356CC       loc_4366CC
 0001:00035721       loc_436721
 0001:0003572D       loc_43672D
 0001:00035743       loc_436743
 0001:00035756       loc_436756
 0001:0003576A       loc_43676A
 0001:00035776       loc_436776
 0001:0003578A       loc_43678A
 0001:00035799       loc_436799
 0001:000357AA       loc_4367AA
 0001:000357BD       loc_4367BD
 0001:000357D0       loc_4367D0
 0001:00035818       loc_436818
 0001:00035820       loc_436820
 0001:0003584C       loc_43684C
 0001:00035851       sub_436851
 0001:0003586F       loc_43686F
 0001:00035894       loc_436894
 0001:0003589F       loc_43689F
 0001:000358B5       loc_4368B5
 0001:000358CF       loc_4368CF
 0001:000358E2       loc_4368E2
 0001:00035903       loc_436903
 0001:00035914       loc_436914
 0001:00035932       loc_436932
 0001:00035951       loc_436951
 0001:00035954       loc_436954
 0001:00035965       loc_436965
 0001:00035974       loc_436974
 0001:0003597B       loc_43697B
 0001:0003598F       loc_43698F
 0001:000359A1       loc_4369A1
 0001:000359A9       sub_4369A9
 0001:00035A0A       loc_436A0A
 0001:00035A22       loc_436A22
 0001:00035A27       sub_436A27
 0001:00035A37       loc_436A37
 0001:00035A49       loc_436A49
 0001:00035A4F       loc_436A4F
 0001:00035A53       loc_436A53
 0001:00035A54       loc_436A54
 0001:00035A5A       loc_436A5A
 0001:00035A7B       loc_436A7B
 0001:00035A92       loc_436A92
 0001:00035A9B       loc_436A9B
 0001:00035AA3       loc_436AA3
 0001:00035AA7       sub_436AA7
 0001:00035AB3       loc_436AB3
 0001:00035AFC       loc_436AFC
 0001:00035B05       loc_436B05
 0001:00035B10       loc_436B10
 0001:00035B14       sub_436B14
 0001:00035B4E       sub_436B4E
 0001:00035B9F       loc_436B9F
 0001:00035BDC       loc_436BDC
 0001:00035BE5       sub_436BE5
 0001:00035C06       loc_436C06
 0001:00035C1B       loc_436C1B
 0001:00035C1F       loc_436C1F
 0001:00035C2C       loc_436C2C
 0001:00035C31       loc_436C31
 0001:00035C53       loc_436C53
 0001:00035C55       loc_436C55
 0001:00035C6A       loc_436C6A
 0001:00035C75       loc_436C75
 0001:00035C7B       loc_436C7B
 0001:00035C92       loc_436C92
 0001:00035C95       loc_436C95
 0001:00035C96       loc_436C96
 0001:00035C9C       sub_436C9C
 0001:00035CE9       loc_436CE9
 0001:00035CEB       loc_436CEB
 0001:00035CF6       loc_436CF6
 0001:00035CF8       loc_436CF8
 0001:00035CFE       loc_436CFE
 0001:00035D11       loc_436D11
 0001:00035D1C       loc_436D1C
 0001:00035D26       sub_436D26
 0001:00035D2E       loc_436D2E
 0001:00035D33       loc_436D33
 0001:00035D3F       loc_436D3F
 0001:00035D46       loc_436D46
 0001:00035D4C       locret_436D4C
 0001:00035D4F       sub_436D4F
 0001:00035D9B       loc_436D9B
 0001:00035D9C       loc_436D9C
 0001:00035DE4       loc_436DE4
 0001:00035DEA       sub_436DEA
 0001:00035E1F       loc_436E1F
 0001:00035E5D       loc_436E5D
 0001:00035E62       sub_436E62
 0001:00035E85       loc_436E85
 0001:00035E88       loc_436E88
 0001:00035EA3       loc_436EA3
 0001:00035EAB       sub_436EAB
 0001:00035EB8       loc_436EB8
 0001:00035EBE       loc_436EBE
 0001:00035ED3       loc_436ED3
 0001:00035ED6       loc_436ED6
 0001:00035EDC       loc_436EDC
 0001:00035EDD       loc_436EDD
 0001:00035EE1       loc_436EE1
 0001:00035EE5       sub_436EE5
 0001:00035F0F       loc_436F0F
 0001:00035F27       loc_436F27
 0001:00035F3F       loc_436F3F
 0001:00035F57       loc_436F57
 0001:00035F6F       loc_436F6F
 0001:00035F87       loc_436F87
 0001:00035F9F       loc_436F9F
 0001:00035FB7       loc_436FB7
 0001:00035FCF       loc_436FCF
 0001:00035FE7       loc_436FE7
 0001:00035FFF       loc_436FFF
 0001:00036017       loc_437017
 0001:0003602F       loc_43702F
 0001:00036047       loc_437047
 0001:0003605F       loc_43705F
 0001:00036074       loc_437074
 0001:00036089       loc_437089
 0001:0003609E       loc_43709E
 0001:000360B3       loc_4370B3
 0001:000360C8       loc_4370C8
 0001:000360DD       loc_4370DD
 0001:000360F0       loc_4370F0
 0001:000360F3       loc_4370F3
 0001:0003610C       loc_43710C
 0001:00036110       sub_437110
 0001:00036146       loc_437146
 0001:0003614D       loc_43714D
 0001:0003615A       loc_43715A
 0001:00036162       loc_437162
 0001:00036168       loc_437168
 0001:0003616F       loc_43716F
 0001:00036176       loc_437176
 0001:00036185       loc_437185
 0001:0003618B       loc_43718B
 0001:00036198       loc_437198
 0001:000361A0       loc_4371A0
 0001:000361A8       loc_4371A8
 0001:000361BC       loc_4371BC
 0001:000361C8       loc_4371C8
 0001:000361CB       loc_4371CB
 0001:000361DB       loc_4371DB
 0001:000361F3       loc_4371F3
 0001:000361FE       loc_4371FE
 0001:000361FF       loc_4371FF
 0001:00036205       loc_437205
 0001:00036209       sub_437209
 0001:00036226       loc_437226
 0001:0003623B       loc_43723B
 0001:00036247       loc_437247
 0001:00036254       loc_437254
 0001:00036257       loc_437257
 0001:0003625A       sub_43725A
 0001:0003626F       loc_43726F
 0001:0003627D       loc_43727D
 0001:00036283       loc_437283
 0001:000362AB       loc_4372AB
 0001:000362AE       loc_4372AE
 0001:000362B2       loc_4372B2
 0001:000362B5       loc_4372B5
 0001:000362BC       loc_4372BC
 0001:000362BF       loc_4372BF
 0001:000362D7       loc_4372D7
 0001:000362DA       loc_4372DA
 0001:000362F2       loc_4372F2
 0001:00036302       loc_437302
 0001:00036323       loc_437323
 0001:0003632C       sub_43732C
 0001:00036341       loc_437341
 0001:00036363       loc_437363
 0001:0003637B       loc_43737B
 0001:00036384       loc_437384
 0001:0003638F       loc_43738F
 0001:0003639C       loc_43739C
 0001:000363A0       loc_4373A0
 0001:000363A9       loc_4373A9
 0001:000363C6       loc_4373C6
 0001:000363C9       loc_4373C9
 0001:000363D8       loc_4373D8
 0001:000363E3       loc_4373E3
 0001:000363F5       loc_4373F5
 0001:000363F8       loc_4373F8
 0001:000363FC       loc_4373FC
 0001:000363FF       loc_4373FF
 0001:00036405       loc_437405
 0001:00036407       loc_437407
 0001:0003640A       sub_43740A
 0001:0003642D       loc_43742D
 0001:00036430       loc_437430
 0001:00036463       loc_437463
 0001:0003646B       sub_43746B
 0001:00036485       loc_437485
 0001:0003649A       loc_43749A
 0001:000364DE       loc_4374DE
 0001:000364EF       loc_4374EF
 0001:000364F9       loc_4374F9
 0001:00036504       loc_437504
 0001:00036507       loc_437507
 0001:00036511       loc_437511
 0001:0003652E       loc_43752E
 0001:0003655B       loc_43755B
 0001:00036588       loc_437588
 0001:000365C7       loc_4375C7
 0001:000365FC       loc_4375FC
 0001:0003660A       loc_43760A
 0001:0003660F       sub_43760F
 0001:00036632       loc_437632
 0001:00036635       loc_437635
 0001:00036665       loc_437665
 0001:0003666D       sub_43766D
 0001:00036677       loc_437677
 0001:00036680       sub_437680
 0001:00036697       loc_437697
 0001:000366A7       loc_4376A7
 0001:000366AB       loc_4376AB
 0001:000366AD       loc_4376AD
 0001:000366B2       loc_4376B2
 0001:000366B6       sub_4376B6
 0001:000366CE       loc_4376CE
 0001:000366DF       loc_4376DF
 0001:00036712       loc_437712
 0001:00036717       loc_437717
 0001:0003671A       loc_43771A
 0001:0003671C       loc_43771C
 0001:00036721       loc_437721
 0001:00036725       sub_437725
 0001:00036746       loc_437746
 0001:0003675B       loc_43775B
 0001:0003675E       loc_43775E
 0001:00036764       loc_437764
 0001:00036768       sub_437768
 0001:00036776       loc_437776
 0001:00036785       loc_437785
 0001:0003678D       sub_43778D
 0001:000367AA       loc_4377AA
 0001:000367BC       loc_4377BC
 0001:000367E3       loc_4377E3
 0001:000367FD       loc_4377FD
 0001:00036801       loc_437801
 0001:00036818       loc_437818
 0001:00036859       loc_437859
 0001:0003685C       loc_43785C
 0001:0003685F       loc_43785F
 0001:00036866       sub_437866
 0001:0003688F       loc_43788F
 0001:000368BE       loc_4378BE
 0001:000368D2       loc_4378D2
 0001:00036952       loc_437952
 0001:0003695E       loc_43795E
 0001:00036984       loc_437984
 0001:000369B8       loc_4379B8
 0001:000369C4       loc_4379C4
 0001:000369FA       loc_4379FA
 0001:00036A12       loc_437A12
 0001:00036A15       loc_437A15
 0001:00036A25       loc_437A25
 0001:00036A27       loc_437A27
 0001:00036A39       loc_437A39
 0001:00036A5D       loc_437A5D
 0001:00036A93       loc_437A93
 0001:00036AB7       loc_437AB7
 0001:00036ADC       loc_437ADC
 0001:00036AE4       loc_437AE4
 0001:00036AFB       loc_437AFB
 0001:00036B16       loc_437B16
 0001:00036B21       loc_437B21
 0001:00036B36       loc_437B36
 0001:00036B3A       loc_437B3A
 0001:00036B56       loc_437B56
 0001:00036B59       loc_437B59
 0001:00036B5B       loc_437B5B
 0001:00036B81       loc_437B81
 0001:00036BB0       loc_437BB0
 0001:00036BC4       loc_437BC4
 0001:00036BDA       loc_437BDA
 0001:00036BFF       loc_437BFF
 0001:00036C23       loc_437C23
 0001:00036C37       loc_437C37
 0001:00036C48       loc_437C48
 0001:00036C4C       loc_437C4C
 0001:00036C51       loc_437C51
 0001:00036C59       loc_437C59
 0001:00036C60       loc_437C60
 0001:00036C97       loc_437C97
 0001:00036CBF       loc_437CBF
 0001:00036CF4       loc_437CF4
 0001:00036D02       loc_437D02
 0001:00036D10       loc_437D10
 0001:00036D3A       loc_437D3A
 0001:00036D51       loc_437D51
 0001:00036D5F       loc_437D5F
 0001:00036D70       loc_437D70
 0001:00036D77       loc_437D77
 0001:00036D88       loc_437D88
 0001:00036D8C       loc_437D8C
 0001:00036D96       loc_437D96
 0001:00036DA4       loc_437DA4
 0001:00036DB2       loc_437DB2
 0001:00036DB7       loc_437DB7
 0001:00036DD5       loc_437DD5
 0001:00036DF1       loc_437DF1
 0001:00036E20       loc_437E20
 0001:00036E50       loc_437E50
 0001:00036E60       loc_437E60
 0001:00036E8B       loc_437E8B
 0001:00036EB7       loc_437EB7
 0001:00036ED7       loc_437ED7
 0001:00036EF1       loc_437EF1
 0001:00036F1F       loc_437F1F
 0001:00036F2A       loc_437F2A
 0001:00036F47       loc_437F47
 0001:00036F4E       loc_437F4E
 0001:00036F7C       loc_437F7C
 0001:00036FB6       loc_437FB6
 0001:00036FDD       loc_437FDD
 0001:00036FE0       loc_437FE0
 0001:00036FEE       loc_437FEE
 0001:00036FFA       loc_437FFA
 0001:00037008       loc_438008
 0001:0003700C       loc_43800C
 0001:00037011       loc_438011
 0001:0003702B       loc_43802B
 0001:00037038       loc_438038
 0001:00037059       loc_438059
 0001:00037072       loc_438072
 0001:0003707E       loc_43807E
 0001:00037091       loc_438091
 0001:000370A0       loc_4380A0
 0001:000370BC       loc_4380BC
 0001:000370CF       loc_4380CF
 0001:000370D2       loc_4380D2
 0001:000370D3       loc_4380D3
 0001:000370D9       sub_4380D9
 0001:000370FB       loc_4380FB
 0001:00037112       loc_438112
 0001:00037131       loc_438131
 0001:00037147       loc_438147
 0001:00037150       loc_438150
 0001:00037173       loc_438173
 0001:00037176       loc_438176
 0001:0003717B       loc_43817B
 0001:0003717F       loc_43817F
 0001:0003718A       loc_43818A
 0001:0003719F       loc_43819F
 0001:000371B2       loc_4381B2
 0001:000371B5       loc_4381B5
 0001:000371E6       loc_4381E6
 0001:000371F7       loc_4381F7
 0001:000371F9       loc_4381F9
 0001:000371FA       loc_4381FA
 0001:00037200       sub_438200
 0001:00037217       loc_438217
 0001:00037224       loc_438224
 0001:0003723E       loc_43823E
 0001:00037241       loc_438241
 0001:00037245       loc_438245
 0001:0003724D       loc_43824D
 0001:00037255       loc_438255
 0001:0003725E       loc_43825E
 0001:00037262       loc_438262
 0001:0003726E       loc_43826E
 0001:0003727A       loc_43827A
 0001:00037283       loc_438283
 0001:00037298       loc_438298
 0001:000372B9       sub_4382B9
 0001:000372EF       loc_4382EF
 0001:0003730B       loc_43830B
 0001:0003730E       loc_43830E
 0001:00037313       loc_438313
 0001:0003733A       loc_43833A
 0001:0003733F       sub_43833F
 0001:0003736E       loc_43836E
 0001:00037371       loc_438371
 0001:00037380       loc_438380
 0001:0003739C       loc_43839C
 0001:0003739F       loc_43839F
 0001:000373A3       loc_4383A3
 0001:000373A6       loc_4383A6
 0001:000373A7       loc_4383A7
 0001:000373C4       loc_4383C4
 0001:000373C5       loc_4383C5
 0001:000373CD       sub_4383CD
 0001:000373F6       loc_4383F6
 0001:000373F9       loc_4383F9
 0001:0003741D       loc_43841D
 0001:00037425       sub_438425
 0001:0003744E       loc_43844E
 0001:00037451       loc_438451
 0001:00037490       loc_438490
 0001:00037498       sub_438498
 0001:000374BB       loc_4384BB
 0001:000374BE       loc_4384BE
 0001:000374D6       loc_4384D6
 0001:000374DE       sub_4384DE
 0001:00037518       loc_438518
 0001:0003751D       loc_43851D
 0001:0003752C       loc_43852C
 0001:00037539       loc_438539
 0001:0003753C       loc_43853C
 0001:00037542       sub_438542
 0001:00037565       loc_438565
 0001:00037569       sub_438569
 0001:000375A4       loc_4385A4
 0001:000375C6       loc_4385C6
 0001:000375CA       loc_4385CA
 0001:000375F6       loc_4385F6
 0001:00037609       loc_438609
 0001:00037617       loc_438617
 0001:00037619       loc_438619
 0001:0003761E       sub_43861E
 0001:00037631       loc_438631
 0001:0003765E       loc_43865E
 0001:00037679       loc_438679
 0001:00037686       loc_438686
 0001:00037699       loc_438699
 0001:0003769D       sub_43869D
 0001:000376DD       sub_4386DD
 0001:00037706       loc_438706
 0001:0003771E       loc_43871E
 0001:00037736       loc_438736
 0001:0003774E       loc_43874E
 0001:00037766       loc_438766
 0001:0003777E       loc_43877E
 0001:00037796       loc_438796
 0001:000377AE       loc_4387AE
 0001:000377C6       loc_4387C6
 0001:000377DE       loc_4387DE
 0001:000377F6       loc_4387F6
 0001:0003780E       loc_43880E
 0001:00037826       loc_438826
 0001:0003783E       loc_43883E
 0001:00037856       loc_438856
 0001:0003786E       loc_43886E
 0001:0003788B       loc_43888B
 0001:00037890       sub_438890
 0001:00037896       loc_438896
 0001:000378A0       loc_4388A0
 0001:000378AD       loc_4388AD
 0001:000378D6       loc_4388D6
 0001:000378DB       loc_4388DB
 0001:000378E0       loc_4388E0
 0001:000378E5       loc_4388E5
 0001:000378EA       loc_4388EA
 0001:000378FB       loc_4388FB
 0001:00037900       loc_438900
 0001:0003790A       loc_43890A
 0001:00037923       loc_438923
 0001:0003792A       sub_43892A
 0001:00037977       loc_438977
 0001:0003798B       loc_43898B
 0001:000379C8       loc_4389C8
 0001:000379EE       loc_4389EE
 0001:00037A2B       loc_438A2B
 0001:00037A74       loc_438A74
 0001:00037A7B       sub_438A7B
 0001:00037A90       loc_438A90
 0001:00037ABC       loc_438ABC
 0001:00037AD1       loc_438AD1
 0001:00037ADC       sub_438ADC
 0001:00037B14       loc_438B14
 0001:00037B1C       sub_438B1C
 0001:00037B6F       loc_438B6F
 0001:00037B74       loc_438B74
 0001:00037B76       loc_438B76
 0001:00037B94       loc_438B94
 0001:00037B99       loc_438B99
 0001:00037B9B       loc_438B9B
 0001:00037BB9       loc_438BB9
 0001:00037BE0       loc_438BE0
 0001:00037BE9       loc_438BE9
 0001:00037BED       loc_438BED
 0001:00037C0D       loc_438C0D
 0001:00037C12       loc_438C12
 0001:00037C14       loc_438C14
 0001:00037C36       loc_438C36
 0001:00037C39       loc_438C39
 0001:00037C5A       sub_438C5A
 0001:00037C70       loc_438C70
 0001:00037C86       loc_438C86
 0001:00037C9A       loc_438C9A
 0001:00037C9D       loc_438C9D
 0001:00037CA0       sub_438CA0
 0001:00037CD3       loc_438CD3
 0001:00037CE1       loc_438CE1
 0001:00037CE4       sub_438CE4
 0001:00037D4B       loc_438D4B
 0001:00037D95       loc_438D95
 0001:00037D9A       sub_438D9A
 0001:00037DBA       loc_438DBA
 0001:00037DC2       loc_438DC2
 0001:00037DD6       loc_438DD6
 0001:00037DDA       loc_438DDA
 0001:00037DDE       loc_438DDE
 0001:00037E0B       loc_438E0B
 0001:00037E1F       loc_438E1F
 0001:00037E24       loc_438E24
 0001:00037E26       loc_438E26
 0001:00037E2A       loc_438E2A
 0001:00037E3D       loc_438E3D
 0001:00037E50       loc_438E50
 0001:00037E55       loc_438E55
 0001:00037E5B       loc_438E5B
 0001:00037E5F       loc_438E5F
 0001:00037E66       loc_438E66
 0001:00037E68       loc_438E68
 0001:00037E70       loc_438E70
 0001:00037E72       loc_438E72
 0001:00037E77       sub_438E77
 0001:00037E8C       loc_438E8C
 0001:00037F4C       loc_438F4C
 0001:00037F5D       loc_438F5D
 0001:00037F64       loc_438F64
 0001:00037F7D       loc_438F7D
 0001:00037F80       loc_438F80
 0001:00037F83       sub_438F83
 0001:00037FA7       loc_438FA7
 0001:00037FAF       loc_438FAF
 0001:00037FC3       loc_438FC3
 0001:00038030       loc_439030
 0001:00038038       loc_439038
 0001:0003803F       loc_43903F
 0001:0003804F       loc_43904F
 0001:00038051       loc_439051
 0001:00038069       loc_439069
 0001:00038070       loc_439070
 0001:000380C5       loc_4390C5
 0001:000380CB       loc_4390CB
 0001:000380D8       loc_4390D8
 0001:000380E2       loc_4390E2
 0001:000380E8       loc_4390E8
 0001:000380F5       loc_4390F5
 0001:000380F9       loc_4390F9
 0001:00038118       loc_439118
 0001:00038134       loc_439134
 0001:0003813A       loc_43913A
 0001:0003815D       loc_43915D
 0001:00038197       loc_439197
 0001:000381E7       loc_4391E7
 0001:000381F6       loc_4391F6
 0001:000381FF       loc_4391FF
 0001:000382A8       loc_4392A8
 0001:000382AD       loc_4392AD
 0001:000382B3       loc_4392B3
 0001:000382BC       loc_4392BC
 0001:000382D8       loc_4392D8
 0001:0003831D       loc_43931D
 0001:0003832F       loc_43932F
 0001:0003833B       loc_43933B
 0001:00038389       loc_439389
 0001:000383C5       loc_4393C5
 0001:000383DD       loc_4393DD
 0001:0003840E       loc_43940E
 0001:0003842A       loc_43942A
 0001:00038462       loc_439462
 0001:00038470       loc_439470
 0001:00038484       loc_439484
 0001:00038486       loc_439486
 0001:000384A4       loc_4394A4
 0001:000384B3       loc_4394B3
 0001:000384C8       loc_4394C8
 0001:000384CA       loc_4394CA
 0001:000384CB       loc_4394CB
 0001:000384CF       sub_4394CF
 0001:00038505       loc_439505
 0001:0003850C       loc_43950C
 0001:00038511       sub_439511
 0001:0003853A       loc_43953A
 0001:0003857D       loc_43957D
 0001:0003858B       loc_43958B
 0001:0003859B       loc_43959B
 0001:0003859F       loc_43959F
 0001:000385A1       loc_4395A1
 0001:000385A4       sub_4395A4
 0001:000385E5       loc_4395E5
 0001:000385EB       loc_4395EB
 0001:000385F0       sub_4395F0
 0001:00038613       sub_439613
 0001:0003864B       loc_43964B
 0001:00038664       loc_439664
 0001:00038682       loc_439682
 0001:0003869B       loc_43969B
 0001:000386A5       loc_4396A5
 0001:000386CD       loc_4396CD
 0001:000386E3       loc_4396E3
 0001:000386EE       loc_4396EE
 0001:00038710       loc_439710
 0001:00038725       loc_439725
 0001:00038729       loc_439729
 0001:0003872B       loc_43972B
 0001:00038733       sub_439733
 0001:00038762       loc_439762
 0001:00038778       loc_439778
 0001:00038799       loc_439799
 0001:000387B3       loc_4397B3
 0001:000387BC       loc_4397BC
 0001:000387EC       loc_4397EC
 0001:00038808       loc_439808
 0001:00038811       loc_439811
 0001:00038833       loc_439833
 0001:00038846       loc_439846
 0001:0003884A       loc_43984A
 0001:0003884C       loc_43984C
 0001:00038851       sub_439851
 0001:00038871       sub_439871
 0001:00038896       loc_439896
 0001:000388A6       loc_4398A6
 0001:000388B6       loc_4398B6
 0001:000388C2       loc_4398C2
 0001:000388ED       loc_4398ED
 0001:000388F5       loc_4398F5
 0001:000388F9       loc_4398F9
 0001:000388FB       loc_4398FB
 0001:00038900       sub_439900
 0001:00038910       loc_439910
 0001:0003892F       loc_43992F
 0001:00038956       loc_439956
 0001:00038960       loc_439960
 0001:00038975       loc_439975
 0001:00038978       loc_439978
 0001:00038980       loc_439980
 0001:00038998       loc_439998
 0001:000389AD       loc_4399AD
 0001:000389B2       loc_4399B2
 0001:000389B9       loc_4399B9
 0001:000389DC       loc_4399DC
 0001:000389FE       loc_4399FE
 0001:00038A03       loc_439A03
 0001:00038A25       loc_439A25
 0001:00038A29       loc_439A29
 0001:00038A32       loc_439A32
 0001:00038A43       loc_439A43
 0001:00038A46       loc_439A46
 0001:00038A4E       loc_439A4E
 0001:00038A52       loc_439A52
 0001:00038A54       loc_439A54
 0001:00038A59       sub_439A59
 0001:00038A5F       loc_439A5F
 0001:00038A6B       loc_439A6B
 0001:00038A6C       loc_439A6C
 0001:00038A72       locret_439A72
 0001:00038A73       sub_439A73
 0001:00038A85       loc_439A85
 0001:00038A92       loc_439A92
 0001:00038A9D       loc_439A9D
 0001:00038AAB       loc_439AAB
 0001:00038AB3       sub_439AB3
 0001:00038AC6       loc_439AC6
 0001:00038AD0       loc_439AD0
 0001:00038ADB       loc_439ADB
 0001:00038AE6       loc_439AE6
 0001:00038AF0       loc_439AF0
 0001:00038AFB       loc_439AFB
 0001:00038AFE       loc_439AFE
 0001:00038B03       loc_439B03
 0001:00038B09       loc_439B09
 0001:00038B0D       sub_439B0D
 0001:00038B2C       loc_439B2C
 0001:00038B30       loc_439B30
 0001:00038B42       loc_439B42
 0001:00038B44       loc_439B44
 0001:00038B48       sub_439B48
 0001:00038B62       loc_439B62
 0001:00038B66       loc_439B66
 0001:00038B77       loc_439B77
 0001:00038B7F       loc_439B7F
 0001:00038B85       loc_439B85
 0001:00038B96       loc_439B96
 0001:00038B99       loc_439B99
 0001:00038B9B       loc_439B9B
 0001:00038B9D       sub_439B9D
 0001:00038BAF       loc_439BAF
 0001:00038BBE       loc_439BBE
 0001:00038BBF       loc_439BBF
 0001:00038BCA       loc_439BCA
 0001:00038BCE       loc_439BCE
 0001:00038BE8       loc_439BE8
 0001:00038BF7       loc_439BF7
 0001:00038BFB       loc_439BFB
 0001:00038C06       loc_439C06
 0001:00038C0B       loc_439C0B
 0001:00038C0E       sub_439C0E
 0001:00038C4B       loc_439C4B
 0001:00038C4E       sub_439C4E
 0001:00038C7D       loc_439C7D
 0001:00038C82       sub_439C82
 0001:00038C9D       loc_439C9D
 0001:00038CAB       loc_439CAB
 0001:00038CCD       loc_439CCD
 0001:00038CD5       sub_439CD5
 0001:00038D0C       sub_439D0C
 0001:00038D4A       loc_439D4A
 0001:00038D4E       loc_439D4E
 0001:00038D53       loc_439D53
 0001:00038D63       loc_439D63
 0001:00038D7A       loc_439D7A
 0001:00038D8A       loc_439D8A
 0001:00038DA1       sub_439DA1
 0001:00038DCD       sub_439DCD
 0001:00038E25       loc_439E25
 0001:00038E2B       loc_439E2B
 0001:00038E51       loc_439E51
 0001:00038E57       loc_439E57
 0001:00038E7D       loc_439E7D
 0001:00038E82       loc_439E82
 0001:00038EA8       loc_439EA8
 0001:00038EAD       loc_439EAD
 0001:00038ED3       loc_439ED3
 0001:00038ED8       loc_439ED8
 0001:00038F3A       loc_439F3A
 0001:00038F40       loc_439F40
 0001:00038F59       loc_439F59
 0001:00038F5C       loc_439F5C
 0001:00038F61       sub_439F61
 0001:00038F73       loc_439F73
 0001:00038F93       loc_439F93
 0001:00038FA6       loc_439FA6
 0001:00038FB2       loc_439FB2
 0001:00038FB9       loc_439FB9
 0001:00038FBA       loc_439FBA
 0001:00038FD5       loc_439FD5
 0001:00038FD9       loc_439FD9
 0001:00038FDC       sub_439FDC
 0001:0003900B       loc_43A00B
 0001:00039045       loc_43A045
 0001:00039049       loc_43A049
 0001:00039059       loc_43A059
 0001:00039065       loc_43A065
 0001:00039067       loc_43A067
 0001:0003906A       sub_43A06A
 0001:00039073       loc_43A073
 0001:00039082       loc_43A082
 0001:0003908C       loc_43A08C
 0001:00039096       loc_43A096
 0001:000390A0       loc_43A0A0
 0001:000390A9       loc_43A0A9
 0001:000390B3       loc_43A0B3
 0001:000390BD       loc_43A0BD
 0001:000390C7       loc_43A0C7
 0001:000390D1       loc_43A0D1
 0001:000390D6       sub_43A0D6
 0001:00039115       loc_43A115
 0001:00039128       loc_43A128
 0001:0003916A       loc_43A16A
 0001:0003919D       loc_43A19D
 0001:000391A3       loc_43A1A3
 0001:000391B9       loc_43A1B9
 0001:000391E2       loc_43A1E2
 0001:000391F4       loc_43A1F4
 0001:000391FF       loc_43A1FF
 0001:00039222       loc_43A222
 0001:00039249       loc_43A249
 0001:00039274       loc_43A274
 0001:00039279       loc_43A279
 0001:00039289       loc_43A289
 0001:00039294       loc_43A294
 0001:000392AC       loc_43A2AC
 0001:00039307       loc_43A307
 0001:00039318       loc_43A318
 0001:00039333       loc_43A333
 0001:00039356       loc_43A356
 0001:0003936E       loc_43A36E
 0001:00039379       loc_43A379
 0001:00039381       loc_43A381
 0001:000393A4       loc_43A3A4
 0001:000393C5       loc_43A3C5
 0001:000393E8       loc_43A3E8
 0001:00039413       loc_43A413
 0001:00039436       loc_43A436
 0001:0003946A       loc_43A46A
 0001:0003949D       loc_43A49D
 0001:000394A2       loc_43A4A2
 0001:000394AC       loc_43A4AC
 0001:000394CB       loc_43A4CB
 0001:000394DF       loc_43A4DF
 0001:000394E5       loc_43A4E5
 0001:000394E8       loc_43A4E8
 0001:000394EF       loc_43A4EF
 0001:000394F1       loc_43A4F1
 0001:000394F3       loc_43A4F3
 0001:000394F8       off_43A4F8
 0001:0003952C       sub_43A52C
 0001:0003955B       loc_43A55B
 0001:00039577       loc_43A577
 0001:0003957A       loc_43A57A
 0001:00039581       loc_43A581
 0001:0003958E       sub_43A58E
 0001:00039601       loc_43A601
 0001:00039615       loc_43A615
 0001:00039630       loc_43A630
 0001:0003969E       loc_43A69E
 0001:000396A7       loc_43A6A7
 0001:000396AE       sub_43A6AE
 0001:00039715       loc_43A715
 0001:0003972D       sub_43A72D
 0001:0003978D       loc_43A78D
 0001:00039799       loc_43A799
 0001:000397BA       loc_43A7BA
 0001:000397D0       loc_43A7D0
 0001:000397EB       loc_43A7EB
 0001:00039802       loc_43A802
 0001:00039820       loc_43A820
 0001:00039837       loc_43A837
 0001:00039859       loc_43A859
 0001:00039870       loc_43A870
 0001:00039877       sub_43A877
 0001:000398EE       loc_43A8EE
 0001:00039900       loc_43A900
 0001:0003990E       loc_43A90E
 0001:00039925       loc_43A925
 0001:00039974       loc_43A974
 0001:00039979       loc_43A979
 0001:00039981       loc_43A981
 0001:00039988       sub_43A988
 0001:000399BA       loc_43A9BA
 0001:000399BD       loc_43A9BD
 0001:000399D7       loc_43A9D7
 0001:00039A14       loc_43AA14
 0001:00039A28       loc_43AA28
 0001:00039A31       loc_43AA31
 0001:00039A38       sub_43AA38
 0001:00039A93       loc_43AA93
 0001:00039A99       loc_43AA99
 0001:00039ABC       loc_43AABC
 0001:00039AC2       loc_43AAC2
 0001:00039AE0       loc_43AAE0
 0001:00039AE3       loc_43AAE3
 0001:00039B04       loc_43AB04
 0001:00039B07       loc_43AB07
 0001:00039B41       loc_43AB41
 0001:00039B4B       loc_43AB4B
 0001:00039B52       sub_43AB52
 0001:00039B89       loc_43AB89
 0001:00039B98       loc_43AB98
 0001:00039BAD       loc_43ABAD
 0001:00039BE0       loc_43ABE0
 0001:00039C11       loc_43AC11
 0001:00039C1B       loc_43AC1B
 0001:00039C20       loc_43AC20
 0001:00039C23       loc_43AC23
 0001:00039C2C       loc_43AC2C
 0001:00039C36       loc_43AC36
 0001:00039C3D       loc_43AC3D
 0001:00039C49       loc_43AC49
 0001:00039C75       loc_43AC75
 0001:00039CBC       loc_43ACBC
 0001:00039CD5       loc_43ACD5
 0001:00039CE0       loc_43ACE0
 0001:00039CF6       loc_43ACF6
 0001:00039D04       loc_43AD04
 0001:00039D35       loc_43AD35
 0001:00039D6F       loc_43AD6F
 0001:00039D8C       loc_43AD8C
 0001:00039D8F       loc_43AD8F
 0001:00039DAB       loc_43ADAB
 0001:00039DF3       loc_43ADF3
 0001:00039E12       loc_43AE12
 0001:00039E19       loc_43AE19
 0001:00039E1C       loc_43AE1C
 0001:00039E20       loc_43AE20
 0001:00039E23       loc_43AE23
 0001:00039E46       loc_43AE46
 0001:00039E80       loc_43AE80
 0001:00039E92       loc_43AE92
 0001:00039E9F       loc_43AE9F
 0001:00039EA9       loc_43AEA9
 0001:00039EAB       loc_43AEAB
 0001:00039EAC       loc_43AEAC
 0001:00039EB3       off_43AEB3
 0001:00039EDF       sub_43AEDF
 0001:00039F1D       loc_43AF1D
 0001:00039F22       loc_43AF22
 0001:00039F59       loc_43AF59
 0001:00039FD0       loc_43AFD0
 0001:00039FDE       loc_43AFDE
 0001:0003A012       loc_43B012
 0001:0003A01D       loc_43B01D
 0001:0003A028       loc_43B028
 0001:0003A02E       loc_43B02E
 0001:0003A063       loc_43B063
 0001:0003A064       loc_43B064
 0001:0003A085       loc_43B085
 0001:0003A0AB       loc_43B0AB
 0001:0003A0C5       loc_43B0C5
 0001:0003A0C9       loc_43B0C9
 0001:0003A0E8       loc_43B0E8
 0001:0003A0FC       loc_43B0FC
 0001:0003A10F       loc_43B10F
 0001:0003A12C       loc_43B12C
 0001:0003A131       loc_43B131
 0001:0003A147       loc_43B147
 0001:0003A14C       sub_43B14C
 0001:0003A16E       loc_43B16E
 0001:0003A175       sub_43B175
 0001:0003A194       loc_43B194
 0001:0003A1CD       loc_43B1CD
 0001:0003A1EB       loc_43B1EB
 0001:0003A201       loc_43B201
 0001:0003A203       loc_43B203
 0001:0003A20B       sub_43B20B
 0001:0003A242       loc_43B242
 0001:0003A259       loc_43B259
 0001:0003A25B       loc_43B25B
 0001:0003A25E       sub_43B25E
 0001:0003A27A       loc_43B27A
 0001:0003A2DA       loc_43B2DA
 0001:0003A2E7       loc_43B2E7
 0001:0003A327       loc_43B327
 0001:0003A330       loc_43B330
 0001:0003A344       loc_43B344
 0001:0003A34B       loc_43B34B
 0001:0003A34C       loc_43B34C
 0001:0003A34F       sub_43B34F
 0001:0003A389       loc_43B389
 0001:0003A38D       EnumFunc
 0001:0003A461       loc_43B461
 0001:0003A47F       loc_43B47F
 0001:0003A483       loc_43B483
 0001:0003A489       loc_43B489
 0001:0003A49E       loc_43B49E
 0001:0003A4A0       loc_43B4A0
 0001:0003A4A2       loc_43B4A2
 0001:0003A4A3       loc_43B4A3
 0001:0003A4AA       sub_43B4AA
 0001:0003A4D1       loc_43B4D1
 0001:0003A4F7       loc_43B4F7
 0001:0003A4FA       loc_43B4FA
 0001:0003A4FB       loc_43B4FB
 0001:0003A500       sub_43B500
 0001:0003A545       loc_43B545
 0001:0003A574       loc_43B574
 0001:0003A595       loc_43B595
 0001:0003A5B2       loc_43B5B2
 0001:0003A604       loc_43B604
 0001:0003A626       loc_43B626
 0001:0003A632       loc_43B632
 0001:0003A633       loc_43B633
 0001:0003A654       loc_43B654
 0001:0003A66E       loc_43B66E
 0001:0003A673       loc_43B673
 0001:0003A67D       sub_43B67D
 0001:0003A699       loc_43B699
 0001:0003A6B7       loc_43B6B7
 0001:0003A6BB       loc_43B6BB
 0001:0003A6F4       loc_43B6F4
 0001:0003A6F9       loc_43B6F9
 0001:0003A6FA       loc_43B6FA
 0001:0003A700       sub_43B700
 0001:0003A730       loc_43B730
 0001:0003A751       loc_43B751
 0001:0003A765       loc_43B765
 0001:0003A78A       loc_43B78A
 0001:0003A790       loc_43B790
 0001:0003A7B3       loc_43B7B3
 0001:0003A7BA       loc_43B7BA
 0001:0003A7BF       loc_43B7BF
 0001:0003A7C5       loc_43B7C5
 0001:0003A7CB       loc_43B7CB
 0001:0003A7CF       loc_43B7CF
 0001:0003A7D2       loc_43B7D2
 0001:0003A7D8       sub_43B7D8
 0001:0003A84D       loc_43B84D
 0001:0003A876       loc_43B876
 0001:0003A87A       loc_43B87A
 0001:0003A87D       loc_43B87D
 0001:0003A883       sub_43B883
 0001:0003A8D0       loc_43B8D0
 0001:0003A8D2       loc_43B8D2
 0001:0003A8D8       loc_43B8D8
 0001:0003A8DD       sub_43B8DD
 0001:0003A8FC       loc_43B8FC
 0001:0003A91D       loc_43B91D
 0001:0003A920       loc_43B920
 0001:0003A924       sub_43B924
 0001:0003A951       loc_43B951
 0001:0003A954       loc_43B954
 0001:0003A959       sub_43B959
 0001:0003A97F       sub_43B97F
 0001:0003A98C       loc_43B98C
 0001:0003A9A0       loc_43B9A0
 0001:0003A9B2       loc_43B9B2
 0001:0003A9B6       loc_43B9B6
 0001:0003A9BC       sub_43B9BC
 0001:0003A9C9       loc_43B9C9
 0001:0003A9DA       loc_43B9DA
 0001:0003A9E5       loc_43B9E5
 0001:0003A9EB       loc_43B9EB
 0001:0003A9ED       loc_43B9ED
 0001:0003A9F1       sub_43B9F1
 0001:0003AA4E       loc_43BA4E
 0001:0003AA56       loc_43BA56
 0001:0003AA5A       sub_43BA5A
 0001:0003AA7E       loc_43BA7E
 0001:0003AA91       loc_43BA91
 0001:0003AABF       loc_43BABF
 0001:0003AAC4       loc_43BAC4
 0001:0003AAC9       loc_43BAC9
 0001:0003AACF       loc_43BACF
 0001:0003AAD8       loc_43BAD8
 0001:0003AADC       loc_43BADC
 0001:0003AAE3       loc_43BAE3
 0001:0003AAE8       loc_43BAE8
 0001:0003AAFE       loc_43BAFE
 0001:0003AB07       loc_43BB07
 0001:0003AB09       loc_43BB09
 0001:0003AB0E       sub_43BB0E
 0001:0003AB55       sub_43BB55
 0001:0003AB9D       loc_43BB9D
 0001:0003ABA1       loc_43BBA1
 0001:0003ABA3       loc_43BBA3
 0001:0003ABAA       loc_43BBAA
 0001:0003ABB1       loc_43BBB1
 0001:0003ABB6       loc_43BBB6
 0001:0003ABBC       loc_43BBBC
 0001:0003ABE5       loc_43BBE5
 0001:0003ABFD       loc_43BBFD
 0001:0003AC08       loc_43BC08
 0001:0003AC1C       loc_43BC1C
 0001:0003AC44       loc_43BC44
 0001:0003AC5B       loc_43BC5B
 0001:0003AC90       loc_43BC90
 0001:0003AC98       loc_43BC98
 0001:0003ACB5       loc_43BCB5
 0001:0003ACC5       loc_43BCC5
 0001:0003ACD9       loc_43BCD9
 0001:0003ACFB       loc_43BCFB
 0001:0003AD12       loc_43BD12
 0001:0003AD6E       loc_43BD6E
 0001:0003AD79       loc_43BD79
 0001:0003AD80       loc_43BD80
 0001:0003AD85       loc_43BD85
 0001:0003AD94       loc_43BD94
 0001:0003ADAF       sub_43BDAF
 0001:0003ADBF       loc_43BDBF
 0001:0003ADDE       loc_43BDDE
 0001:0003ADE5       loc_43BDE5
 0001:0003ADEA       loc_43BDEA
 0001:0003ADF3       loc_43BDF3
 0001:0003AE05       loc_43BE05
 0001:0003AE0A       loc_43BE0A
 0001:0003AE0D       sub_43BE0D
 0001:0003AE22       locret_43BE22
 0001:0003AE25       sub_43BE25
 0001:0003AE4A       loc_43BE4A
 0001:0003AE4E       loc_43BE4E
 0001:0003AEA0       loc_43BEA0
 0001:0003AEB7       loc_43BEB7
 0001:0003AF04       loc_43BF04
 0001:0003AF06       loc_43BF06
 0001:0003AF0D       loc_43BF0D
 0001:0003AF39       loc_43BF39
 0001:0003AF7C       loc_43BF7C
 0001:0003AF9D       loc_43BF9D
 0001:0003AFA3       loc_43BFA3
 0001:0003AFA8       loc_43BFA8
 0001:0003AFAE       loc_43BFAE
 0001:0003B000       loc_43C000
 0001:0003B020       loc_43C020
 0001:0003B049       loc_43C049
 0001:0003B067       loc_43C067
 0001:0003B06A       loc_43C06A
 0001:0003B090       loc_43C090
 0001:0003B0B6       loc_43C0B6
 0001:0003B0C3       loc_43C0C3
 0001:0003B0CA       loc_43C0CA
 0001:0003B0D2       sub_43C0D2
 0001:0003B0F4       loc_43C0F4
 0001:0003B10E       loc_43C10E
 0001:0003B10F       loc_43C10F
 0001:0003B127       loc_43C127
 0001:0003B144       loc_43C144
 0001:0003B146       sub_43C146
 0001:0003B15B       loc_43C15B
 0001:0003B18F       loc_43C18F
 0001:0003B1A8       loc_43C1A8
 0001:0003B1D4       loc_43C1D4
 0001:0003B1E2       loc_43C1E2
 0001:0003B1FC       loc_43C1FC
 0001:0003B201       loc_43C201
 0001:0003B205       sub_43C205
 0001:0003B24C       loc_43C24C
 0001:0003B250       loc_43C250
 0001:0003B25D       loc_43C25D
 0001:0003B26A       loc_43C26A
 0001:0003B27A       loc_43C27A
 0001:0003B27F       loc_43C27F
 0001:0003B2C4       loc_43C2C4
 0001:0003B2C6       loc_43C2C6
 0001:0003B2DF       loc_43C2DF
 0001:0003B398       loc_43C398
 0001:0003B3A8       loc_43C3A8
 0001:0003B3B0       sub_43C3B0
 0001:0003B3C3       loc_43C3C3
 0001:0003B3EF       loc_43C3EF
 0001:0003B3F0       loc_43C3F0
 0001:0003B3F2       sub_43C3F2
 0001:0003B40A       loc_43C40A
 0001:0003B42F       loc_43C42F
 0001:0003B44B       loc_43C44B
 0001:0003B457       loc_43C457
 0001:0003B46B       loc_43C46B
 0001:0003B486       loc_43C486
 0001:0003B4CC       loc_43C4CC
 0001:0003B4E6       loc_43C4E6
 0001:0003B4E9       loc_43C4E9
 0001:0003B4EC       loc_43C4EC
 0001:0003B53C       loc_43C53C
 0001:0003B54B       loc_43C54B
 0001:0003B557       loc_43C557
 0001:0003B56A       loc_43C56A
 0001:0003B56C       loc_43C56C
 0001:0003B56D       loc_43C56D
 0001:0003B571       sub_43C571
 0001:0003B59C       loc_43C59C
 0001:0003B5A1       loc_43C5A1
 0001:0003B5C0       loc_43C5C0
 0001:0003B5CC       loc_43C5CC
 0001:0003B5D4       loc_43C5D4
 0001:0003B643       loc_43C643
 0001:0003B654       loc_43C654
 0001:0003B6B3       loc_43C6B3
 0001:0003B6C4       loc_43C6C4
 0001:0003B6F0       loc_43C6F0
 0001:0003B701       loc_43C701
 0001:0003B708       loc_43C708
 0001:0003B714       loc_43C714
 0001:0003B71E       loc_43C71E
 0001:0003B729       loc_43C729
 0001:0003B72E       loc_43C72E
 0001:0003B742       loc_43C742
 0001:0003B745       loc_43C745
 0001:0003B756       loc_43C756
 0001:0003B759       loc_43C759
 0001:0003B75E       sub_43C75E
 0001:0003B779       loc_43C779
 0001:0003B7B1       loc_43C7B1
 0001:0003B7B5       loc_43C7B5
 0001:0003B7D8       loc_43C7D8
 0001:0003B7F3       loc_43C7F3
 0001:0003B7FB       loc_43C7FB
 0001:0003B802       loc_43C802
 0001:0003B807       sub_43C807
 0001:0003B826       loc_43C826
 0001:0003B864       loc_43C864
 0001:0003B873       loc_43C873
 0001:0003B87A       loc_43C87A
 0001:0003B8BF       loc_43C8BF
 0001:0003B8D5       loc_43C8D5
 0001:0003B926       loc_43C926
 0001:0003B92B       loc_43C92B
 0001:0003B92D       loc_43C92D
 0001:0003B932       sub_43C932
 0001:0003B947       loc_43C947
 0001:0003B98B       loc_43C98B
 0001:0003B98E       loc_43C98E
 0001:0003B9AF       loc_43C9AF
 0001:0003B9E2       loc_43C9E2
 0001:0003B9E4       loc_43C9E4
 0001:0003B9E8       loc_43C9E8
 0001:0003B9F9       loc_43C9F9
 0001:0003B9FB       loc_43C9FB
 0001:0003BA00       sub_43CA00
 0001:0003BA16       loc_43CA16
 0001:0003BA23       loc_43CA23
 0001:0003BA2D       loc_43CA2D
 0001:0003BA65       loc_43CA65
 0001:0003BA84       loc_43CA84
 0001:0003BA86       loc_43CA86
 0001:0003BA8C       sub_43CA8C
 0001:0003BAAF       sub_43CAAF
 0001:0003BAD1       loc_43CAD1
 0001:0003BB0C       loc_43CB0C
 0001:0003BB1B       loc_43CB1B
 0001:0003BB22       loc_43CB22
 0001:0003BB46       loc_43CB46
 0001:0003BBDD       loc_43CBDD
 0001:0003BBFE       loc_43CBFE
 0001:0003BC02       loc_43CC02
 0001:0003BC14       loc_43CC14
 0001:0003BC29       loc_43CC29
 0001:0003BC2E       RtlUnwind
 0001:0003BC34       _isalnum
 0001:0003BC4E       loc_43CC4E
 0001:0003BC62       _isdigit
 0001:0003BC79       loc_43CC79
 0001:0003BC8B       _isprint
 0001:0003BCA5       loc_43CCA5
 0001:0003BCB9       _isspace
 0001:0003BCD0       loc_43CCD0
 0001:0003BCE2       _isxdigit
 0001:0003BCFC       loc_43CCFC
 0001:0003BD10       __filbuf
 0001:0003BD37       loc_43CD37
 0001:0003BD4C       loc_43CD4C
 0001:0003BD51       loc_43CD51
 0001:0003BD93       loc_43CD93
 0001:0003BD98       loc_43CD98
 0001:0003BDAD       loc_43CDAD
 0001:0003BDCA       loc_43CDCA
 0001:0003BDD8       loc_43CDD8
 0001:0003BDE9       loc_43CDE9
 0001:0003BDEE       ___endstdio
 0001:0003BE01       locret_43CE01
 0001:0003BE02       ___initstdio
 0001:0003BE16       loc_43CE16
 0001:0003BE1C       loc_43CE1C
 0001:0003BE21       loc_43CE21
 0001:0003BE52       loc_43CE52
 0001:0003BE5B       loc_43CE5B
 0001:0003BE60       loc_43CE60
 0001:0003BE78       loc_43CE78
 0001:0003BE95       loc_43CE95
 0001:0003BE98       loc_43CE98
 0001:0003BEA8       __flsbuf
 0001:0003BEE1       loc_43CEE1
 0001:0003BF0B       loc_43CF0B
 0001:0003BF16       loc_43CF16
 0001:0003BF1D       loc_43CF1D
 0001:0003BF4A       loc_43CF4A
 0001:0003BF65       loc_43CF65
 0001:0003BF6A       loc_43CF6A
 0001:0003BF7A       loc_43CF7A
 0001:0003BF7D       loc_43CF7D
 0001:0003BF87       loc_43CF87
 0001:0003BF9B       loc_43CF9B
 0001:0003BFA7       loc_43CFA7
 0001:0003BFB1       loc_43CFB1
 0001:0003BFB7       loc_43CFB7
 0001:0003BFBA       loc_43CFBA
 0001:0003BFBE       __fptostr
 0001:0003BFE1       loc_43CFE1
 0001:0003BFED       loc_43CFED
 0001:0003BFF0       loc_43CFF0
 0001:0003BFFB       loc_43CFFB
 0001:0003C009       loc_43D009
 0001:0003C00C       loc_43D00C
 0001:0003C014       loc_43D014
 0001:0003C01E       loc_43D01E
 0001:0003C030       loc_43D030
 0001:0003C035       __freebuf
 0001:0003C05E       loc_43D05E
 0001:0003C060       __getbuf
 0001:0003C089       loc_43D089
 0001:0003C09A       loc_43D09A
 0001:0003C0A4       __openfile
 0001:0003C0D6       loc_43D0D6
 0001:0003C0DD       loc_43D0DD
 0001:0003C0E2       loc_43D0E2
 0001:0003C0E5       loc_43D0E5
 0001:0003C0ED       loc_43D0ED
 0001:0003C12D       loc_43D12D
 0001:0003C141       loc_43D141
 0001:0003C14B       loc_43D14B
 0001:0003C161       loc_43D161
 0001:0003C16E       loc_43D16E
 0001:0003C18D       loc_43D18D
 0001:0003C1A1       loc_43D1A1
 0001:0003C1A6       loc_43D1A6
 0001:0003C1AA       loc_43D1AA
 0001:0003C1B9       loc_43D1B9
 0001:0003C1C4       loc_43D1C4
 0001:0003C1CF       loc_43D1CF
 0001:0003C1E9       loc_43D1E9
 0001:0003C1ED       loc_43D1ED
 0001:0003C207       loc_43D207
 0001:0003C20C       __ftbuf
 0001:0003C235       loc_43D235
 0001:0003C245       loc_43D245
 0001:0003C246       loc_43D246
 0001:0003C248       __stbuf
 0001:0003C266       loc_43D266
 0001:0003C271       loc_43D271
 0001:0003C2B2       loc_43D2B2
 0001:0003C2BF       loc_43D2BF
 0001:0003C2CC       loc_43D2CC
 0001:0003C2D0       ___crtGetEnvironmentStringsA
 0001:0003C300       loc_43D300
 0001:0003C314       loc_43D314
 0001:0003C319       loc_43D319
 0001:0003C31E       loc_43D31E
 0001:0003C32A       loc_43D32A
 0001:0003C331       loc_43D331
 0001:0003C33F       loc_43D33F
 0001:0003C38C       loc_43D38C
 0001:0003C390       loc_43D390
 0001:0003C39B       loc_43D39B
 0001:0003C3A3       loc_43D3A3
 0001:0003C3A7       loc_43D3A7
 0001:0003C3B7       loc_43D3B7
 0001:0003C3C1       loc_43D3C1
 0001:0003C3D7       loc_43D3D7
 0001:0003C3E2       loc_43D3E2
 0001:0003C3EB       loc_43D3EB
 0001:0003C3F2       ___crtLCMapStringA
 0001:0003C42B       loc_43D42B
 0001:0003C440       loc_43D440
 0001:0003C44B       loc_43D44B
 0001:0003C458       loc_43D458
 0001:0003C460       loc_43D460
 0001:0003C497       loc_43D497
 0001:0003C4E8       loc_43D4E8
 0001:0003C4EC       loc_43D4EC
 0001:0003C503       loc_43D503
 0001:0003C524       loc_43D524
 0001:0003C593       loc_43D593
 0001:0003C5B6       loc_43D5B6
 0001:0003C5BA       loc_43D5BA
 0001:0003C5D1       loc_43D5D1
 0001:0003C5EE       loc_43D5EE
 0001:0003C611       loc_43D611
 0001:0003C617       loc_43D617
 0001:0003C627       loc_43D627
 0001:0003C635       loc_43D635
 0001:0003C643       loc_43D643
 0001:0003C64A       loc_43D64A
 0001:0003C65F       loc_43D65F
 0001:0003C66C       loc_43D66C
 0001:0003C67D       loc_43D67D
 0001:0003C684       loc_43D684
 0001:0003C6EB       loc_43D6EB
 0001:0003C6EF       loc_43D6EF
 0001:0003C6FB       loc_43D6FB
 0001:0003C726       loc_43D726
 0001:0003C743       loc_43D743
 0001:0003C747       loc_43D747
 0001:0003C76A       loc_43D76A
 0001:0003C76D       loc_43D76D
 0001:0003C77B       loc_43D77B
 0001:0003C795       loc_43D795
 0001:0003C7A3       loc_43D7A3
 0001:0003C7A5       loc_43D7A5
 0001:0003C7AE       ___crtGetStringTypeA
 0001:0003C7E4       loc_43D7E4
 0001:0003C7F9       loc_43D7F9
 0001:0003C82B       loc_43D82B
 0001:0003C887       loc_43D887
 0001:0003C88B       loc_43D88B
 0001:0003C89C       loc_43D89C
 0001:0003C8B7       loc_43D8B7
 0001:0003C8DF       loc_43D8DF
 0001:0003C8EC       loc_43D8EC
 0001:0003C8F1       loc_43D8F1
 0001:0003C8FE       loc_43D8FE
 0001:0003C90B       loc_43D90B
 0001:0003C917       loc_43D917
 0001:0003C91B       loc_43D91B
 0001:0003C93D       loc_43D93D
 0001:0003C95D       loc_43D95D
 0001:0003C95F       loc_43D95F
 0001:0003C968       _atol
 0001:0003C96F       loc_43D96F
 0001:0003C970       loc_43D970
 0001:0003C98E       loc_43D98E
 0001:0003C992       loc_43D992
 0001:0003C994       loc_43D994
 0001:0003C9A3       loc_43D9A3
 0001:0003C9A6       loc_43D9A6
 0001:0003C9B7       loc_43D9B7
 0001:0003C9BF       locret_43D9BF
 0001:0003C9C0       _calloc
 0001:0003C9D3       loc_43D9D3
 0001:0003C9FE       loc_43D9FE
 0001:0003CA13       loc_43DA13
 0001:0003CA29       loc_43DA29
 0001:0003CA35       loc_43DA35
 0001:0003CA37       loc_43DA37
 0001:0003CA3B       ___dtold
 0001:0003CA84       loc_43DA84
 0001:0003CA8B       loc_43DA8B
 0001:0003CAA3       loc_43DAA3
 0001:0003CAAC       loc_43DAAC
 0001:0003CAC8       loc_43DAC8
 0001:0003CAE7       loc_43DAE7
 0001:0003CAF0       loc_43DAF0
 0001:0003CAF5       __fltout
 0001:0003CB69       __chsize
 0001:0003CC0A       loc_43DC0A
 0001:0003CC15       loc_43DC15
 0001:0003CC33       loc_43DC33
 0001:0003CC46       loc_43DC46
 0001:0003CC49       loc_43DC49
 0001:0003CC56       loc_43DC56
 0001:0003CC96       loc_43DC96
 0001:0003CCAC       loc_43DCAC
 0001:0003CCB6       loc_43DCB6
 0001:0003CCB9       loc_43DCB9
 0001:0003CCC5       __close
 0001:0003CD0C       loc_43DD0C
 0001:0003CD22       loc_43DD22
 0001:0003CD3E       loc_43DD3E
 0001:0003CD40       loc_43DD40
 0001:0003CD5B       loc_43DD5B
 0001:0003CD5F       loc_43DD5F
 0001:0003CD70       loc_43DD70
 0001:0003CD73       loc_43DD73
 0001:0003CD78       __fcloseall
 0001:0003CD87       loc_43DD87
 0001:0003CDA6       loc_43DDA6
 0001:0003CDC2       loc_43DDC2
 0001:0003CDCB       loc_43DDCB
 0001:0003CDD0       __commit
 0001:0003CE0E       loc_43DE0E
 0001:0003CE10       loc_43DE10
 0001:0003CE19       $good$19189
 0001:0003CE26       locret_43DE26
 0001:0003CE27       ___ansicp
 0001:0003CE56       loc_43DE56
 0001:0003CE60       loc_43DE60
 0001:0003CE6A       ___convertcp
 0001:0003CECE       loc_43DECE
 0001:0003CEDC       loc_43DEDC
 0001:0003CEE8       loc_43DEE8
 0001:0003CEED       loc_43DEED
 0001:0003CEF0       loc_43DEF0
 0001:0003CF0F       loc_43DF0F
 0001:0003CF3C       loc_43DF3C
 0001:0003CF40       loc_43DF40
 0001:0003CF53       loc_43DF53
 0001:0003CF67       loc_43DF67
 0001:0003CF6E       loc_43DF6E
 0001:0003CF75       loc_43DF75
 0001:0003CFB5       loc_43DFB5
 0001:0003CFD0       loc_43DFD0
 0001:0003D003       loc_43E003
 0001:0003D010       loc_43E010
 0001:0003D013       loc_43E013
 0001:0003D01F       loc_43E01F
 0001:0003D022       loc_43E022
 0001:0003D033       ___crtExitProcess
 0001:0003D058       loc_43E058
 0001:0003D063       __c_exit
 0001:0003D072       __cexit
 0001:0003D081       __cinit
 0001:0003D091       loc_43E091
 0001:0003D0A5       loc_43E0A5
 0001:0003D0B1       loc_43E0B1
 0001:0003D0BC       loc_43E0BC
 0001:0003D0D7       loc_43E0D7
 0001:0003D0DF       loc_43E0DF
 0001:0003D0E6       loc_43E0E6
 0001:0003D0E8       loc_43E0E8
 0001:0003D0EB       __exit
 0001:0003D0FC       _exit
 0001:0003D10D       __fptrap
 0001:0003D116       __FF_MSGBANNER
 0001:0003D12D       loc_43E12D
 0001:0003D143       loc_43E143
 0001:0003D14E       locret_43E14E
 0001:0003D14F       __NMSG_WRITE
 0001:0003D175       loc_43E175
 0001:0003D184       loc_43E184
 0001:0003D1B4       loc_43E1B4
 0001:0003D1EA       loc_43E1EA
 0001:0003D21E       loc_43E21E
 0001:0003D282       loc_43E282
 0001:0003D2AA       loc_43E2AA
 0001:0003D2C6       ___crtMessageBoxA
 0001:0003D346       loc_43E346
 0001:0003D372       loc_43E372
 0001:0003D381       loc_43E381
 0001:0003D385       loc_43E385
 0001:0003D38B       loc_43E38B
 0001:0003D3AA       loc_43E3AA
 0001:0003D3BA       loc_43E3BA
 0001:0003D3BF       __cfltcvt
 0001:0003D3E7       loc_43E3E7
 0001:0003D3FA       loc_43E3FA
 0001:0003D40B       loc_43E40B
 0001:0003D410       __cftoe
 0001:0003D446       loc_43E446
 0001:0003D47A       loc_43E47A
 0001:0003D486       loc_43E486
 0001:0003D49B       loc_43E49B
 0001:0003D4C2       loc_43E4C2
 0001:0003D4D6       loc_43E4D6
 0001:0003D4E6       loc_43E4E6
 0001:0003D4F6       loc_43E4F6
 0001:0003D4F9       loc_43E4F9
 0001:0003D501       __cftof
 0001:0003D53A       loc_43E53A
 0001:0003D566       loc_43E566
 0001:0003D573       loc_43E573
 0001:0003D58B       loc_43E58B
 0001:0003D58D       loc_43E58D
 0001:0003D5BC       loc_43E5BC
 0001:0003D5C0       loc_43E5C0
 0001:0003D5D7       loc_43E5D7
 0001:0003D5DE       __cftog
 0001:0003D645       loc_43E645
 0001:0003D64F       loc_43E64F
 0001:0003D665       loc_43E665
 0001:0003D67C       loc_43E67C
 0001:0003D688       __cropzeros
 0001:0003D695       loc_43E695
 0001:0003D69A       loc_43E69A
 0001:0003D6A0       loc_43E6A0
 0001:0003D6A9       loc_43E6A9
 0001:0003D6B4       loc_43E6B4
 0001:0003D6BA       loc_43E6BA
 0001:0003D6BC       loc_43E6BC
 0001:0003D6C7       loc_43E6C7
 0001:0003D6D1       loc_43E6D1
 0001:0003D6D3       __fassign
 0001:0003D6FC       loc_43E6FC
 0001:0003D711       __forcdecpt
 0001:0003D725       loc_43E725
 0001:0003D73E       loc_43E73E
 0001:0003D74B       loc_43E74B
 0001:0003D74F       loc_43E74F
 0001:0003D75A       loc_43E75A
 0001:0003D769       __positive
 0001:0003D780       loc_43E780
 0001:0003D783       j__free
 0001:0003D788       __dosmaperr
 0001:0003D793       loc_43E793
 0001:0003D7B7       loc_43E7B7
 0001:0003D7C4       loc_43E7C4
 0001:0003D7DC       loc_43E7DC
 0001:0003D7E6       locret_43E7E6
 0001:0003D7E7       __ValidateEH3RN
 0001:0003D815       loc_43E815
 0001:0003D81C       loc_43E81C
 0001:0003D825       loc_43E825
 0001:0003D82D       loc_43E82D
 0001:0003D834       loc_43E834
 0001:0003D843       loc_43E843
 0001:0003D84C       loc_43E84C
 0001:0003D86E       loc_43E86E
 0001:0003D881       loc_43E881
 0001:0003D893       loc_43E893
 0001:0003D911       loc_43E911
 0001:0003D939       loc_43E939
 0001:0003D945       loc_43E945
 0001:0003D952       loc_43E952
 0001:0003D958       loc_43E958
 0001:0003D96A       loc_43E96A
 0001:0003D976       loc_43E976
 0001:0003D988       loc_43E988
 0001:0003D98C       loc_43E98C
 0001:0003D9C0       loc_43E9C0
 0001:0003D9CC       loc_43E9CC
 0001:0003D9D0       loc_43E9D0
 0001:0003D9DB       loc_43E9DB
 0001:0003D9E0       loc_43E9E0
 0001:0003D9E2       loc_43E9E2
 0001:0003D9E8       loc_43E9E8
 0001:0003D9FA       loc_43E9FA
 0001:0003DA08       loc_43EA08
 0001:0003DA0B       loc_43EA0B
 0001:0003DA0C       loc_43EA0C
 0001:0003DA10       _fclose
 0001:0003DA25       loc_43EA25
 0001:0003DA4B       loc_43EA4B
 0001:0003DA5D       loc_43EA5D
 0001:0003DA5F       loc_43EA5F
 0001:0003DA66       __flush
 0001:0003DAAD       loc_43EAAD
 0001:0003DAB4       loc_43EAB4
 0001:0003DAB5       loc_43EAB5
 0001:0003DAC3       sub_43EAC3
 0001:0003DACC       _fflush
 0001:0003DADE       loc_43EADE
 0001:0003DAEE       loc_43EAEE
 0001:0003DB03       loc_43EB03
 0001:0003DB07       _fgets
 0001:0003DB1B       loc_43EB1B
 0001:0003DB24       loc_43EB24
 0001:0003DB33       loc_43EB33
 0001:0003DB3A       loc_43EB3A
 0001:0003DB4B       loc_43EB4B
 0001:0003DB4E       loc_43EB4E
 0001:0003DB51       loc_43EB51
 0001:0003DB55       loc_43EB55
 0001:0003DB5E       __fsopen
 0001:0003DB72       loc_43EB72
 0001:0003DB88       _fopen
 0001:0003DB9B       __setdefaultprecision
 0001:0003DBAD       __cfltcvt_init
 0001:0003DBE5       nullsub_1
 0001:0003DBE6       __fpmath
 0001:0003DC01       loc_43EC01
 0001:0003DC04       _fputs
 0001:0003DC47       _free
 0001:0003DC6F       loc_43EC6F
 0001:0003DC7D       loc_43EC7D
 0001:0003DC7F       _fwrite
 0001:0003DCA3       loc_43ECA3
 0001:0003DCB7       loc_43ECB7
 0001:0003DCBE       loc_43ECBE
 0001:0003DCD8       loc_43ECD8
 0001:0003DCF2       loc_43ECF2
 0001:0003DD06       loc_43ED06
 0001:0003DD17       loc_43ED17
 0001:0003DD34       loc_43ED34
 0001:0003DD39       loc_43ED39
 0001:0003DD62       loc_43ED62
 0001:0003DD6D       loc_43ED6D
 0001:0003DD6E       loc_43ED6E
 0001:0003DD72       loc_43ED72
 0001:0003DD74       loc_43ED74
 0001:0003DD7D       loc_43ED7D
 0001:0003DD86       __callnewh
 0001:0003DD9E       loc_43ED9E
 0001:0003DDA1       ___heap_select
 0001:0003DDB7       loc_43EDB7
 0001:0003DDBB       __heap_init
 0001:0003DE05       loc_43EE05
 0001:0003DE08       loc_43EE08
 0001:0003DE0C       __control87
 0001:0003DE3E       __controlfp
 0001:0003DE54       sub_43EE54
 0001:0003DE67       loc_43EE67
 0001:0003DE81       loc_43EE81
 0001:0003DE85       loc_43EE85
 0001:0003DE88       loc_43EE88
 0001:0003DE92       loc_43EE92
 0001:0003DE98       sub_43EE98
 0001:0003DEAB       loc_43EEAB
 0001:0003DEC5       loc_43EEC5
 0001:0003DEC9       loc_43EEC9
 0001:0003DECC       loc_43EECC
 0001:0003DED6       loc_43EED6
 0001:0003DEDC       sub_43EEDC
 0001:0003DF19       sub_43EF19
 0001:0003DF56       __CopyMan
 0001:0003DF64       loc_43EF64
 0001:0003DF71       __IncMan
 0001:0003DFA2       loc_43EFA2
 0001:0003DFBB       loc_43EFBB
 0001:0003DFBE       __IsZeroMan
 0001:0003DFC0       loc_43EFC0
 0001:0003DFD4       loc_43EFD4
 0001:0003DFD7       __ld12cvt
 0001:0003E038       loc_43F038
 0001:0003E040       loc_43F040
 0001:0003E05D       loc_43F05D
 0001:0003E073       loc_43F073
 0001:0003E0AF       loc_43F0AF
 0001:0003E0B3       loc_43F0B3
 0001:0003E0DB       loc_43F0DB
 0001:0003E0EF       loc_43F0EF
 0001:0003E0F1       loc_43F0F1
 0001:0003E120       loc_43F120
 0001:0003E12A       loc_43F12A
 0001:0003E12F       sub_43F12F
 0001:0003E145       sub_43F145
 0001:0003E15B       __RoundMan
 0001:0003E1A7       loc_43F1A7
 0001:0003E1AA       loc_43F1AA
 0001:0003E1C5       loc_43F1C5
 0001:0003E1CD       __ShrMan
 0001:0003E1FB       loc_43F1FB
 0001:0003E22B       loc_43F22B
 0001:0003E237       loc_43F237
 0001:0003E23B       loc_43F23B
 0001:0003E248       __ZeroTail
 0001:0003E267       loc_43F267
 0001:0003E26A       loc_43F26A
 0001:0003E270       loc_43F270
 0001:0003E27A       __ioinit
 0001:0003E294       loc_43F294
 0001:0003E2AB       loc_43F2AB
 0001:0003E2C5       loc_43F2C5
 0001:0003E303       loc_43F303
 0001:0003E310       loc_43F310
 0001:0003E330       loc_43F330
 0001:0003E346       loc_43F346
 0001:0003E357       loc_43F357
 0001:0003E35D       loc_43F35D
 0001:0003E363       loc_43F363
 0001:0003E382       loc_43F382
 0001:0003E3A0       loc_43F3A0
 0001:0003E3A9       loc_43F3A9
 0001:0003E3AA       loc_43F3AA
 0001:0003E3AC       loc_43F3AC
 0001:0003E3C6       loc_43F3C6
 0001:0003E3D0       loc_43F3D0
 0001:0003E3F5       loc_43F3F5
 0001:0003E3FB       loc_43F3FB
 0001:0003E406       loc_43F406
 0001:0003E40A       loc_43F40A
 0001:0003E421       loc_43F421
 0001:0003E425       __isatty
 0001:0003E434       loc_43F434
 0001:0003E44C       __ismbblead
 0001:0003E45D       __ismbcspace
 0001:0003E48E       loc_43F48E
 0001:0003E492       loc_43F492
 0001:0003E4CA       loc_43F4CA
 0001:0003E4DF       loc_43F4DF
 0001:0003E4ED       __lseek
 0001:0003E545       loc_43F545
 0001:0003E547       loc_43F547
 0001:0003E554       loc_43F554
 0001:0003E561       loc_43F561
 0001:0003E568       loc_43F568
 0001:0003E572       loc_43F572
 0001:0003E575       loc_43F575
 0001:0003E579       __lseeki64
 0001:0003E5EC       loc_43F5EC
 0001:0003E5FD       loc_43F5FD
 0001:0003E604       loc_43F604
 0001:0003E60E       loc_43F60E
 0001:0003E614       loc_43F614
 0001:0003E618       __heap_alloc
 0001:0003E639       loc_43F639
 0001:0003E63E       loc_43F63E
 0001:0003E64D       loc_43F64D
 0001:0003E65C       loc_43F65C
 0001:0003E65E       __nh_malloc
 0001:0003E665       loc_43F665
 0001:0003E687       loc_43F687
 0001:0003E689       locret_43F689
 0001:0003E68A       _malloc
 0001:0003E69C       __strdup
 0001:0003E6C3       loc_43F6C3
 0001:0003E6C7       ___add_12
 0001:0003E6F9       loc_43F6F9
 0001:0003E711       loc_43F711
 0001:0003E725       ___addl
 0001:0003E73B       loc_43F73B
 0001:0003E73E       loc_43F73E
 0001:0003E746       ___mtold12
 0001:0003E775       loc_43F775
 0001:0003E7C1       loc_43F7C1
 0001:0003E7C9       loc_43F7C9
 0001:0003E7F5       loc_43F7F5
 0001:0003E7FC       loc_43F7FC
 0001:0003E80A       loc_43F80A
 0001:0003E824       ___shl_12
 0001:0003E852       ___shr_12
 0001:0003E87F       ___initmbctable
 0001:0003E89A       loc_43F89A
 0001:0003E89D       __setmbcp
 0001:0003E8D0       loc_43F8D0
 0001:0003E8E7       loc_43F8E7
 0001:0003E8FB       loc_43F8FB
 0001:0003E900       loc_43F900
 0001:0003E918       loc_43F918
 0001:0003E971       loc_43F971
 0001:0003E987       loc_43F987
 0001:0003E9A3       loc_43F9A3
 0001:0003E9A9       loc_43F9A9
 0001:0003E9C3       loc_43F9C3
 0001:0003E9CE       loc_43F9CE
 0001:0003E9D2       loc_43F9D2
 0001:0003E9D6       loc_43F9D6
 0001:0003EA0E       loc_43FA0E
 0001:0003EA16       loc_43FA16
 0001:0003EA26       loc_43FA26
 0001:0003EA28       loc_43FA28
 0001:0003EA4B       loc_43FA4B
 0001:0003EA51       loc_43FA51
 0001:0003EA5D       loc_43FA5D
 0001:0003EA65       loc_43FA65
 0001:0003EA6A       loc_43FA6A
 0001:0003EA6F       loc_43FA6F
 0001:0003EA73       loc_43FA73
 0001:0003EA76       loc_43FA76
 0001:0003EA83       __mbsnbcpy
 0001:0003EAA7       loc_43FAA7
 0001:0003EAB2       loc_43FAB2
 0001:0003EAD7       loc_43FAD7
 0001:0003EAEB       loc_43FAEB
 0001:0003EAEC       loc_43FAEC
 0001:0003EAEF       loc_43FAEF
 0001:0003EAF2       loc_43FAF2
 0001:0003EAF8       loc_43FAF8
 0001:0003EAFE       loc_43FAFE
 0001:0003EB04       __msize
 0001:0003EB25       loc_43FB25
 0001:0003EB28       loc_43FB28
 0001:0003EB2C       loc_43FB2C
 0001:0003EB3C       operator new(uint)
 0001:0003EB4A       ___onexitinit
 0001:0003EB62       loc_43FB62
 0001:0003EB72       __onexit
 0001:0003EBA2       loc_43FBA2
 0001:0003EBC8       loc_43FBC8
 0001:0003EBE5       loc_43FBE5
 0001:0003EBF4       _atexit
 0001:0003EC06       __sopen
 0001:0003EC2A       loc_43FC2A
 0001:0003EC35       loc_43FC35
 0001:0003EC4B       loc_43FC4B
 0001:0003EC4F       loc_43FC4F
 0001:0003EC69       loc_43FC69
 0001:0003EC72       loc_43FC72
 0001:0003EC79       loc_43FC79
 0001:0003EC90       loc_43FC90
 0001:0003ECA8       loc_43FCA8
 0001:0003ECAD       loc_43FCAD
 0001:0003ECB6       loc_43FCB6
 0001:0003ECBF       loc_43FCBF
 0001:0003ECC2       loc_43FCC2
 0001:0003ECFB       loc_43FCFB
 0001:0003ED04       loc_43FD04
 0001:0003ED09       loc_43FD09
 0001:0003ED1B       loc_43FD1B
 0001:0003ED2B       loc_43FD2B
 0001:0003ED33       loc_43FD33
 0001:0003ED3C       loc_43FD3C
 0001:0003ED43       loc_43FD43
 0001:0003ED61       loc_43FD61
 0001:0003ED7C       loc_43FD7C
 0001:0003ED83       loc_43FD83
 0001:0003ED8F       loc_43FD8F
 0001:0003ED99       loc_43FD99
 0001:0003EDB8       loc_43FDB8
 0001:0003EDBF       loc_43FDBF
 0001:0003EDF0       loc_43FDF0
 0001:0003EDFF       loc_43FDFF
 0001:0003EE0A       loc_43FE0A
 0001:0003EE13       loc_43FE13
 0001:0003EE6F       loc_43FE6F
 0001:0003EE84       loc_43FE84
 0001:0003EE86       loc_43FE86
 0001:0003EE87       loc_43FE87
 0001:0003EE8B       loc_43FE8B
 0001:0003EEB8       loc_43FEB8
 0001:0003EECA       loc_43FECA
 0001:0003EED6       __alloc_osfhnd
 0001:0003EEEB       loc_43FEEB
 0001:0003EEF9       loc_43FEF9
 0001:0003EF06       loc_43FF06
 0001:0003EF0C       loc_43FF0C
 0001:0003EF1D       loc_43FF1D
 0001:0003EF2E       loc_43FF2E
 0001:0003EF51       loc_43FF51
 0001:0003EF63       loc_43FF63
 0001:0003EF6C       loc_43FF6C
 0001:0003EF73       __free_osfhnd
 0001:0003EFBE       loc_43FFBE
 0001:0003EFC3       loc_43FFC3
 0001:0003EFC6       loc_43FFC6
 0001:0003EFCC       loc_43FFCC
 0001:0003EFD6       loc_43FFD6
 0001:0003EFEA       loc_43FFEA
 0001:0003EFED       __get_osfhandle
 0001:0003F014       loc_440014
 0001:0003F029       __set_osfhnd
 0001:0003F071       loc_440071
 0001:0003F076       loc_440076
 0001:0003F079       loc_440079
 0001:0003F07F       loc_44007F
 0001:0003F089       loc_440089
 0001:0003F09D       loc_44009D
 0001:0003F0A0       __output
 0001:0003F0DD       loc_4400DD
 0001:0003F0E0       loc_4400E0
 0001:0003F10A       loc_44010A
 0001:0003F10C       loc_44010C
 0001:0003F12C       loc_44012C
 0001:0003F149       loc_440149
 0001:0003F171       loc_440171
 0001:0003F17A       loc_44017A
 0001:0003F183       loc_440183
 0001:0003F18C       loc_44018C
 0001:0003F195       loc_440195
 0001:0003F1C1       loc_4401C1
 0001:0003F1D6       loc_4401D6
 0001:0003F1DF       loc_4401DF
 0001:0003F208       loc_440208
 0001:0003F21D       loc_44021D
 0001:0003F23E       loc_44023E
 0001:0003F247       loc_440247
 0001:0003F250       loc_440250
 0001:0003F26D       loc_44026D
 0001:0003F288       loc_440288
 0001:0003F2BC       loc_4402BC
 0001:0003F2E9       loc_4402E9
 0001:0003F2FE       loc_4402FE
 0001:0003F348       loc_440348
 0001:0003F355       loc_440355
 0001:0003F380       loc_440380
 0001:0003F38F       loc_44038F
 0001:0003F399       loc_440399
 0001:0003F3B9       loc_4403B9
 0001:0003F3C5       loc_4403C5
 0001:0003F3FA       loc_4403FA
 0001:0003F40B       loc_44040B
 0001:0003F40F       loc_44040F
 0001:0003F416       loc_440416
 0001:0003F43F       loc_44043F
 0001:0003F44C       loc_44044C
 0001:0003F457       loc_440457
 0001:0003F48F       loc_44048F
 0001:0003F498       loc_440498
 0001:0003F4A6       loc_4404A6
 0001:0003F4B6       loc_4404B6
 0001:0003F4C3       loc_4404C3
 0001:0003F4EA       loc_4404EA
 0001:0003F4ED       loc_4404ED
 0001:0003F538       loc_440538
 0001:0003F549       loc_440549
 0001:0003F556       loc_440556
 0001:0003F557       loc_440557
 0001:0003F562       loc_440562
 0001:0003F5A1       loc_4405A1
 0001:0003F5AA       loc_4405AA
 0001:0003F5AE       loc_4405AE
 0001:0003F5B8       loc_4405B8
 0001:0003F5C4       loc_4405C4
 0001:0003F5C9       loc_4405C9
 0001:0003F5D0       loc_4405D0
 0001:0003F5D4       loc_4405D4
 0001:0003F5DC       loc_4405DC
 0001:0003F5E3       loc_4405E3
 0001:0003F5E6       loc_4405E6
 0001:0003F60F       loc_44060F
 0001:0003F629       loc_440629
 0001:0003F648       loc_440648
 0001:0003F64D       loc_44064D
 0001:0003F659       loc_440659
 0001:0003F674       loc_440674
 0001:0003F677       loc_440677
 0001:0003F67D       loc_44067D
 0001:0003F687       loc_440687
 0001:0003F696       loc_440696
 0001:0003F6A1       loc_4406A1
 0001:0003F6AC       loc_4406AC
 0001:0003F6BB       loc_4406BB
 0001:0003F6CC       loc_4406CC
 0001:0003F6D6       loc_4406D6
 0001:0003F6DC       loc_4406DC
 0001:0003F6EC       loc_4406EC
 0001:0003F70B       loc_44070B
 0001:0003F710       loc_440710
 0001:0003F730       loc_440730
 0001:0003F73A       loc_44073A
 0001:0003F73D       loc_44073D
 0001:0003F75A       loc_44075A
 0001:0003F765       loc_440765
 0001:0003F76E       loc_44076E
 0001:0003F775       loc_440775
 0001:0003F797       loc_440797
 0001:0003F7C5       loc_4407C5
 0001:0003F7DA       loc_4407DA
 0001:0003F815       loc_440815
 0001:0003F824       loc_440824
 0001:0003F83E       loc_44083E
 0001:0003F851       loc_440851
 0001:0003F861       loc_440861
 0001:0003F863       loc_440863
 0001:0003F87A       off_44087A
 0001:0003F8A0       _qsort
 0001:0003F8E5       loc_4408E5
 0001:0003F907       loc_440907
 0001:0003F92F       loc_44092F
 0001:0003F954       loc_440954
 0001:0003F96A       loc_44096A
 0001:0003F986       loc_440986
 0001:0003F99C       loc_44099C
 0001:0003F9B8       loc_4409B8
 0001:0003F9CA       loc_4409CA
 0001:0003F9D0       loc_4409D0
 0001:0003F9D4       loc_4409D4
 0001:0003F9F0       loc_4409F0
 0001:0003FA10       loc_440A10
 0001:0003FA26       loc_440A26
 0001:0003FA40       loc_440A40
 0001:0003FA5D       loc_440A5D
 0001:0003FA6C       loc_440A6C
 0001:0003FA72       loc_440A72
 0001:0003FA90       loc_440A90
 0001:0003FAAA       loc_440AAA
 0001:0003FAAE       loc_440AAE
 0001:0003FAD6       loc_440AD6
 0001:0003FAEB       loc_440AEB
 0001:0003FB03       loc_440B03
 0001:0003FB18       loc_440B18
 0001:0003FB1B       loc_440B1B
 0001:0003FB1C       loc_440B1C
 0001:0003FB23       __read
 0001:0003FB98       loc_440B98
 0001:0003FBC9       loc_440BC9
 0001:0003FBCE       loc_440BCE
 0001:0003FBD5       loc_440BD5
 0001:0003FBE1       loc_440BE1
 0001:0003FC08       loc_440C08
 0001:0003FC11       loc_440C11
 0001:0003FC27       loc_440C27
 0001:0003FC43       loc_440C43
 0001:0003FC58       loc_440C58
 0001:0003FC5D       loc_440C5D
 0001:0003FC85       loc_440C85
 0001:0003FCA6       loc_440CA6
 0001:0003FCB1       loc_440CB1
 0001:0003FCB6       loc_440CB6
 0001:0003FCCB       loc_440CCB
 0001:0003FCCE       loc_440CCE
 0001:0003FCCF       loc_440CCF
 0001:0003FCDD       loc_440CDD
 0001:0003FCED       loc_440CED
 0001:0003FCF3       loc_440CF3
 0001:0003FCF8       loc_440CF8
 0001:0003FCFF       loc_440CFF
 0001:0003FD09       loc_440D09
 0001:0003FD0C       loc_440D0C
 0001:0003FD11       _realloc
 0001:0003FD2B       loc_440D2B
 0001:0003FD40       loc_440D40
 0001:0003FD4D       loc_440D4D
 0001:0003FD84       loc_440D84
 0001:0003FD9B       loc_440D9B
 0001:0003FDB5       loc_440DB5
 0001:0003FDB9       loc_440DB9
 0001:0003FDBE       loc_440DBE
 0001:0003FDE3       loc_440DE3
 0001:0003FDF5       loc_440DF5
 0001:0003FDF9       loc_440DF9
 0001:0003FDFE       loc_440DFE
 0001:0003FE16       loc_440E16
 0001:0003FE1A       loc_440E1A
 0001:0003FE34       loc_440E34
 0001:0003FE38       loc_440E38
 0001:0003FE44       loc_440E44
 0001:0003FE58       loc_440E58
 0001:0003FE6C       loc_440E6C
 0001:0003FE6E       loc_440E6E
 0001:0003FE6F       loc_440E6F
 0001:0003FE73       __resetstkoflw
 0001:0003FEDB       loc_440EDB
 0001:0003FF0A       loc_440F0A
 0001:0003FF0E       loc_440F0E
 0001:0003FF12       loc_440F12
 0001:0003FF19       loc_440F19
 0001:0003FF2F       loc_440F2F
 0001:0003FF32       loc_440F32
 0001:0003FF4E       loc_440F4E
 0001:0003FF56       ___sbh_alloc_block
 0001:0003FF93       loc_440F93
 0001:0003FFA0       loc_440FA0
 0001:0003FFAE       loc_440FAE
 0001:0003FFC2       loc_440FC2
 0001:0003FFC7       loc_440FC7
 0001:0003FFD0       loc_440FD0
 0001:0003FFE1       loc_440FE1
 0001:0003FFE8       loc_440FE8
 0001:0003FFF0       loc_440FF0
 0001:00040017       loc_441017
 0001:00040033       loc_441033
 0001:0004004A       loc_44104A
 0001:0004004D       loc_44104D
 0001:00040078       loc_441078
 0001:00040084       loc_441084
 0001:00040089       loc_441089
 0001:00040092       loc_441092
 0001:0004009B       loc_44109B
 0001:000400A2       loc_4410A2
 0001:000400B4       loc_4410B4
 0001:000400CC       loc_4410CC
 0001:000400D3       loc_4410D3
 0001:000400D6       loc_4410D6
 0001:000400F7       loc_4410F7
 0001:00040137       loc_441137
 0001:00040160       loc_441160
 0001:00040163       loc_441163
 0001:000401C2       loc_4411C2
 0001:000401D4       loc_4411D4
 0001:000401E7       loc_4411E7
 0001:000401FD       loc_4411FD
 0001:00040200       loc_441200
 0001:0004020C       loc_44120C
 0001:0004020F       loc_44120F
 0001:00040245       loc_441245
 0001:0004024D       loc_44124D
 0001:00040252       ___sbh_alloc_new_group
 0001:00040267       loc_441267
 0001:0004026A       loc_44126A
 0001:00040283       loc_441283
 0001:000402B6       loc_4412B6
 0001:000402CE       loc_4412CE
 0001:00040306       loc_441306
 0001:00040343       loc_441343
 0001:00040353       loc_441353
 0001:00040358       ___sbh_alloc_new_region
 0001:0004038D       loc_44138D
 0001:0004039E       loc_44139E
 0001:000403C5       loc_4413C5
 0001:000403C9       loc_4413C9
 0001:000403F5       loc_4413F5
 0001:0004040C       loc_44140C
 0001:0004040F       ___sbh_find_block
 0001:00040421       loc_441421
 0001:00040433       loc_441433
 0001:00040439       locret_441439
 0001:0004043A       ___sbh_free_block
 0001:0004049D       loc_44149D
 0001:000404C8       loc_4414C8
 0001:000404E4       loc_4414E4
 0001:000404E7       loc_4414E7
 0001:00040505       loc_441505
 0001:00040513       loc_441513
 0001:00040538       loc_441538
 0001:0004054A       loc_44154A
 0001:0004057A       loc_44157A
 0001:00040594       loc_441594
 0001:000405AC       loc_4415AC
 0001:000405B1       loc_4415B1
 0001:000405B4       loc_4415B4
 0001:000405C2       loc_4415C2
 0001:00040608       loc_441608
 0001:00040619       loc_441619
 0001:0004062F       loc_44162F
 0001:00040642       loc_441642
 0001:000406D0       loc_4416D0
 0001:00040735       loc_441735
 0001:0004073F       loc_44173F
 0001:0004074D       loc_44174D
 0001:0004074E       loc_44174E
 0001:00040752       ___sbh_heap_init
 0001:0004076F       loc_44176F
 0001:0004079A       ___sbh_resize_block
 0001:0004080F       loc_44180F
 0001:0004083B       loc_44183B
 0001:0004085A       loc_44185A
 0001:00040894       loc_441894
 0001:000408E0       loc_4418E0
 0001:000408E8       loc_4418E8
 0001:000408FE       loc_4418FE
 0001:00040908       loc_441908
 0001:00040911       loc_441911
 0001:00040923       loc_441923
 0001:00040926       loc_441926
 0001:00040935       loc_441935
 0001:0004093C       loc_44193C
 0001:00040967       loc_441967
 0001:00040980       loc_441980
 0001:000409AB       loc_4419AB
 0001:000409C7       loc_4419C7
 0001:000409CA       loc_4419CA
 0001:000409F1       loc_4419F1
 0001:00040A37       loc_441A37
 0001:00040A3F       loc_441A3F
 0001:00040A55       loc_441A55
 0001:00040A5F       loc_441A5F
 0001:00040A68       loc_441A68
 0001:00040A71       loc_441A71
 0001:00040A74       loc_441A74
 0001:00040A79       sub_441A79
 0001:00040A82       loc_441A82
 0001:00040A87       ___security_init_cookie
 0001:00040A9D       loc_441A9D
 0001:00040AEA       loc_441AEA
 0001:00040AEB       locret_441AEB
 0001:00040AED       ___security_error_handler
 0001:00040B1C       loc_441B1C
 0001:00040B25       loc_441B25
 0001:00040B29       loc_441B29
 0001:00040B2E       loc_441B2E
 0001:00040B4A       loc_441B4A
 0001:00040B5E       loc_441B5E
 0001:00040B8B       loc_441B8B
 0001:00040BC7       loc_441BC7
 0001:00040C2D       loc_441C2D
 0001:00040C35       __setmode
 0001:00040C7C       loc_441C7C
 0001:00040C8F       loc_441C8F
 0001:00040C9C       loc_441C9C
 0001:00040CA8       loc_441CA8
 0001:00040CB2       loc_441CB2
 0001:00040CB7       __splitpath
 0001:00040CEF       loc_441CEF
 0001:00040CF3       loc_441CF3
 0001:00040CFD       loc_441CFD
 0001:00040D10       loc_441D10
 0001:00040D21       loc_441D21
 0001:00040D35       loc_441D35
 0001:00040D3B       loc_441D3B
 0001:00040D59       loc_441D59
 0001:00040D70       loc_441D70
 0001:00040D75       loc_441D75
 0001:00040D7F       loc_441D7F
 0001:00040D98       loc_441D98
 0001:00040DAF       loc_441DAF
 0001:00040DBF       loc_441DBF
 0001:00040DD2       loc_441DD2
 0001:00040DE1       loc_441DE1
 0001:00040DF0       loc_441DF0
 0001:00040DFA       loc_441DFA
 0001:00040DFF       __setargv
 0001:00040E16       loc_441E16
 0001:00040E45       loc_441E45
 0001:00040E47       loc_441E47
 0001:00040E77       loc_441E77
 0001:00040E9C       loc_441E9C
 0001:00040EA1       __setenvp
 0001:00040EB3       loc_441EB3
 0001:00040EC1       loc_441EC1
 0001:00040EC6       loc_441EC6
 0001:00040ED1       loc_441ED1
 0001:00040EF1       loc_441EF1
 0001:00040EF6       loc_441EF6
 0001:00040EFF       loc_441EFF
 0001:00040F27       loc_441F27
 0001:00040F29       loc_441F29
 0001:00040F4C       loc_441F4C
 0001:00040F4E       loc_441F4E
 0001:00040F52       loc_441F52
 0001:00040F68       _setvbuf
 0001:00040F93       loc_441F93
 0001:00040F98       loc_441F98
 0001:00040FC6       loc_441FC6
 0001:00040FE4       loc_441FE4
 0001:00040FEC       loc_441FEC
 0001:00040FF2       loc_441FF2
 0001:00040FF5       loc_441FF5
 0001:00041001       $done$19015
 0001:00041005       loc_442005
 0001:00041009       __getstream
 0001:00041022       loc_442022
 0001:00041036       loc_442036
 0001:0004103B       loc_44203B
 0001:0004105F       loc_44205F
 0001:00041075       loc_442075
 0001:0004107B       ___strgtold12
 0001:000410B8       loc_4420B8
 0001:000410CE       loc_4420CE
 0001:000410D1       loc_4420D1
 0001:000410D4       loc_4420D4
 0001:000410E7       loc_4420E7
 0001:000410F1       loc_4420F1
 0001:000410F8       loc_4420F8
 0001:00041100       loc_442100
 0001:00041107       loc_442107
 0001:0004111C       loc_44211C
 0001:00041122       loc_442122
 0001:0004112E       loc_44212E
 0001:00041137       loc_442137
 0001:00041144       loc_442144
 0001:0004115F       loc_44215F
 0001:00041173       loc_442173
 0001:0004117A       loc_44217A
 0001:00041182       loc_442182
 0001:00041190       loc_442190
 0001:000411A5       loc_4421A5
 0001:000411AC       loc_4421AC
 0001:000411AF       loc_4421AF
 0001:000411C8       loc_4421C8
 0001:000411D4       loc_4421D4
 0001:000411EE       loc_4421EE
 0001:000411F1       loc_4421F1
 0001:000411F6       loc_4421F6
 0001:000411FE       loc_4421FE
 0001:00041205       loc_442205
 0001:00041213       loc_442213
 0001:00041219       loc_442219
 0001:0004121E       loc_44221E
 0001:00041237       loc_442237
 0001:00041243       loc_442243
 0001:0004125E       loc_44225E
 0001:00041263       loc_442263
 0001:0004127A       loc_44227A
 0001:00041296       loc_442296
 0001:000412A2       loc_4422A2
 0001:000412AA       loc_4422AA
 0001:000412BA       loc_4422BA
 0001:000412CF       loc_4422CF
 0001:000412D3       loc_4422D3
 0001:000412D8       loc_4422D8
 0001:000412DB       loc_4422DB
 0001:000412F4       loc_4422F4
 0001:000412FE       loc_4422FE
 0001:00041300       loc_442300
 0001:00041301       loc_442301
 0001:00041307       loc_442307
 0001:0004130C       loc_44230C
 0001:00041314       loc_442314
 0001:00041330       loc_442330
 0001:0004133C       loc_44233C
 0001:0004133E       loc_44233E
 0001:00041344       loc_442344
 0001:00041348       loc_442348
 0001:00041356       loc_442356
 0001:0004135F       loc_44235F
 0001:00041377       loc_442377
 0001:00041384       loc_442384
 0001:0004139F       loc_44239F
 0001:000413A4       loc_4423A4
 0001:000413A7       loc_4423A7
 0001:000413BF       loc_4423BF
 0001:000413CC       loc_4423CC
 0001:000413D9       loc_4423D9
 0001:000413DB       loc_4423DB
 0001:000413FB       loc_4423FB
 0001:00041407       loc_442407
 0001:0004140A       loc_44240A
 0001:00041416       loc_442416
 0001:0004141C       loc_44241C
 0001:00041441       loc_442441
 0001:0004144C       loc_44244C
 0001:00041454       loc_442454
 0001:00041480       loc_442480
 0001:00041489       loc_442489
 0001:000414A0       loc_4424A0
 0001:000414A7       loc_4424A7
 0001:000414AF       loc_4424AF
 0001:000414D2       off_4424D2
 0001:00041502       __stricmp
 0001:00041510       loc_442510
 0001:0004151B       loc_44251B
 0001:0004153D       loc_44253D
 0001:00041545       __strnicmp
 0001:0004155D       loc_44255D
 0001:00041566       loc_442566
 0001:0004158D       loc_44258D
 0001:00041596       loc_442596
 0001:0004159A       ___ld12mul
 0001:0004160D       loc_44260D
 0001:0004162F       loc_44262F
 0001:00041631       loc_442631
 0001:00041647       loc_442647
 0001:00041654       loc_442654
 0001:00041664       loc_442664
 0001:00041680       loc_442680
 0001:000416AB       loc_4426AB
 0001:000416B8       loc_4426B8
 0001:000416D6       loc_4426D6
 0001:000416F4       loc_4426F4
 0001:000416FB       loc_4426FB
 0001:00041714       loc_442714
 0001:0004171D       loc_44271D
 0001:00041734       loc_442734
 0001:0004174B       loc_44274B
 0001:00041772       loc_442772
 0001:00041778       loc_442778
 0001:0004177D       loc_44277D
 0001:00041780       loc_442780
 0001:0004179E       loc_44279E
 0001:000417A4       loc_4427A4
 0001:000417BF       loc_4427BF
 0001:000417CC       ___multtenpow12
 0001:000417F7       loc_4427F7
 0001:00041802       loc_442802
 0001:00041809       loc_442809
 0001:00041833       loc_442833
 0001:00041840       loc_442840
 0001:00041847       loc_442847
 0001:00041852       __ms_p5_mp_test_fdiv
 0001:00041876       loc_442876
 0001:0004187B       loc_44287B
 0001:000418B7       loc_4428B7
 0001:000418BB       _tolower
 0001:000418E5       loc_4428E5
 0001:00041904       loc_442904
 0001:0004190F       loc_44290F
 0001:00041913       loc_442913
 0001:00041937       loc_442937
 0001:00041940       loc_442940
 0001:0004196F       loc_44296F
 0001:0004197C       loc_44297C
 0001:00041989       loc_442989
 0001:0004198B       loc_44298B
 0001:00041990       _toupper
 0001:000419B8       loc_4429B8
 0001:000419D5       loc_4429D5
 0001:000419E1       loc_4429E1
 0001:000419E5       loc_4429E5
 0001:00041A09       loc_442A09
 0001:00041A13       loc_442A13
 0001:00041A48       loc_442A48
 0001:00041A55       loc_442A55
 0001:00041A62       loc_442A62
 0001:00041A64       loc_442A64
 0001:00041A67       _wctomb
 0001:00041A78       loc_442A78
 0001:00041A92       loc_442A92
 0001:00041ABD       loc_442ABD
 0001:00041ACA       loc_442ACA
 0001:00041ACD       __wincmdln
 0001:00041ADE       loc_442ADE
 0001:00041AED       loc_442AED
 0001:00041AFB       loc_442AFB
 0001:00041B08       loc_442B08
 0001:00041B17       loc_442B17
 0001:00041B1A       loc_442B1A
 0001:00041B1F       loc_442B1F
 0001:00041B25       loc_442B25
 0001:00041B2A       __amsg_exit
 0001:00041B38       loc_442B38
 0001:00041B4F       start
 0001:00041BAF       loc_442BAF
 0001:00041BEA       loc_442BEA
 0001:00041BEF       loc_442BEF
 0001:00041C02       loc_442C02
 0001:00041C10       loc_442C10
 0001:00041C16       loc_442C16
 0001:00041C2F       loc_442C2F
 0001:00041C42       loc_442C42
 0001:00041C5B       loc_442C5B
 0001:00041C81       loc_442C81
 0001:00041C92       loc_442C92
 0001:00041CA8       loc_442CA8
 0001:00041CC9       loc_442CC9
 0001:00041CCC       loc_442CCC
 0001:00041CEA       loc_442CEA
 0001:00041CF1       loc_442CF1
 0001:00041D05       loc_442D05
 0001:00041D17       loc_442D17
 0001:00041D1C       loc_442D1C
 0001:00041D2B       __XcptFilter
 0001:00041D3D       loc_442D3D
 0001:00041D52       loc_442D52
 0001:00041D64       loc_442D64
 0001:00041D66       loc_442D66
 0001:00041D8A       loc_442D8A
 0001:00041DCC       loc_442DCC
 0001:00041DD5       loc_442DD5
 0001:00041DF1       loc_442DF1
 0001:00041E05       loc_442E05
 0001:00041E19       loc_442E19
 0001:00041E2D       loc_442E2D
 0001:00041E41       loc_442E41
 0001:00041E55       loc_442E55
 0001:00041E67       loc_442E67
 0001:00041E7A       loc_442E7A
 0001:00041E81       loc_442E81
 0001:00041E8A       loc_442E8A
 0001:00041E8F       loc_442E8F
 0001:00041E98       loc_442E98
 0001:00041E9C       __write
 0001:00041EFF       loc_442EFF
 0001:00041F06       loc_442F06
 0001:00041F17       loc_442F17
 0001:00041F40       loc_442F40
 0001:00041F4C       loc_442F4C
 0001:00041F6A       loc_442F6A
 0001:00041F79       loc_442F79
 0001:00041FB9       loc_442FB9
 0001:00041FC5       loc_442FC5
 0001:00041FC7       loc_442FC7
 0001:00041FEC       loc_442FEC
 0001:00042017       loc_443017
 0001:00042025       loc_443025
 0001:00042033       loc_443033
 0001:0004204B       loc_44304B
 0001:0004205D       loc_44305D
 0001:00042062       loc_443062
 0001:00042069       loc_443069
 0001:00042073       loc_443073
 0001:00042076       loc_443076
 0001:0004208C       _$I10_OUTPUT
 0001:000420F6       loc_4430F6
 0001:000420FA       loc_4430FA
 0001:0004210F       loc_44310F
 0001:00042128       loc_443128
 0001:00042137       loc_443137
 0001:00042151       loc_443151
 0001:00042160       loc_443160
 0001:0004216D       loc_44316D
 0001:00042178       loc_443178
 0001:0004217D       loc_44317D
 0001:0004218C       loc_44318C
 0001:000421ED       loc_4431ED
 0001:00042202       loc_443202
 0001:0004220B       loc_44320B
 0001:00042213       loc_443213
 0001:00042229       loc_443229
 0001:00042246       loc_443246
 0001:00042253       loc_443253
 0001:00042263       loc_443263
 0001:000422B0       loc_4432B0
 0001:000422BE       loc_4432BE
 0001:000422C7       loc_4432C7
 0001:000422CB       loc_4432CB
 0001:000422D3       loc_4432D3
 0001:000422D5       loc_4432D5
 0001:000422E4       loc_4432E4
 0001:000422E7       loc_4432E7
 0001:000422F4       loc_4432F4
 0001:000422FA       loc_4432FA
 0001:000422FE       loc_4432FE
 0001:00042305       loc_443305
 0001:0004231A       GetFileVersionInfoA
 0001:00042320       GetFileVersionInfoSizeA
 0001:00042326       VerQueryValueA
 0001:0004232C       gethostbyname
 0001:00042332       gethostname
 0001:00042338       inet_ntoa
 0001:0004233E       WSACleanup
 0001:00042344       WSAStartup
 0001:0004234A       sub_44334A
 0001:00042383       loc_443383
 0001:000423B1       loc_4433B1
 0001:000423C2       loc_4433C2
 0001:000423C5       loc_4433C5
 0001:000423C7       loc_4433C7
 0001:000423CC       loc_4433CC
 0001:0004243B       loc_44343B
 0001:00042461       loc_443461
 0001:0004246C       loc_44346C
 0001:0004248A       loc_44348A
 0001:000424AF       loc_4434AF
 0001:000424BC       loc_4434BC
 0001:000424CE       loc_4434CE
 0001:00042502       sub_443502
 0001:00042533       loc_443533
 0001:00042574       loc_443574
 0001:00042585       loc_443585
 0001:00042597       loc_443597
 0001:0004259B       loc_44359B
 0001:000425A8       loc_4435A8
 0001:000425AC       loc_4435AC
 0001:000425BA       loc_4435BA
 0001:000425BC       loc_4435BC
 0001:000425CA       loc_4435CA
 0001:000425D8       loc_4435D8
 0001:000425E5       loc_4435E5
 0001:000425F0       loc_4435F0
 0001:000425FB       loc_4435FB
 0001:00042603       loc_443603
 0001:0004262D       loc_44362D
 0001:00042688       loc_443688
 0001:0004268B       loc_44368B
 0001:0004268C       loc_44368C
 0001:0004269F       loc_44369F
 0001:000426AB       loc_4436AB
 0001:000426E5       loc_4436E5
 0001:000426F1       loc_4436F1
 0001:000426F2       loc_4436F2
 0001:000426F8       sub_4436F8
 0001:00042718       loc_443718
 0001:00042729       loc_443729
 0001:00042743       loc_443743
 0001:00042745       loc_443745
 0001:0004274A       sub_44374A
 0001:00042765       loc_443765
 0001:00042770       loc_443770
 0001:0004278E       loc_44378E
 0001:00042791       loc_443791
 0001:00042796       sub_443796
 0001:000427B8       loc_4437B8
 0001:000427D1       loc_4437D1
 0001:000427EE       loc_4437EE
 0001:000427F4       loc_4437F4
 0001:000427F7       loc_4437F7
 0001:00042815       loc_443815
 0001:0004281D       loc_44381D
 0001:00042823       loc_443823
 0001:00042838       loc_443838
 0001:00042845       loc_443845
 0001:0004284E       sub_44384E
 0001:0004285F       loc_44385F
 0001:00042879       loc_443879
 0001:00042899       loc_443899
 0001:000428BE       loc_4438BE
 0001:000428C5       loc_4438C5
 0001:000428D8       loc_4438D8
 0001:000428E7       loc_4438E7
 0001:0004290D       loc_44390D
 0001:00042921       loc_443921
 0001:00042926       loc_443926
 0001:00042930       loc_443930
 0001:0004293A       loc_44393A
 0001:00042964       loc_443964
 0001:00042983       loc_443983
 0001:0004298C       loc_44398C
 0001:00042997       loc_443997
 0001:0004299A       loc_44399A
 0001:000429A1       sub_4439A1
 0001:00042A4F       loc_443A4F
 0001:00042A56       loc_443A56
 0001:00042A5D       loc_443A5D
 0001:00042A72       loc_443A72
 0001:00042AB1       loc_443AB1
 0001:00042AD3       loc_443AD3
 0001:00042ADB       loc_443ADB
 0001:00042ADD       loc_443ADD
 0001:00042ADE       loc_443ADE
 0001:00042AE3       sub_443AE3
 0001:00042AF2       loc_443AF2
 0001:00042B13       loc_443B13
 0001:00042B32       loc_443B32
 0001:00042B54       loc_443B54
 0001:00042B63       loc_443B63
 0001:00042B65       loc_443B65
 0001:00042B6B       sub_443B6B
 0001:00042B9A       loc_443B9A
 0001:00042BBE       loc_443BBE
 0001:00042BC8       loc_443BC8
 0001:00042BCC       loc_443BCC
 0001:00042BD5       loc_443BD5
 0001:00042BDA       sub_443BDA
 0001:00042BE7       loc_443BE7
 0001:00042C02       loc_443C02
 0001:00042C25       loc_443C25
 0001:00042C2E       loc_443C2E
 0001:00042C2F       loc_443C2F
 0001:00042C33       sub_443C33
 0001:00042C60       loc_443C60
 0001:00042C76       loc_443C76
 0001:00042C77       loc_443C77
 0001:00042C79       sub_443C79
 0001:00042C81       loc_443C81
 0001:00042C84       loc_443C84
 0001:00042C98       loc_443C98
 0001:00042CC2       loc_443CC2
 0001:00042CE6       loc_443CE6
 0001:00042CFC       loc_443CFC
 0001:00042D08       loc_443D08
 0001:00042D30       loc_443D30
 0001:00042D48       loc_443D48
 0001:00042D51       loc_443D51
 0001:00042D69       loc_443D69
 0001:00042D72       loc_443D72
 0001:00042D88       loc_443D88
 0001:00042DA5       loc_443DA5
 0001:00042DC7       loc_443DC7
 0001:00042DD9       loc_443DD9
 0001:00042DE8       loc_443DE8
 0001:00042DF2       loc_443DF2
 0001:00042E2D       loc_443E2D
 0001:00042E43       loc_443E43
 0001:00042E61       loc_443E61
 0001:00042E6F       loc_443E6F
 0001:00042E74       loc_443E74
 0001:00042E75       loc_443E75
 0001:00042E9E       loc_443E9E
 0001:00042EA0       loc_443EA0
 0001:00042EA1       loc_443EA1
 0001:00042EA6       sub_443EA6
 0001:00042EAE       loc_443EAE
 0001:00042EB1       loc_443EB1
 0001:00042EC4       loc_443EC4
 0001:00042F0F       loc_443F0F
 0001:00042F13       loc_443F13
 0001:00042F37       loc_443F37
 0001:00042F53       loc_443F53
 0001:00042F5F       loc_443F5F
 0001:00042F60       loc_443F60
 0001:00042F67       loc_443F67
 0001:00042F6B       loc_443F6B
 0001:00042FBA       loc_443FBA
 0001:00042FD0       loc_443FD0
 0001:00042FE6       loc_443FE6
 0001:00042FF5       loc_443FF5
 0001:00043014       sub_444014
 0001:00043065       loc_444065
 0001:0004307F       loc_44407F
 0001:000430A0       loc_4440A0
 0001:000430B1       loc_4440B1
 0001:000430FC       loc_4440FC
 0001:00043106       loc_444106
 0001:0004311A       loc_44411A
 0001:00043137       loc_444137
 0001:00043150       loc_444150
 0001:00043166       loc_444166
 0001:00043192       loc_444192
 0001:000431A7       loc_4441A7
 0001:000431C6       loc_4441C6
 0001:000431DB       loc_4441DB
 0001:000431E2       loc_4441E2
 0001:0004320D       loc_44420D
 0001:00043210       loc_444210
 0001:00043211       loc_444211
 0001:00043215       sub_444215
 0001:0004326E       loc_44426E
 0001:00043295       loc_444295
 0001:000432C8       loc_4442C8
 0001:000432DE       loc_4442DE
 0001:000432E8       loc_4442E8
 0001:00043315       loc_444315
 0001:0004333D       loc_44433D
 0001:0004338E       loc_44438E
 0001:0004339B       loc_44439B
 0001:000433B9       loc_4443B9
 0001:000433E4       loc_4443E4
 0001:00043404       loc_444404
 0001:00043409       loc_444409
 0001:0004341E       loc_44441E
 0001:0004342C       loc_44442C
 0001:0004342E       loc_44442E
 0001:00043459       loc_444459
 0001:0004346A       loc_44446A
 0001:00043480       loc_444480
 0001:00043482       loc_444482
 0001:00043485       loc_444485
 0001:00043498       loc_444498
 0001:000434A5       loc_4444A5
 0001:000434E1       loc_4444E1
 0001:000434FD       loc_4444FD
 0001:000434FF       loc_4444FF
 0001:00043504       sub_444504
 0001:00043514       loc_444514
 0001:00043531       loc_444531
 0001:00043535       loc_444535
 0001:0004353D       locret_44453D
 0001:00043540       sub_444540
 0001:0004357B       loc_44457B
 0001:000436D1       loc_4446D1
 0001:000436DB       loc_4446DB
 0001:000436E1       loc_4446E1
 0001:000436EE       loc_4446EE
 0001:00043716       loc_444716
 0001:00043740       loc_444740
 0001:00043761       loc_444761
 0001:0004376A       loc_44476A
 0001:000437D7       loc_4447D7
 0001:000437D9       loc_4447D9
 0001:0004381A       loc_44481A
 0001:0004383A       loc_44483A
 0001:00043869       loc_444869
 0001:000438CC       loc_4448CC
 0001:0004390D       loc_44490D
 0001:0004394C       loc_44494C
 0001:00043950       loc_444950
 0001:00043967       loc_444967
 0001:000439A9       loc_4449A9
 0001:000439E0       loc_4449E0
 0001:000439FB       loc_4449FB
 0001:00043A24       loc_444A24
 0001:00043A2E       loc_444A2E
 0001:00043A36       loc_444A36
 0001:00043A6F       loc_444A6F
 0001:00043A8A       loc_444A8A
 0001:00043A99       loc_444A99
 0001:00043AC6       loc_444AC6
 0001:00043AD3       loc_444AD3
 0001:00043AD8       loc_444AD8
 0001:00043AE7       loc_444AE7
 0001:00043B19       loc_444B19
 0001:00043B65       loc_444B65
 0001:00043B97       loc_444B97
 0001:00043BA1       loc_444BA1
 0001:00043BB5       loc_444BB5
 0001:00043BD5       loc_444BD5
 0001:00043C0C       loc_444C0C
 0001:00043C21       loc_444C21
 0001:00043C38       loc_444C38
 0001:00043C44       loc_444C44
 0001:00043C5B       loc_444C5B
 0001:00043C93       loc_444C93
 0001:00043CA8       loc_444CA8
 0001:00043CAD       loc_444CAD
 0001:00043CE4       loc_444CE4
 0001:00043D08       loc_444D08
 0001:00043D25       loc_444D25
 0001:00043D44       loc_444D44
 0001:00043D57       loc_444D57
 0001:00043D72       loc_444D72
 0001:00043D8C       loc_444D8C
 0001:00043DA7       loc_444DA7
 0001:00043DBF       loc_444DBF
 0001:00043DEC       loc_444DEC
 0001:00043DED       loc_444DED
 0001:00043DFA       loc_444DFA
 0001:00043DFC       loc_444DFC
 0001:00043E04       sub_444E04
 0001:00043E06       loc_444E06
 0001:00043E18       loc_444E18
 0001:00043E1B       sub_444E1B
 0001:00043E34       loc_444E34
 0001:00043E4A       loc_444E4A
 0001:00043E60       loc_444E60
 0001:00043E76       loc_444E76
 0001:00043E8C       loc_444E8C
 0001:00043E8E       sub_444E8E
 0001:00043E9B       loc_444E9B
 0001:00043EA6       locret_444EA6
 0001:00043EA7       sub_444EA7
 0001:00043EC5       loc_444EC5
 0001:00043F22       loc_444F22
 0001:00043F60       loc_444F60
 0001:00043F66       loc_444F66
 0001:00043F86       loc_444F86
 0001:00043F9D       loc_444F9D
 0001:00044005       loc_445005
 0001:00044018       loc_445018
 0001:00044019       loc_445019
 0001:0004401C       StartAddress
 0001:00044032       loc_445032
 0001:00044051       loc_445051
 0001:00044054       loc_445054
 0001:00044077       loc_445077
 0001:00044096       loc_445096
 0001:000440B0       loc_4450B0
 0001:000440D0       loc_4450D0
 0001:000440EF       loc_4450EF
 0001:00044109       loc_445109
 0001:00044121       loc_445121
 0001:0004414B       sub_44514B
 0001:0004416A       loc_44516A
 0001:0004416D       loc_44516D
 0001:00044170       sub_445170
 0001:0004418C       loc_44518C
 0001:00044190       sub_445190
 0001:000441A0       loc_4451A0
 0001:000441A8       loc_4451A8
 0001:000441AC       loc_4451AC
 0001:000441AF       sub_4451AF
 0001:000441B9       loc_4451B9
 0001:000441CE       loc_4451CE
 0001:000441ED       loc_4451ED
 0001:000441F1       loc_4451F1
 0001:00044223       loc_445223
 0001:0004422E       sub_44522E
 0001:00044267       loc_445267
 0001:0004428C       loc_44528C
 0001:000442B8       loc_4452B8
 0001:000442F8       loc_4452F8
 0001:000442FD       loc_4452FD
 0001:0004430D       loc_44530D
 0001:00044315       loc_445315
 0001:0004432F       loc_44532F
 0001:00044362       loc_445362
 0001:000443C7       loc_4453C7
 0001:000443D2       loc_4453D2
 0001:0004441A       loc_44541A
 0001:0004441D       loc_44541D
 0001:0004442D       loc_44542D
 0001:0004444E       loc_44544E
 0001:0004445E       loc_44545E
 0001:0004447A       loc_44547A
 0001:0004448A       loc_44548A
 0001:0004449A       loc_44549A
 0001:000444AA       loc_4454AA
 0001:000444BA       loc_4454BA
 0001:000444CA       loc_4454CA
 0001:000444DA       loc_4454DA
 0001:000444F2       loc_4454F2
 0001:00044502       loc_445502
 0001:00044512       loc_445512
 0001:00044522       loc_445522
 0001:00044525       loc_445525
 0001:00044530       loc_445530
 0001:0004453B       loc_44553B
 0001:00044557       loc_445557
 0001:0004455C       loc_44555C
 0001:0004455D       loc_44555D
 0001:00044567       loc_445567
 0001:00044578       loc_445578
 0001:000445F5       loc_4455F5
 0001:000445FB       loc_4455FB
 0001:00044623       loc_445623
 0001:0004462F       loc_44562F
 0001:00044667       loc_445667
 0001:00044673       loc_445673
 0001:00044698       loc_445698
 0001:000446A6       loc_4456A6
 0001:000446B4       loc_4456B4
 0001:000446CA       loc_4456CA
 0001:000446E6       loc_4456E6
 0001:000446EE       loc_4456EE
 0001:000446F6       loc_4456F6
 0001:000446FC       loc_4456FC
 0001:0004471B       loc_44571B
 0001:00044731       loc_445731
 0001:0004473D       loc_44573D
 0001:0004476D       loc_44576D
 0001:00044773       loc_445773
 0001:0004479E       loc_44579E
 0001:000447A2       loc_4457A2
 0001:000447AA       loc_4457AA
 0001:000447B8       loc_4457B8
 0001:000447EB       loc_4457EB
 0001:000447EE       loc_4457EE
 0001:0004481F       loc_44581F
 0001:00044822       loc_445822
 0001:0004483C       loc_44583C
 0001:0004483F       loc_44583F
 0001:00044859       loc_445859
 0001:0004485C       loc_44585C
 0001:00044864       loc_445864
 0001:0004488D       loc_44588D
 0001:0004489C       loc_44589C
 0001:0004489F       loc_44589F
 0001:000448C4       loc_4458C4
 0001:000448D6       loc_4458D6
 0001:000448FA       loc_4458FA
 0001:0004490F       loc_44590F
 0001:00044938       loc_445938
 0001:00044958       loc_445958
 0001:00044962       loc_445962
 0001:0004498B       loc_44598B
 0001:000449A2       loc_4459A2
 0001:000449B3       loc_4459B3
 0001:000449D1       loc_4459D1
 0001:000449D7       loc_4459D7
 0001:000449E0       loc_4459E0
 0001:000449F2       loc_4459F2
 0001:00044A0B       loc_445A0B
 0001:00044A11       loc_445A11
 0001:00044A32       loc_445A32
 0001:00044A47       loc_445A47
 0001:00044A49       loc_445A49
 0001:00044A5F       loc_445A5F
 0001:00044A63       loc_445A63
 0001:00044A81       loc_445A81
 0001:00044AAF       loc_445AAF
 0001:00044ADD       loc_445ADD
 0001:00044AF7       loc_445AF7
 0001:00044B37       loc_445B37
 0001:00044B3F       loc_445B3F
 0001:00044B5C       loc_445B5C
 0001:00044B7A       loc_445B7A
 0001:00044B85       loc_445B85
 0001:00044B90       loc_445B90
 0001:00044B9E       loc_445B9E
 0001:00044BC0       loc_445BC0
 0001:00044BD9       loc_445BD9
 0001:00044BF5       loc_445BF5
 0001:00044C27       loc_445C27
 0001:00044C3A       loc_445C3A
 0001:00044C4F       loc_445C4F
 0001:00044C62       loc_445C62
 0001:00044C68       loc_445C68
 0001:00044C8B       loc_445C8B
 0001:00044C9D       loc_445C9D
 0001:00044CAD       loc_445CAD
 0001:00044CAF       loc_445CAF
 0001:00044CBC       loc_445CBC
 0001:00044CD1       loc_445CD1
 0001:00044D09       loc_445D09
 0001:00044D18       loc_445D18
 0001:00044D1B       loc_445D1B
 0001:00044D2D       loc_445D2D
 0001:00044D3C       loc_445D3C
 0001:00044D45       loc_445D45
 0001:00044D55       loc_445D55
 0001:00044D65       loc_445D65
 0001:00044D89       loc_445D89
 0001:00044D8D       loc_445D8D
 0001:00044D8F       loc_445D8F
 0001:00044DB4       loc_445DB4
 0001:00044DE6       loc_445DE6
 0001:00044DF6       loc_445DF6
 0001:00044E0A       loc_445E0A
 0001:00044E1D       loc_445E1D
 0001:00044E23       loc_445E23
 0001:00044E46       loc_445E46
 0001:00044E56       loc_445E56
 0001:00044E58       loc_445E58
 0001:00044E65       loc_445E65
 0001:00044E77       loc_445E77
 0001:00044E97       loc_445E97
 0001:00044ED2       loc_445ED2
 0001:00044EE1       loc_445EE1
 0001:00044EF4       loc_445EF4
 0001:00044F03       loc_445F03
 0001:00044F0C       loc_445F0C
 0001:00044F1C       loc_445F1C
 0001:00044F22       loc_445F22
 0001:00044F7B       loc_445F7B
 0001:00044F82       loc_445F82
 0001:00044F92       loc_445F92
 0001:00044F9B       loc_445F9B
 0001:00044FC0       loc_445FC0
 0001:00044FCC       loc_445FCC
 0001:00044FF1       loc_445FF1
 0001:0004501D       loc_44601D
 0001:00045023       loc_446023
 0001:00045035       loc_446035
 0001:00045051       loc_446051
 0001:00045071       loc_446071
 0001:00045091       loc_446091
 0001:000450B1       loc_4460B1
 0001:000450D2       loc_4460D2
 0001:00045100       loc_446100
 0001:00045106       loc_446106
 0001:0004511E       loc_44611E
 0001:00045131       loc_446131
 0001:0004513E       loc_44613E
 0001:00045161       loc_446161
 0001:00045189       loc_446189
 0001:000451A0       loc_4461A0
 0001:000451E2       loc_4461E2
 0001:000451F9       loc_4461F9
 0001:0004520D       loc_44620D
 0001:00045210       loc_446210
 0001:00045229       loc_446229
 0001:00045261       loc_446261
 0001:00045264       loc_446264
 0001:0004526E       loc_44626E
 0001:00045285       loc_446285
 0001:000452C8       loc_4462C8
 0001:000452D0       loc_4462D0
 0001:000452DA       loc_4462DA
 0001:000452F8       loc_4462F8
 0001:000452FB       loc_4462FB
 0001:0004531C       loc_44631C
 0001:00045325       loc_446325
 0001:0004532B       loc_44632B
 0001:00045354       loc_446354
 0001:0004535E       loc_44635E
 0001:0004536A       loc_44636A
 0001:0004539B       loc_44639B
 0001:000453AE       loc_4463AE
 0001:000453C8       loc_4463C8
 0001:000453E3       loc_4463E3
 0001:0004540A       loc_44640A
 0001:0004541E       loc_44641E
 0001:0004542A       loc_44642A
 0001:0004544D       loc_44644D
 0001:0004545D       loc_44645D
 0001:00045469       loc_446469
 0001:00045477       loc_446477
 0001:00045480       loc_446480
 0001:0004549F       loc_44649F
 0001:000454A2       loc_4464A2
 0001:000454E0       loc_4464E0
 0001:000454EB       loc_4464EB
 0001:0004550F       loc_44650F
 0001:0004552A       loc_44652A
 0001:00045540       loc_446540
 0001:00045559       loc_446559
 0001:00045580       loc_446580
 0001:000455B3       loc_4465B3
 0001:000455C1       loc_4465C1
 0001:000455C5       loc_4465C5
 0001:000455D0       loc_4465D0
 0001:000455D4       loc_4465D4
 0001:000455E0       loc_4465E0
 0001:000455E2       loc_4465E2
 0001:000455F0       loc_4465F0
 0001:000455FB       loc_4465FB
 0001:0004560B       loc_44660B
 0001:00045619       loc_446619
 0001:00045624       loc_446624
 0001:00045633       loc_446633
 0001:00045654       loc_446654
 0001:0004566E       loc_44666E
 0001:0004567D       loc_44667D
 0001:00045680       loc_446680
 0001:00045684       loc_446684
 0001:0004569A       loc_44669A
 0001:0004569F       loc_44669F
 0001:000456C9       loc_4466C9
 0001:000456D0       loc_4466D0
 0001:000456D5       loc_4466D5
 0001:000456DB       loc_4466DB
 0001:00045727       loc_446727
 0001:00045733       loc_446733
 0001:00045746       loc_446746
 0001:00045759       loc_446759
 0001:00045762       loc_446762
 0001:00045765       loc_446765
 0001:0004576D       loc_44676D
 0001:00045774       loc_446774
 0001:00045785       loc_446785
 0001:0004579F       loc_44679F
 0001:000457A2       loc_4467A2
 0001:000457C3       loc_4467C3
 0001:000457C8       loc_4467C8
 0001:000457E1       loc_4467E1
 0001:000457EE       loc_4467EE
 0001:0004580D       loc_44680D
 0001:0004581E       loc_44681E
 0001:0004582A       loc_44682A
 0001:0004582F       loc_44682F
 0001:0004583B       loc_44683B
 0001:00045858       loc_446858
 0001:0004586E       loc_44686E
 0001:00045880       loc_446880
 0001:00045889       loc_446889
 0001:0004588C       loc_44688C
 0001:0004588D       loc_44688D
 0001:0004588E       loc_44688E
 0001:00045891       loc_446891
 0001:00045894       loc_446894
 0001:0004589A       loc_44689A
 0001:000458A6       loc_4468A6
 0001:000458AE       loc_4468AE
 0001:000458B3       sub_4468B3
 0001:000458D6       loc_4468D6
 0001:000458E8       loc_4468E8
 0001:000458FE       loc_4468FE
 0001:00045902       loc_446902
 0001:00045923       loc_446923
 0001:00045936       loc_446936
 0001:00045951       loc_446951
 0001:0004595E       loc_44695E
 0001:00045969       loc_446969
 0001:0004596C       loc_44696C
 0001:00045991       loc_446991
 0001:00045993       loc_446993
 0001:000459AF       loc_4469AF
 0001:000459CA       loc_4469CA
 0001:000459DD       loc_4469DD
 0001:000459E0       loc_4469E0
 0001:00045A03       loc_446A03
 0001:00045A07       sub_446A07
 0001:00045A2A       loc_446A2A
 0001:00045A3F       loc_446A3F
 0001:00045A63       loc_446A63
 0001:00045A75       loc_446A75
 0001:00045AB7       loc_446AB7
 0001:00045AC0       loc_446AC0
 0001:00045AC6       loc_446AC6
 0001:00045ACC       loc_446ACC
 0001:00045AD0       loc_446AD0
 0001:00045AD4       loc_446AD4
 0001:00045AF3       loc_446AF3
 0001:00045AF5       loc_446AF5
 0001:00045AF9       loc_446AF9
 0001:00045B11       loc_446B11
 0001:00045B28       loc_446B28
 0001:00045B38       loc_446B38
 0001:00045B46       loc_446B46
 0001:00045B4C       loc_446B4C
 0001:00045B55       loc_446B55
 0001:00045B62       loc_446B62
 0001:00045B6A       sub_446B6A
 0001:00045C30       loc_446C30
 0001:00045C49       loc_446C49
 0001:00045C51       loc_446C51
 0001:00045D16       loc_446D16
 0001:00045D2A       loc_446D2A
 0001:00045D3F       loc_446D3F
 0001:00045D4C       loc_446D4C
 0001:00045D4D       loc_446D4D
 0001:00045D50       sub_446D50
 0001:00045D6C       sub_446D6C
 0001:00045DA3       loc_446DA3
 0001:00045DD5       loc_446DD5
 0001:00045DDA       loc_446DDA
 0001:00045E1E       loc_446E1E
 0001:00045E50       loc_446E50
 0001:00045E7F       loc_446E7F
 0001:00045E8E       loc_446E8E
 0001:00045E9B       loc_446E9B
 0001:00045EBD       loc_446EBD
 0001:00045ECF       loc_446ECF
 0001:00045EEF       loc_446EEF
 0001:00045EF4       loc_446EF4
 0001:00045EF9       sub_446EF9
 0001:00045F25       loc_446F25
 0001:00045F49       loc_446F49
 0001:00045F56       loc_446F56
 0001:00045F5B       loc_446F5B
 0001:00045F6B       loc_446F6B
 0001:00045F70       loc_446F70
 0001:00045F80       loc_446F80
 0001:00045F90       loc_446F90
 0001:00045F9C       loc_446F9C
 0001:00045FA1       loc_446FA1
 0001:00045FA5       loc_446FA5
 0001:00045FAA       loc_446FAA
 0001:00045FAF       loc_446FAF
 0001:00045FD3       loc_446FD3
 0001:00045FD5       loc_446FD5
 0001:00045FD9       sub_446FD9
 0001:00045FEB       loc_446FEB
 0001:00046047       loc_447047
 0001:0004605E       loc_44705E
 0001:00046083       loc_447083
 0001:0004609F       loc_44709F
 0001:000460A6       sub_4470A6
 0001:000460BB       loc_4470BB
 0001:000460E5       loc_4470E5
 0001:000460E8       loc_4470E8
 0001:000460F7       sub_4470F7
 0001:0004610C       loc_44710C
 0001:00046136       loc_447136
 0001:00046139       loc_447139
 0001:00046148       sub_447148
 0001:00046161       loc_447161
 0001:0004618E       loc_44718E
 0001:0004619B       loc_44719B
 0001:000461A5       loc_4471A5
 0001:000461C3       loc_4471C3
 0001:00046245       loc_447245
 0001:0004627E       loc_44727E
 0001:00046283       loc_447283
 0001:0004628D       loc_44728D
 0001:00046294       loc_447294
 0001:00046299       loc_447299
 0001:000462A0       loc_4472A0
 0001:000462A5       loc_4472A5
 0001:000462AC       loc_4472AC
 0001:000462B3       loc_4472B3
 0001:000462CB       loc_4472CB
 0001:000462FD       loc_4472FD
 0001:00046306       loc_447306
 0001:0004630D       loc_44730D
 0001:0004634B       sub_44734B
 0001:0004635D       loc_44735D
 0001:00046377       loc_447377
 0001:0004639A       loc_44739A
 0001:0004639E       loc_44739E
 0001:000463A2       loc_4473A2
 0001:000463BE       loc_4473BE
 0001:000463DB       loc_4473DB
 0001:000463FA       loc_4473FA
 0001:00046400       loc_447400
 0001:00046404       loc_447404
 0001:00046406       loc_447406
 0001:0004640A       off_44740A
 0001:0004642A       off_44742A
 0001:00046436       byte_447436
 0001:0004650B       sub_44750B
 0001:0004652D       loc_44752D
 0001:0004655E       locret_44755E
 0001:00046561       sub_447561
 0001:0004658C       loc_44758C
 0001:000465D2       loc_4475D2
 0001:00046622       loc_447622
 0001:00046670       loc_447670
 0001:00046676       loc_447676
 0001:00046705       loc_447705
 0001:0004670A       loc_44770A
 0001:0004670D       WinMain(x,x,x,x)
 0001:00046746       loc_447746
 0001:0004676D       loc_44776D
 0001:000467B8       loc_4477B8
 0001:00046816       loc_447816
 0001:0004681F       loc_44781F
 0001:00046828       loc_447828
 0001:0004682C       loc_44782C
 0001:0004683E       loc_44783E
 0001:000468F7       loc_4478F7
 0001:000468FD       loc_4478FD
 0001:0004696C       loc_44796C
 0001:00046973       loc_447973
 0001:0004697C       loc_44797C
 0001:00046999       loc_447999
 0001:000469BB       loc_4479BB
 0001:000469E5       loc_4479E5
 0001:000469EC       loc_4479EC
 0001:000469FE       loc_4479FE
 0001:00046A54       loc_447A54
 0001:00046A8D       loc_447A8D
 0001:00046A93       loc_447A93
 0001:00046AB9       loc_447AB9
 0001:00046AC4       loc_447AC4
 0001:00046AC9       loc_447AC9
 0001:00046AD3       loc_447AD3
 0001:00046AD5       loc_447AD5
 0001:00046ADC       sub_447ADC
 0001:00046B6E       loc_447B6E
 0001:00046B86       loc_447B86
 0001:00046BCE       loc_447BCE
 0001:00046BD3       loc_447BD3
 0001:00046BD7       loc_447BD7
 0001:00046C16       loc_447C16
 0001:00046C65       loc_447C65
 0001:00046C77       loc_447C77
 0001:00046C7F       loc_447C7F
 0001:00046C81       loc_447C81
 0001:00046C86       loc_447C86
 0001:00046CC9       loc_447CC9
 0001:00046CEC       loc_447CEC
 0001:00046CF3       loc_447CF3
 0001:00046D0D       loc_447D0D
 0001:00046D15       sub_447D15
 0001:00046D6C       loc_447D6C
 0001:00046D6D       loc_447D6D
 0001:00046DB2       loc_447DB2
 0001:00046DB4       loc_447DB4
 0001:00046DFD       loc_447DFD
 0001:00046EE1       loc_447EE1
 0001:00046EFE       loc_447EFE
 0001:00046F02       loc_447F02
 0001:00046F05       loc_447F05
 0001:00046F0C       loc_447F0C
 0001:00046F53       loc_447F53
 0001:00047014       loc_448014
 0001:0004701D       loc_44801D
 0001:00047022       loc_448022
 0001:00047028       loc_448028
 0001:00047033       loc_448033
 0001:0004704B       loc_44804B
 0001:0004706F       loc_44806F
 0001:00047083       loc_448083
 0001:00047091       loc_448091
 0001:000470A1       loc_4480A1
 0001:000470E4       loc_4480E4
 0001:000470F4       loc_4480F4
 0001:000470FB       loc_4480FB
 0001:000470FF       sub_4480FF
 0001:00047107       sub_448107
 0001:0004713B       loc_44813B
 0001:00047150       loc_448150
 0001:000471AB       loc_4481AB
 0001:000471B6       loc_4481B6
 0001:000471CD       loc_4481CD
 0001:000471D8       loc_4481D8
 0001:000471E0       sub_4481E0
 0001:00047223       loc_448223
 0001:0004727D       loc_44827D
 0001:000472A7       loc_4482A7
 0001:000472CC       loc_4482CC
 0001:000472F7       loc_4482F7
 0001:0004731E       loc_44831E
 0001:00047331       loc_448331
 0001:0004733D       loc_44833D
 0001:0004734B       loc_44834B
 0001:00047377       loc_448377
 0001:000473B8       loc_4483B8
 0001:000473F7       loc_4483F7
 0001:000473FD       loc_4483FD
 0001:00047400       loc_448400
 0001:00047417       loc_448417
 0001:00047485       loc_448485
 0001:0004748E       loc_44848E
 0001:000474FE       loc_4484FE
 0001:0004751C       loc_44851C
 0001:00047571       loc_448571
 0001:0004759B       loc_44859B
 0001:000475AE       loc_4485AE
 0001:00047609       loc_448609
 0001:0004762B       loc_44862B
 0001:00047658       loc_448658
 0001:00047664       loc_448664
 0001:0004766E       loc_44866E
 0001:00047685       loc_448685
 0001:000476BF       loc_4486BF
 0001:000476E9       loc_4486E9
 0001:000476F8       loc_4486F8
 0001:000476FB       loc_4486FB
 0001:00047739       loc_448739
 0001:0004773F       loc_44873F
 0001:00047743       loc_448743
 0001:00047758       loc_448758
 0001:00047764       loc_448764
 0001:00047766       loc_448766
 0001:0004776E       loc_44876E
 0001:0004778A       loc_44878A
 0001:000477A8       loc_4487A8
 0001:000477BD       loc_4487BD
 0001:000477DC       loc_4487DC
 0001:000477DF       loc_4487DF
 0001:00047803       loc_448803
 0001:00047809       loc_448809
 0001:00047825       loc_448825
 0001:00047843       loc_448843
 0001:00047861       loc_448861
 0001:00047875       loc_448875
 0001:0004787E       loc_44887E
 0001:00047884       loc_448884
 0001:00047889       loc_448889
 0001:0004788D       loc_44888D
 0001:0004788E       loc_44888E
 0001:00047894       loc_448894
 0001:000478B2       loc_4488B2
 0001:000478E3       loc_4488E3
 0001:000478F9       loc_4488F9
 0001:0004790C       loc_44890C
 0001:00047941       loc_448941
 0001:00047979       loc_448979
 0001:000479B1       loc_4489B1
 0001:000479BC       loc_4489BC
 0001:000479C0       loc_4489C0
 0001:00047A06       loc_448A06
 0001:00047A1C       loc_448A1C
 0001:00047A63       loc_448A63
 0001:00047A6C       loc_448A6C
 0001:00047A9A       loc_448A9A
 0001:00047ADA       loc_448ADA
 0001:00047ADD       loc_448ADD
 0001:00047AE8       loc_448AE8
 0001:00047AF8       loc_448AF8
 0001:00047B02       loc_448B02
 0001:00047B18       loc_448B18
 0001:00047B36       loc_448B36
 0001:00047B5D       loc_448B5D
 0001:00047B62       loc_448B62
 0001:00047B67       loc_448B67
 0001:00047B6C       loc_448B6C
 0001:00047B71       loc_448B71
 0001:00047B76       loc_448B76
 0001:00047B79       loc_448B79
 0001:00047B9A       loc_448B9A
 0001:00047B9D       loc_448B9D
 0001:00047BA8       loc_448BA8
 0001:00047BB0       loc_448BB0
 0001:00047BB5       loc_448BB5
 0001:00047BDE       loc_448BDE
 0001:00047C0F       loc_448C0F
 0001:00047C14       loc_448C14
 0001:00047C4A       loc_448C4A
 0001:00047CE1       loc_448CE1
 0001:00047CE5       loc_448CE5
 0001:00047D10       loc_448D10
 0001:00047D13       loc_448D13
 0001:00047D36       loc_448D36
 0001:00047D3B       loc_448D3B
 0001:00047D80       loc_448D80
 0001:00047DA7       loc_448DA7
 0001:00047DBF       loc_448DBF
 0001:00047DD7       loc_448DD7
 0001:00047DDA       loc_448DDA
 0001:00047E00       loc_448E00
 0001:00047E5A       loc_448E5A
 0001:00047E6E       loc_448E6E
 0001:00047E89       loc_448E89
 0001:00047E99       loc_448E99
 0001:00047EBE       loc_448EBE
 0001:00047EEF       loc_448EEF
 0001:00047EFF       loc_448EFF
 0001:00047F07       loc_448F07
 0001:00047F29       loc_448F29
 0001:00047F5B       loc_448F5B
 0001:00047F8D       loc_448F8D
 0001:00047FC4       loc_448FC4
 0001:00047FE2       loc_448FE2
 0001:00048013       loc_449013
 0001:0004804B       loc_44904B
 0001:00048067       loc_449067
 0001:000480B0       loc_4490B0
 0001:000480B5       loc_4490B5
 0001:000480E9       loc_4490E9
 0001:000480ED       loc_4490ED
 0001:00048105       loc_449105
 0001:0004810B       loc_44910B
 0001:00048113       loc_449113
 0001:0004813C       loc_44913C
 0001:00048153       loc_449153
 0001:0004816D       loc_44916D
 0001:000481BB       loc_4491BB
 0001:000481C0       loc_4491C0
 0001:00048229       loc_449229
 0001:00048248       loc_449248
 0001:000482A1       loc_4492A1
 0001:000482BD       loc_4492BD
 0001:000482C5       loc_4492C5
 0001:000482CD       loc_4492CD
 0001:000482CE       loc_4492CE
 0001:000482D3       loc_4492D3
 0001:000482D5       loc_4492D5
 0001:000482DF       loc_4492DF
 0001:000482ED       loc_4492ED
 0001:000482F7       loc_4492F7
 0001:0004830A       loc_44930A
 0001:00048314       loc_449314
 0001:00048324       loc_449324
 0001:0004832C       loc_44932C
 0001:00048336       loc_449336
 0001:0004833B       loc_44933B
 0001:00048365       loc_449365
 0001:00048367       loc_449367
 0001:00048378       loc_449378
 0001:0004837B       loc_44937B
 0001:0004838F       loc_44938F
 0001:000483A8       loc_4493A8
 0001:000483C4       loc_4493C4
 0001:000483CC       loc_4493CC
 0001:000483CE       loc_4493CE
 0001:000483D8       sub_4493D8
 0001:0004841B       loc_44941B
 0001:00048433       loc_449433
 0001:0004846A       loc_44946A
 0001:00048476       loc_449476
 0001:00048478       loc_449478
 0001:0004847C       sub_44947C
 0001:000484BD       loc_4494BD
 0001:000484CB       loc_4494CB
 0001:000484DE       loc_4494DE
 0001:000484EE       loc_4494EE
 0001:000484F2       loc_4494F2
 0001:0004853D       loc_44953D
 0001:0004853F       loc_44953F
 0001:00048540       loc_449540
 0001:00048547       loc_449547
 0001:00048564       loc_449564
 0001:00048581       loc_449581
 0001:000485C6       loc_4495C6
 0001:000485DF       loc_4495DF
 0001:000485FA       loc_4495FA
 0001:00048601       loc_449601
 0001:0004862D       loc_44962D
 0001:00048659       loc_449659
 0001:0004868D       loc_44968D
 0001:00048699       loc_449699
 0001:000486F8       loc_4496F8
 0001:00048717       loc_449717
 0001:0004873E       loc_44973E
 0001:00048746       loc_449746
 0001:0004874C       loc_44974C
 0001:00048767       loc_449767
 0001:00048781       loc_449781
 0001:00048787       loc_449787
 0001:0004878A       loc_44978A
 0001:00048792       loc_449792
 0001:000487CA       loc_4497CA
 0001:000487CC       loc_4497CC
 0001:000487F8       loc_4497F8
 0001:00048805       loc_449805
 0001:00048875       loc_449875
 0001:00048893       loc_449893
 0001:000488D8       loc_4498D8
 0001:00048908       loc_449908
 0001:00048949       loc_449949
 0001:0004898A       loc_44998A
 0001:000489BD       loc_4499BD
 0001:000489C5       loc_4499C5
 0001:000489CF       loc_4499CF
 0001:00048A03       loc_449A03
 0001:00048A0F       loc_449A0F
 0001:00048A42       loc_449A42
 0001:00048A4A       loc_449A4A
 0001:00048A54       loc_449A54
 0001:00048A84       loc_449A84
 0001:00048AB8       loc_449AB8
 0001:00048AC4       loc_449AC4
 0001:00048AE4       loc_449AE4
 0001:00048B07       loc_449B07
 0001:00048B27       loc_449B27
 0001:00048B64       loc_449B64
 0001:00048B75       loc_449B75
 0001:00048B8A       loc_449B8A
 0001:00048BC5       loc_449BC5
 0001:00048BDD       loc_449BDD
 0001:00048C3F       loc_449C3F
 0001:00048C4A       loc_449C4A
 0001:00048C6B       loc_449C6B
 0001:00048CB5       loc_449CB5
 0001:00048CBF       loc_449CBF
 0001:00048D15       loc_449D15
 0001:00048D1F       loc_449D1F
 0001:00048D7D       loc_449D7D
 0001:00048D87       loc_449D87
 0001:00048D8E       sub_449D8E
 0001:00048DCA       loc_449DCA
 0001:00048DD9       loc_449DD9
 0001:00048DE9       loc_449DE9
 0001:00048DEC       loc_449DEC
 0001:00048DFE       loc_449DFE
 0001:00048E0F       loc_449E0F
 0001:00048E3D       loc_449E3D
 0001:00048E5D       loc_449E5D
 0001:00048E7C       loc_449E7C
 0001:00048E7F       loc_449E7F
 0001:00048E97       loc_449E97
 0001:00048F00       loc_449F00
 0001:00048F2B       loc_449F2B
 0001:00048F3B       loc_449F3B
 0001:00048F3F       loc_449F3F
 0001:00048F4F       loc_449F4F
 0001:00048F72       loc_449F72
 0001:00048F95       loc_449F95
 0001:00048FB9       loc_449FB9
 0001:00048FCE       loc_449FCE
 0001:00048FD0       loc_449FD0
 0001:00049001       loc_44A001
 0001:00049037       loc_44A037
 0001:0004906A       loc_44A06A
 0001:0004908D       loc_44A08D
 0001:0004909D       loc_44A09D
 0001:000490BC       loc_44A0BC
 0001:000490E8       loc_44A0E8
 0001:000490F8       loc_44A0F8
 0001:00049105       loc_44A105
 0001:00049114       loc_44A114
 0001:00049133       loc_44A133
 0001:0004913A       loc_44A13A
 0001:0004913F       loc_44A13F
 0001:00049146       loc_44A146
 0001:00049156       loc_44A156
 0001:000491A3       loc_44A1A3
 0001:000491BE       loc_44A1BE
 0001:000491CB       loc_44A1CB
 0001:0004920A       loc_44A20A
 0001:00049223       loc_44A223
 0001:00049235       loc_44A235
 0001:0004926D       loc_44A26D
 0001:00049294       loc_44A294
 0001:000492AD       loc_44A2AD
 0001:000492B7       loc_44A2B7
 0001:000492C4       loc_44A2C4
 0001:000492C7       loc_44A2C7
 0001:000492F9       loc_44A2F9
 0001:00049304       loc_44A304
 0001:00049311       loc_44A311
 0001:0004931E       loc_44A31E
 0001:0004932B       loc_44A32B
 0001:00049338       loc_44A338
 0001:00049345       loc_44A345
 0001:00049352       loc_44A352
 0001:0004935D       loc_44A35D
 0001:00049368       loc_44A368
 0001:0004938F       loc_44A38F
 0001:00049395       loc_44A395
 0001:0004939C       loc_44A39C
 0001:000493BD       loc_44A3BD
 0001:00049411       loc_44A411
 0001:00049477       loc_44A477
 0001:00049481       loc_44A481
 0001:000494AE       loc_44A4AE
 0001:000494B2       loc_44A4B2
 0001:000494E4       loc_44A4E4
 0001:000494ED       loc_44A4ED
 0001:000494F9       loc_44A4F9
 0001:000494FD       loc_44A4FD
 0001:00049514       loc_44A514
 0001:0004951E       loc_44A51E
 0001:00049524       loc_44A524
 0001:00049536       loc_44A536
 0001:0004953C       loc_44A53C
 0001:00049542       loc_44A542
 0001:00049546       loc_44A546
 0001:0004954C       loc_44A54C
 0001:0004956F       loc_44A56F
 0001:00049598       loc_44A598
 0001:000495CD       loc_44A5CD
 0001:000495F0       loc_44A5F0
 0001:0004961F       loc_44A61F
 0001:00049630       loc_44A630
 0001:00049639       loc_44A639
 0001:00049649       loc_44A649
 0001:00049671       loc_44A671
 0001:00049676       loc_44A676
 0001:000496A0       loc_44A6A0
 0001:000496BC       loc_44A6BC
 0001:000496DA       loc_44A6DA
 0001:000496DD       loc_44A6DD
 0001:000496EA       loc_44A6EA
 0001:000496F1       loc_44A6F1
 0001:000496FB       loc_44A6FB
 0001:00049722       loc_44A722
 0001:0004974C       loc_44A74C
 0001:0004974F       loc_44A74F
 0001:0004976B       loc_44A76B
 0001:0004977F       loc_44A77F
 0001:000497D4       loc_44A7D4
 0001:000497E1       loc_44A7E1
 0001:000497EC       loc_44A7EC
 0001:00049804       loc_44A804
 0001:00049811       loc_44A811
 0001:0004981A       loc_44A81A
 0001:00049832       loc_44A832
 0001:0004983F       loc_44A83F
 0001:00049845       loc_44A845
 0001:00049857       loc_44A857
 0001:00049869       loc_44A869
 0001:00049882       loc_44A882
 0001:0004988A       loc_44A88A
 0001:00049893       loc_44A893
 0001:000498A9       loc_44A8A9
 0001:000498CA       loc_44A8CA
 0001:000498D3       loc_44A8D3
 0001:00049903       loc_44A903
 0001:00049913       loc_44A913
 0001:0004991C       loc_44A91C
 0001:00049933       loc_44A933
 0001:0004993A       loc_44A93A
 0001:0004993F       loc_44A93F
 0001:00049950       loc_44A950
 0001:00049951       loc_44A951
 0001:00049959       loc_44A959
 0001:00049969       loc_44A969
 0001:00049986       loc_44A986
 0001:0004998F       loc_44A98F
 0001:0004999F       loc_44A99F
 0001:000499A2       loc_44A9A2
 0001:000499AE       loc_44A9AE
 0001:000499D2       loc_44A9D2
 0001:00049A01       loc_44AA01
 0001:00049A05       loc_44AA05
 0001:00049A16       loc_44AA16
 0001:00049A28       loc_44AA28
 0001:00049A3C       loc_44AA3C
 0001:00049A46       loc_44AA46
 0001:00049A66       loc_44AA66
 0001:00049A89       loc_44AA89
 0001:00049A8B       loc_44AA8B
 0001:00049A99       loc_44AA99
 0001:00049AAA       loc_44AAAA
 0001:00049AC7       loc_44AAC7
 0001:00049AD0       loc_44AAD0
 0001:00049ADC       loc_44AADC
 0001:00049B1D       loc_44AB1D
 0001:00049B37       loc_44AB37
 0001:00049B55       loc_44AB55
 0001:00049B67       loc_44AB67
 0001:00049B74       loc_44AB74
 0001:00049B78       loc_44AB78
 0001:00049B83       loc_44AB83
 0001:00049B84       loc_44AB84
 0001:00049B8A       loc_44AB8A
 0001:00049BBB       loc_44ABBB
 0001:00049BC0       loc_44ABC0
 0001:00049BC5       loc_44ABC5
 0001:00049BCA       loc_44ABCA
 0001:00049BCF       loc_44ABCF
 0001:00049BD4       loc_44ABD4
 0001:00049BD7       loc_44ABD7
 0001:00049BF6       loc_44ABF6
 0001:00049BFF       loc_44ABFF
 0001:00049C09       loc_44AC09
 0001:00049C20       loc_44AC20
 0001:00049C41       loc_44AC41
 0001:00049C89       loc_44AC89
 0001:00049CB7       loc_44ACB7
 0001:00049CB9       loc_44ACB9
 0001:00049CC0       loc_44ACC0
 0001:00049CEF       loc_44ACEF
 0001:00049CF3       loc_44ACF3
 0001:00049D02       loc_44AD02
 0001:00049D6A       loc_44AD6A
 0001:00049D6C       loc_44AD6C
 0001:00049D76       loc_44AD76
 0001:00049DBC       loc_44ADBC
 0001:00049DC2       loc_44ADC2
 0001:00049DC6       loc_44ADC6
 0001:00049DE4       loc_44ADE4
 0001:00049E01       loc_44AE01
 0001:00049E0C       loc_44AE0C
 0001:00049E16       loc_44AE16
 0001:00049E33       loc_44AE33
 0001:00049E4B       loc_44AE4B
 0001:00049E67       loc_44AE67
 0001:00049E79       loc_44AE79
 0001:00049E87       loc_44AE87
 0001:00049E8C       loc_44AE8C
 0001:00049E99       loc_44AE99
 0001:00049EAB       loc_44AEAB
 0001:00049EB7       loc_44AEB7
 0001:00049EC6       loc_44AEC6
 0001:00049EC9       loc_44AEC9
 0001:00049ECB       loc_44AECB
 0001:00049EE7       loc_44AEE7
 0001:00049F09       loc_44AF09
 0001:00049F0F       loc_44AF0F
 0001:00049F1D       loc_44AF1D
 0001:00049F3C       loc_44AF3C
 0001:00049F5B       loc_44AF5B
 0001:00049F66       loc_44AF66
 0001:00049F91       loc_44AF91
 0001:00049FA9       loc_44AFA9
 0001:00049FEC       loc_44AFEC
 0001:0004A004       loc_44B004
 0001:0004A025       loc_44B025
 0001:0004A040       loc_44B040
 0001:0004A067       loc_44B067
 0001:0004A071       loc_44B071
 0001:0004A095       loc_44B095
 0001:0004A103       loc_44B103
 0001:0004A112       loc_44B112
 0001:0004A121       loc_44B121
 0001:0004A130       loc_44B130
 0001:0004A13F       loc_44B13F
 0001:0004A14C       loc_44B14C
 0001:0004A159       loc_44B159
 0001:0004A15F       loc_44B15F
 0001:0004A165       loc_44B165
 0001:0004A16B       loc_44B16B
 0001:0004A171       loc_44B171
 0001:0004A177       loc_44B177
 0001:0004A17B       loc_44B17B
 0001:0004A1C6       loc_44B1C6
 0001:0004A1E9       loc_44B1E9
 0001:0004A1F7       loc_44B1F7
 0001:0004A201       loc_44B201
 0001:0004A204       loc_44B204
 0001:0004A258       loc_44B258
 0001:0004A267       loc_44B267
 0001:0004A273       loc_44B273
 0001:0004A2AF       loc_44B2AF
 0001:0004A2E2       loc_44B2E2
 0001:0004A2E6       loc_44B2E6
 0001:0004A2EE       loc_44B2EE
 0001:0004A2F1       loc_44B2F1
 0001:0004A2F8       loc_44B2F8
 0001:0004A304       loc_44B304
 0001:0004A309       loc_44B309
 0001:0004A33B       loc_44B33B
 0001:0004A345       off_44B345
 0001:0004A395       sub_44B395
 0001:0004A3BF       loc_44B3BF
 0001:0004A3C9       loc_44B3C9
 0001:0004A3CC       loc_44B3CC
 0001:0004A3FD       loc_44B3FD
 0001:0004A417       loc_44B417
 0001:0004A426       loc_44B426
 0001:0004A42D       loc_44B42D
 0001:0004A445       loc_44B445
 0001:0004A449       loc_44B449
 0001:0004A46A       loc_44B46A
 0001:0004A481       loc_44B481
 0001:0004A48E       loc_44B48E
 0001:0004A4A6       loc_44B4A6
 0001:0004A4B4       loc_44B4B4
 0001:0004A4DC       loc_44B4DC
 0001:0004A4E5       loc_44B4E5
 0001:0004A4F9       loc_44B4F9
 0001:0004A501       loc_44B501
 0001:0004A52F       loc_44B52F
 0001:0004A538       loc_44B538
 0001:0004A54B       loc_44B54B
 0001:0004A561       loc_44B561
 0001:0004A56C       loc_44B56C
 0001:0004A57C       loc_44B57C
 0001:0004A586       loc_44B586
 0001:0004A5C3       loc_44B5C3
 0001:0004A5CB       loc_44B5CB
 0001:0004A5D3       loc_44B5D3
 0001:0004A5F1       loc_44B5F1
 0001:0004A5F7       loc_44B5F7
 0001:0004A603       loc_44B603
 0001:0004A627       loc_44B627
 0001:0004A62B       loc_44B62B
 0001:0004A650       loc_44B650
 0001:0004A669       loc_44B669
 0001:0004A688       loc_44B688
 0001:0004A68F       loc_44B68F
 0001:0004A694       loc_44B694
 0001:0004A6A3       loc_44B6A3
 0001:0004A6AC       loc_44B6AC
 0001:0004A6B9       loc_44B6B9
 0001:0004A6C2       loc_44B6C2
 0001:0004A6DC       loc_44B6DC
 0001:0004A6ED       loc_44B6ED
 0001:0004A708       loc_44B708
 0001:0004A70B       loc_44B70B
 0001:0004A715       loc_44B715
 0001:0004A71B       loc_44B71B
 0001:0004A740       loc_44B740
 0001:0004A75D       loc_44B75D
 0001:0004A77E       loc_44B77E
 0001:0004A788       loc_44B788
 0001:0004A793       loc_44B793
 0001:0004A7AB       loc_44B7AB
 0001:0004A7B5       loc_44B7B5
 0001:0004A7C8       loc_44B7C8
 0001:0004A80C       loc_44B80C
 0001:0004A842       loc_44B842
 0001:0004A850       loc_44B850
 0001:0004A85F       loc_44B85F
 0001:0004A86E       loc_44B86E
 0001:0004A870       loc_44B870
 0001:0004A8B8       loc_44B8B8
 0001:0004A8C6       loc_44B8C6
 0001:0004A8E2       loc_44B8E2
 0001:0004A8E5       loc_44B8E5
 0001:0004A8E6       loc_44B8E6
 0001:0004A8E9       loc_44B8E9
 0001:0004A8EF       loc_44B8EF
 0001:0004A8F2       loc_44B8F2
 0001:0004A904       loc_44B904
 0001:0004A945       loc_44B945
 0001:0004A964       loc_44B964
 0001:0004A97A       loc_44B97A
 0001:0004A98C       loc_44B98C
 0001:0004A9AB       loc_44B9AB
 0001:0004A9AE       loc_44B9AE
 0001:0004A9B6       loc_44B9B6
 0001:0004A9C2       loc_44B9C2
 0001:0004A9E7       loc_44B9E7
 0001:0004A9F1       loc_44B9F1
 0001:0004AA2B       loc_44BA2B
 0001:0004AA4C       loc_44BA4C
 0001:0004AA52       loc_44BA52
 0001:0004AA8A       loc_44BA8A
 0001:0004AA8E       loc_44BA8E
 0001:0004AAA5       loc_44BAA5
 0001:0004AAAB       loc_44BAAB
 0001:0004AAB3       loc_44BAB3
 0001:0004AABB       loc_44BABB
 0001:0004AAC5       loc_44BAC5
 0001:0004AACD       loc_44BACD
 0001:0004AAD5       loc_44BAD5
 0001:0004AADD       loc_44BADD
 0001:0004AADF       loc_44BADF
 0001:0004AAF6       loc_44BAF6
 0001:0004AAFC       loc_44BAFC
 0001:0004AB13       loc_44BB13
 0001:0004AB18       loc_44BB18
 0001:0004AB2D       loc_44BB2D
 0001:0004AB35       loc_44BB35
 0001:0004AB45       loc_44BB45
 0001:0004AB48       loc_44BB48
 0001:0004AB55       loc_44BB55
 0001:0004AB58       loc_44BB58
 0001:0004AB82       loc_44BB82
 0001:0004AB96       loc_44BB96
 0001:0004ABB0       loc_44BBB0
 0001:0004ABEA       loc_44BBEA
 0001:0004AC01       loc_44BC01
 0001:0004AC26       loc_44BC26
 0001:0004AC2A       loc_44BC2A
 0001:0004AC3F       loc_44BC3F
 0001:0004AC64       loc_44BC64
 0001:0004AC96       loc_44BC96
 0001:0004ACA5       loc_44BCA5
 0001:0004ACF4       loc_44BCF4
 0001:0004AD1C       loc_44BD1C
 0001:0004AD4E       loc_44BD4E
 0001:0004AD9B       loc_44BD9B
 0001:0004ADCD       loc_44BDCD
 0001:0004AE0D       loc_44BE0D
 0001:0004AE19       loc_44BE19
 0001:0004AE24       loc_44BE24
 0001:0004AE46       loc_44BE46
 0001:0004AEB0       loc_44BEB0
 0001:0004AEF1       loc_44BEF1
 0001:0004AEFD       loc_44BEFD
 0001:0004AF3E       loc_44BF3E
 0001:0004AF5B       loc_44BF5B
 0001:0004AF90       loc_44BF90
 0001:0004AF9D       loc_44BF9D
 0001:0004AFDB       loc_44BFDB
 0001:0004AFE8       loc_44BFE8
 0001:0004B008       loc_44C008
 0001:0004B043       loc_44C043
 0001:0004B04E       loc_44C04E
 0001:0004B08E       loc_44C08E
 0001:0004B09A       loc_44C09A
 0001:0004B0A6       loc_44C0A6
 0001:0004B0F8       loc_44C0F8
 0001:0004B0FC       loc_44C0FC
 0001:0004B131       loc_44C131
 0001:0004B13C       loc_44C13C
 0001:0004B14F       loc_44C14F
 0001:0004B15F       loc_44C15F
 0001:0004B163       loc_44C163
 0001:0004B169       loc_44C169
 0001:0004B170       loc_44C170
 0001:0004B17C       loc_44C17C
 0001:0004B188       loc_44C188
 0001:0004B192       loc_44C192
 0001:0004B194       loc_44C194
 0001:0004B19B       off_44C19B
 0001:0004B1AB       byte_44C1AB
 0001:0004B1BC       sub_44C1BC
 0001:0004B1DA       loc_44C1DA
 0001:0004B1E6       loc_44C1E6
 0001:0004B22F       loc_44C22F
 0001:0004B25D       loc_44C25D
 0001:0004B264       loc_44C264
 0001:0004B271       loc_44C271
 0001:0004B281       loc_44C281
 0001:0004B2C7       loc_44C2C7
 0001:0004B2E0       loc_44C2E0
 0001:0004B30A       loc_44C30A
 0001:0004B31D       loc_44C31D
 0001:0004B330       loc_44C330
 0001:0004B355       loc_44C355
 0001:0004B376       loc_44C376
 0001:0004B37D       sub_44C37D
 0001:0004B3AB       loc_44C3AB
 0001:0004B3B7       loc_44C3B7
 0001:0004B3C3       loc_44C3C3
 0001:0004B410       loc_44C410
 0001:0004B45D       loc_44C45D
 0001:0004B491       loc_44C491
 0001:0004B4AB       loc_44C4AB
 0001:0004B4BE       loc_44C4BE
 0001:0004B4F1       loc_44C4F1
 0001:0004B4F3       loc_44C4F3
 0001:0004B4F9       sub_44C4F9
 0001:0004B50C       loc_44C50C
 0001:0004B50E       loc_44C50E
 0001:0004B52D       loc_44C52D
 0001:0004B537       loc_44C537
 0001:0004B539       loc_44C539
 0001:0004B573       loc_44C573
 0001:0004B57C       sub_44C57C
 0001:0004B5A2       loc_44C5A2
 0001:0004B5CB       loc_44C5CB
 0001:0004B5E1       loc_44C5E1
 0001:0004B5F8       loc_44C5F8
 0001:0004B603       loc_44C603
 0001:0004B60A       loc_44C60A
 0001:0004B60F       loc_44C60F
 0001:0004B634       loc_44C634
 0001:0004B647       loc_44C647
 0001:0004B65E       loc_44C65E
 0001:0004B664       loc_44C664
 0001:0004B66D       sub_44C66D
 0001:0004B6B7       loc_44C6B7
 0001:0004B6D0       loc_44C6D0
 0001:0004B6DD       loc_44C6DD
 0001:0004B6E0       loc_44C6E0
 0001:0004B72F       loc_44C72F
 0001:0004B747       loc_44C747
 0001:0004B762       loc_44C762
 0001:0004B775       loc_44C775
 0001:0004B77B       loc_44C77B
 0001:0004B793       loc_44C793
 0001:0004B7A8       loc_44C7A8
 0001:0004B7C0       loc_44C7C0
 0001:0004B7D7       loc_44C7D7
 0001:0004B7E0       loc_44C7E0
 0001:0004B7E6       loc_44C7E6
 0001:0004B7EA       loc_44C7EA
 0001:0004B7FC       loc_44C7FC
 0001:0004B836       loc_44C836
 0001:0004B85D       loc_44C85D
 0001:0004B875       loc_44C875
 0001:0004B87D       sub_44C87D
 0001:0004B892       loc_44C892
 0001:0004B8D4       loc_44C8D4
 0001:0004B8F7       loc_44C8F7
 0001:0004B915       loc_44C915
 0001:0004B924       loc_44C924
 0001:0004B93A       loc_44C93A
 0001:0004B93D       loc_44C93D
 0001:0004B94E       loc_44C94E
 0001:0004B95D       loc_44C95D
 0001:0004B978       loc_44C978
 0001:0004B9AC       loc_44C9AC
 0001:0004B9C6       loc_44C9C6
 0001:0004B9C9       loc_44C9C9
 0001:0004B9F7       loc_44C9F7
 0001:0004BA0B       loc_44CA0B
 0001:0004BA0D       loc_44CA0D
 0001:0004BA17       loc_44CA17
 0001:0004BA28       loc_44CA28
 0001:0004BA3F       loc_44CA3F
 0001:0004BA52       loc_44CA52
 0001:0004BA6F       loc_44CA6F
 0001:0004BA90       loc_44CA90
 0001:0004BA9A       loc_44CA9A
 0001:0004BAA5       loc_44CAA5
 0001:0004BAAA       sub_44CAAA
 0001:0004BAC1       loc_44CAC1
 0001:0004BAD0       loc_44CAD0
 0001:0004BAD5       loc_44CAD5
 0001:0004BAE8       loc_44CAE8
 0001:0004BAF6       loc_44CAF6
 0001:0004BB10       loc_44CB10
 0001:0004BB25       loc_44CB25
 0001:0004BB2A       loc_44CB2A
 0001:0004BB4A       loc_44CB4A
 0001:0004BB64       loc_44CB64
 0001:0004BB6D       sub_44CB6D
 0001:0004BB9F       loc_44CB9F
 0001:0004BBCF       loc_44CBCF
 0001:0004BBE0       loc_44CBE0
 0001:0004BC1A       loc_44CC1A
 0001:0004BC1D       loc_44CC1D
 0001:0004BC4A       loc_44CC4A
 0001:0004BC54       loc_44CC54
 0001:0004BC60       loc_44CC60
 0001:0004BC74       loc_44CC74
 0001:0004BC92       loc_44CC92
 0001:0004BCAA       loc_44CCAA
 0001:0004BCCE       loc_44CCCE
 0001:0004BCED       sub_44CCED
 0001:0004BD1E       loc_44CD1E
 0001:0004BD25       loc_44CD25
 0001:0004BD3F       loc_44CD3F
 0001:0004BD5C       loc_44CD5C
 0001:0004BD5F       loc_44CD5F
 0001:0004BD94       loc_44CD94
 0001:0004BDA0       loc_44CDA0
 0001:0004BDBF       loc_44CDBF
 0001:0004BDC3       loc_44CDC3
 0001:0004BDE2       loc_44CDE2
 0001:0004BDFB       loc_44CDFB
 0001:0004BE06       loc_44CE06
 0001:0004BE94       loc_44CE94
 0001:0004BEAF       loc_44CEAF
 0001:0004BEB8       sub_44CEB8
 0001:0004BECA       loc_44CECA
 0001:0004BEE7       loc_44CEE7
 0001:0004BEE9       loc_44CEE9
 0001:0004BEEC       loc_44CEEC
 0001:0004BEF0       sub_44CEF0
 0001:0004BF02       loc_44CF02
 0001:0004BF1F       loc_44CF1F
 0001:0004BF21       loc_44CF21
 0001:0004BF24       loc_44CF24
 0001:0004BF28       sub_44CF28
 0001:0004BF3C       loc_44CF3C
 0001:0004BF3F       loc_44CF3F
 0001:0004BF8C       loc_44CF8C
 0001:0004BF90       loc_44CF90
 0001:0004BF93       loc_44CF93
 0001:0004BF96       sub_44CF96
 0001:0004C013       loc_44D013
 0001:0004C01A       loc_44D01A
 0001:0004C025       loc_44D025
 0001:0004C04D       loc_44D04D
 0001:0004C051       loc_44D051
 0001:0004C061       loc_44D061
 0001:0004C068       sub_44D068
 0001:0004C077       loc_44D077
 0001:0004C085       loc_44D085
 0001:0004C099       loc_44D099
 0001:0004C0A1       loc_44D0A1
 0001:0004C0C6       loc_44D0C6
 0001:0004C0CE       loc_44D0CE
 0001:0004C0D6       loc_44D0D6
 0001:0004C0E9       loc_44D0E9
 0001:0004C131       loc_44D131
 0001:0004C136       loc_44D136
 0001:0004C13C       loc_44D13C
 0001:0004C141       loc_44D141
 0001:0004C149       loc_44D149
 0001:0004C151       loc_44D151
 0001:0004C159       loc_44D159
 0001:0004C15F       loc_44D15F
 0001:0004C166       loc_44D166
 0001:0004C168       loc_44D168
 0001:0004C16F       sub_44D16F
 0001:0004C19C       loc_44D19C
 0001:0004C1A0       loc_44D1A0
 0001:0004C1B7       loc_44D1B7
 0001:0004C1C6       loc_44D1C6
 0001:0004C1CA       loc_44D1CA
 0001:0004C1D3       sub_44D1D3
 0001:0004C1FF       loc_44D1FF
 0001:0004C20B       loc_44D20B
 0001:0004C20D       loc_44D20D
 0001:0004C220       loc_44D220
 0001:0004C229       loc_44D229
 0001:0004C25A       loc_44D25A
 0001:0004C2DA       loc_44D2DA
 0001:0004C2FE       loc_44D2FE
 0001:0004C30A       loc_44D30A
 0001:0004C31E       loc_44D31E
 0001:0004C326       loc_44D326
 0001:0004C33A       loc_44D33A
 0001:0004C34E       loc_44D34E
 0001:0004C362       loc_44D362
 0001:0004C364       loc_44D364
 0001:0004C36D       loc_44D36D
 0001:0004C379       loc_44D379
 0001:0004C3A0       loc_44D3A0
 0001:0004C3B6       loc_44D3B6
 0001:0004C3CA       loc_44D3CA
 0001:0004C3DE       loc_44D3DE
 0001:0004C3F5       loc_44D3F5
 0001:0004C3FC       loc_44D3FC
 0001:0004C423       loc_44D423
 0001:0004C426       loc_44D426
 0001:0004C439       loc_44D439
 0001:0004C43C       loc_44D43C
 0001:0004C48B       loc_44D48B
 0001:0004C490       loc_44D490
 0001:0004C49F       loc_44D49F
 0001:0004C4AB       loc_44D4AB
 0001:0004C4B7       loc_44D4B7
 0001:0004C4F4       loc_44D4F4
 0001:0004C508       loc_44D508
 0001:0004C522       loc_44D522
 0001:0004C531       loc_44D531
 0001:0004C540       loc_44D540
 0001:0004C554       loc_44D554
 0001:0004C560       loc_44D560
 0001:0004C57B       loc_44D57B
 0001:0004C58A       loc_44D58A
 0001:0004C5A4       loc_44D5A4
 0001:0004C5B3       loc_44D5B3
 0001:0004C5C7       loc_44D5C7
 0001:0004C5D3       loc_44D5D3
 0001:0004C5E7       loc_44D5E7
 0001:0004C606       loc_44D606
 0001:0004C615       loc_44D615
 0001:0004C61D       loc_44D61D
 0001:0004C631       loc_44D631
 0001:0004C654       loc_44D654
 0001:0004C660       loc_44D660
 0001:0004C673       loc_44D673
 0001:0004C684       loc_44D684
 0001:0004C68D       loc_44D68D
 0001:0004C69A       loc_44D69A
 0001:0004C69B       loc_44D69B
 0001:0004C6BA       loc_44D6BA
 0001:0004C6D0       loc_44D6D0
 0001:0004C6FA       loc_44D6FA
 0001:0004C717       loc_44D717
 0001:0004C722       loc_44D722
 0001:0004C74C       loc_44D74C
 0001:0004C779       loc_44D779
 0001:0004C781       loc_44D781
 0001:0004C795       loc_44D795
 0001:0004C7A1       loc_44D7A1
 0001:0004C7B2       loc_44D7B2
 0001:0004C7CC       loc_44D7CC
 0001:0004C7D6       loc_44D7D6
 0001:0004C7E2       loc_44D7E2
 0001:0004C7E7       loc_44D7E7
 0001:0004C7E8       loc_44D7E8
 0001:0004C80B       loc_44D80B
 0001:0004C82A       loc_44D82A
 0001:0004C838       loc_44D838
 0001:0004C84A       loc_44D84A
 0001:0004C856       loc_44D856
 0001:0004C85F       loc_44D85F
 0001:0004C870       loc_44D870
 0001:0004C881       loc_44D881
 0001:0004C888       loc_44D888
 0001:0004C88B       loc_44D88B
 0001:0004C89B       loc_44D89B
 0001:0004C8A3       loc_44D8A3
 0001:0004C8E1       loc_44D8E1
 0001:0004C8FD       loc_44D8FD
 0001:0004C91D       loc_44D91D
 0001:0004C91E       loc_44D91E
 0001:0004C92E       loc_44D92E
 0001:0004C95D       loc_44D95D
 0001:0004C995       loc_44D995
 0001:0004C999       loc_44D999
 0001:0004C9A5       loc_44D9A5
 0001:0004C9E5       loc_44D9E5
 0001:0004C9F4       loc_44D9F4
 0001:0004CA3C       loc_44DA3C
 0001:0004CA40       loc_44DA40
 0001:0004CA48       loc_44DA48
 0001:0004CA74       loc_44DA74
 0001:0004CA84       loc_44DA84
 0001:0004CAA3       loc_44DAA3
 0001:0004CABA       loc_44DABA
 0001:0004CAC4       loc_44DAC4
 0001:0004CACB       loc_44DACB
 0001:0004CADF       loc_44DADF
 0001:0004CAF0       loc_44DAF0
 0001:0004CAFB       loc_44DAFB
 0001:0004CB34       loc_44DB34
 0001:0004CB66       loc_44DB66
 0001:0004CB69       loc_44DB69
 0001:0004CB7B       loc_44DB7B
 0001:0004CB80       loc_44DB80
 0001:0004CB8D       loc_44DB8D
 0001:0004CBA1       loc_44DBA1
 0001:0004CBA8       loc_44DBA8
 0001:0004CBB9       loc_44DBB9
 0001:0004CBBD       loc_44DBBD
 0001:0004CBC5       loc_44DBC5
 0001:0004CC29       loc_44DC29
 0001:0004CC3C       loc_44DC3C
 0001:0004CC45       loc_44DC45
 0001:0004CC60       loc_44DC60
 0001:0004CC7D       loc_44DC7D
 0001:0004CCA5       loc_44DCA5
 0001:0004CCB7       loc_44DCB7
 0001:0004CCBC       loc_44DCBC
 0001:0004CCC3       loc_44DCC3
 0001:0004CCD3       loc_44DCD3
 0001:0004CCDB       loc_44DCDB
 0001:0004CCFA       loc_44DCFA
 0001:0004CD05       loc_44DD05
 0001:0004CD0C       loc_44DD0C
 0001:0004CD3C       loc_44DD3C
 0001:0004CD5A       loc_44DD5A
 0001:0004CD63       loc_44DD63
 0001:0004CD76       loc_44DD76
 0001:0004CDA0       loc_44DDA0
 0001:0004CDAF       loc_44DDAF
 0001:0004CDEA       loc_44DDEA
 0001:0004CE09       loc_44DE09
 0001:0004CE1F       loc_44DE1F
 0001:0004CE29       loc_44DE29
 0001:0004CE35       loc_44DE35
 0001:0004CE49       loc_44DE49
 0001:0004CE5C       loc_44DE5C
 0001:0004CE64       loc_44DE64
 0001:0004CE72       loc_44DE72
 0001:0004CE80       loc_44DE80
 0001:0004CE87       loc_44DE87
 0001:0004CE8E       loc_44DE8E
 0001:0004CE97       loc_44DE97
 0001:0004CE9D       loc_44DE9D
 0001:0004CEA2       loc_44DEA2
 0001:0004CEAA       loc_44DEAA
 0001:0004CEB1       sub_44DEB1
 0001:0004CED0       loc_44DED0
 0001:0004CED8       loc_44DED8
 0001:0004CEE8       loc_44DEE8
 0001:0004CF0B       loc_44DF0B
 0001:0004CF50       loc_44DF50
 0001:0004CF67       loc_44DF67
 0001:0004CF84       loc_44DF84
 0001:0004CFCD       loc_44DFCD
 0001:0004CFDA       loc_44DFDA
 0001:0004CFFC       loc_44DFFC
 0001:0004D00F       loc_44E00F
 0001:0004D01A       loc_44E01A
 0001:0004D025       loc_44E025
 0001:0004D02D       loc_44E02D
 0001:0004D035       loc_44E035
 0001:0004D055       loc_44E055
 0001:0004D05A       loc_44E05A
 0001:0004D063       loc_44E063
 0001:0004D066       loc_44E066
 0001:0004D06C       loc_44E06C
 0001:0004D077       loc_44E077
 0001:0004D097       loc_44E097
 0001:0004D0B6       loc_44E0B6
 0001:0004D0B9       loc_44E0B9
 0001:0004D0C1       loc_44E0C1
 0001:0004D0D1       loc_44E0D1
 0001:0004D0E5       loc_44E0E5
 0001:0004D0F0       loc_44E0F0
 0001:0004D0FA       loc_44E0FA
 0001:0004D126       loc_44E126
 0001:0004D165       loc_44E165
 0001:0004D177       loc_44E177
 0001:0004D17A       loc_44E17A
 0001:0004D17D       loc_44E17D
 0001:0004D18F       loc_44E18F
 0001:0004D196       loc_44E196
 0001:0004D19F       loc_44E19F
 0001:0004D1A6       loc_44E1A6
 0001:0004D1B6       loc_44E1B6
 0001:0004D1B8       loc_44E1B8
 0001:0004D1BF       loc_44E1BF
 0001:0004D1C8       loc_44E1C8
 0001:0004D1D1       loc_44E1D1
 0001:0004D1D4       loc_44E1D4
 0001:0004D1DD       loc_44E1DD
 0001:0004D1EA       loc_44E1EA
 0001:0004D1F7       loc_44E1F7
 0001:0004D20D       loc_44E20D
 0001:0004D218       loc_44E218
 0001:0004D21F       loc_44E21F
 0001:0004D22B       loc_44E22B
 0001:0004D231       loc_44E231
 0001:0004D238       sub_44E238
 0001:0004D24C       sub_44E24C
 0001:0004D262       loc_44E262
 0001:0004D278       loc_44E278
 0001:0004D27F       loc_44E27F
 0001:0004D284       loc_44E284
 0001:0004D289       loc_44E289
 0001:0004D290       loc_44E290
 0001:0004D295       loc_44E295
 0001:0004D2A6       loc_44E2A6
 0001:0004D2CD       loc_44E2CD
 0001:0004D2CF       loc_44E2CF
 0001:0004D2DC       loc_44E2DC
 0001:0004D2DE       loc_44E2DE
 0001:0004D381       loc_44E381
 0001:0004D387       loc_44E387
 0001:0004D398       loc_44E398
 0001:0004D3C2       loc_44E3C2
 0001:0004D3D8       loc_44E3D8
 0001:0004D41D       loc_44E41D
 0001:0004D43E       loc_44E43E
 0001:0004D49F       loc_44E49F
 0001:0004D4D7       loc_44E4D7
 0001:0004D4D9       loc_44E4D9
 0001:0004D4FD       loc_44E4FD
 0001:0004D502       loc_44E502
 0001:0004D518       loc_44E518
 0001:0004D525       loc_44E525
 0001:0004D54A       loc_44E54A
 0001:0004D564       loc_44E564
 0001:0004D570       loc_44E570
 0001:0004D5B3       loc_44E5B3
 0001:0004D5B7       loc_44E5B7
 0001:0004D5BB       loc_44E5BB
 0001:0004D5BF       loc_44E5BF
 0001:0004D5C1       loc_44E5C1
 0001:0004D5C2       loc_44E5C2
 0001:0004D5F1       loc_44E5F1
 0001:0004D5F5       loc_44E5F5
 0001:0004D5F9       loc_44E5F9
 0001:0004D5FD       loc_44E5FD
 0001:0004D5FF       loc_44E5FF
 0001:0004D600       loc_44E600
 0001:0004D62F       loc_44E62F
 0001:0004D633       loc_44E633
 0001:0004D637       loc_44E637
 0001:0004D63B       loc_44E63B
 0001:0004D63D       loc_44E63D
 0001:0004D63E       loc_44E63E
 0001:0004D66F       loc_44E66F
 0001:0004D673       loc_44E673
 0001:0004D677       loc_44E677
 0001:0004D67C       loc_44E67C
 0001:0004D67E       loc_44E67E
 0001:0004D67F       loc_44E67F
 0001:0004D705       loc_44E705
 0001:0004D707       loc_44E707
 0001:0004D70A       loc_44E70A
 0001:0004D719       loc_44E719
 0001:0004D727       loc_44E727
 0001:0004D734       loc_44E734
 0001:0004D741       loc_44E741
 0001:0004D74F       loc_44E74F
 0001:0004D753       loc_44E753
 0001:0004D760       loc_44E760
 0001:0004D76D       loc_44E76D
 0001:0004D77D       loc_44E77D
 0001:0004D784       loc_44E784
 0001:0004D788       loc_44E788
 0001:0004D794       loc_44E794
 0001:0004D79B       loc_44E79B
 0001:0004D79E       loc_44E79E
 0001:0004D7A5       sub_44E7A5
 0001:0004D7B2       locret_44E7B2
 0001:0004D7B3       sub_44E7B3
 0001:0004D7C8       loc_44E7C8
 0001:0004D7CA       loc_44E7CA
 0001:0004D7F0       loc_44E7F0
 0001:0004D7F4       loc_44E7F4
 0001:0004D80B       sub_44E80B
 0001:0004D834       loc_44E834
 0001:0004D857       loc_44E857
 0001:0004D86C       loc_44E86C
 0001:0004D87E       loc_44E87E
 0001:0004D882       sub_44E882
 0001:0004D8A4       loc_44E8A4
 0001:0004D8C8       loc_44E8C8
 0001:0004D8D7       loc_44E8D7
 0001:0004D8DF       loc_44E8DF
 0001:0004D8E4       loc_44E8E4
 0001:0004D8E8       sub_44E8E8
 0001:0004D91A       loc_44E91A
 0001:0004D91C       sub_44E91C
 0001:0004D93E       loc_44E93E
 0001:0004D94C       loc_44E94C
 0001:0004D965       loc_44E965
 0001:0004D97C       loc_44E97C
 0001:0004D9C9       loc_44E9C9
 0001:0004D9D0       loc_44E9D0
 0001:0004D9F1       loc_44E9F1
 0001:0004DA12       loc_44EA12
 0001:0004DA38       loc_44EA38
 0001:0004DA6D       loc_44EA6D
 0001:0004DA72       loc_44EA72
 0001:0004DA7C       loc_44EA7C
 0001:0004DA9D       loc_44EA9D
 0001:0004DABE       loc_44EABE
 0001:0004DADF       loc_44EADF
 0001:0004DB00       loc_44EB00
 0001:0004DB20       loc_44EB20
 0001:0004DB22       loc_44EB22
 0001:0004DB28       loc_44EB28
 0001:0004DB73       loc_44EB73
 0001:0004DB78       loc_44EB78
 0001:0004DB7F       loc_44EB7F
 0001:0004DBA0       loc_44EBA0
 0001:0004DC3B       loc_44EC3B
 0001:0004DC42       loc_44EC42
 0001:0004DC74       loc_44EC74
 0001:0004DC79       loc_44EC79
 0001:0004DC7C       loc_44EC7C
 0001:0004DC84       loc_44EC84
 0001:0004DC8D       loc_44EC8D
 0001:0004DC97       loc_44EC97
 0001:0004DCCC       loc_44ECCC
 0001:0004DCD3       loc_44ECD3
 0001:0004DCF4       loc_44ECF4
 0001:0004DD14       loc_44ED14
 0001:0004DD20       loc_44ED20
 0001:0004DD5D       loc_44ED5D
 0001:0004DD74       loc_44ED74
 0001:0004DD7E       loc_44ED7E
 0001:0004DD9F       loc_44ED9F
 0001:0004DDBB       loc_44EDBB
 0001:0004DDC7       loc_44EDC7
 0001:0004DDE8       loc_44EDE8
 0001:0004DE09       loc_44EE09
 0001:0004DE33       loc_44EE33
 0001:0004DE54       loc_44EE54
 0001:0004DE75       loc_44EE75
 0001:0004DE96       loc_44EE96
 0001:0004DEB7       loc_44EEB7
 0001:0004DED8       loc_44EED8
 0001:0004DEF9       loc_44EEF9
 0001:0004DF1A       loc_44EF1A
 0001:0004DF3B       loc_44EF3B
 0001:0004DF5C       loc_44EF5C
 0001:0004DF7D       loc_44EF7D
 0001:0004DFD4       loc_44EFD4
 0001:0004E02B       loc_44F02B
 0001:0004E04C       loc_44F04C
 0001:0004E06D       loc_44F06D
 0001:0004E08E       loc_44F08E
 0001:0004E0AF       loc_44F0AF
 0001:0004E106       loc_44F106
 0001:0004E127       loc_44F127
 0001:0004E193       loc_44F193
 0001:0004E1AF       loc_44F1AF
 0001:0004E1B6       loc_44F1B6
 0001:0004E1BD       loc_44F1BD
 0001:0004E1C4       loc_44F1C4
 0001:0004E1CB       loc_44F1CB
 0001:0004E1D2       loc_44F1D2
 0001:0004E1D3       loc_44F1D3
 0001:0004E1D7       loc_44F1D7
 0001:0004E1EF       loc_44F1EF
 0001:0004E1F3       loc_44F1F3
 0001:0004E1FF       loc_44F1FF
 0001:0004E201       loc_44F201
 0001:0004E206       sub_44F206
 0001:0004E225       loc_44F225
 0001:0004E237       loc_44F237
 0001:0004E296       loc_44F296
 0001:0004E298       loc_44F298
 0001:0004E2A6       loc_44F2A6
 0001:0004E2AD       loc_44F2AD
 0001:0004E2B1       loc_44F2B1
 0001:0004E2BC       loc_44F2BC
 0001:0004E2C2       loc_44F2C2
 0001:0004E2C5       loc_44F2C5
 0001:0004E2CB       sub_44F2CB
 0001:0004E316       loc_44F316
 0001:0004E331       loc_44F331
 0001:0004E35D       loc_44F35D
 0001:0004E38F       loc_44F38F
 0001:0004E409       loc_44F409
 0001:0004E481       loc_44F481
 0001:0004E499       loc_44F499
 0001:0004E49F       loc_44F49F
 0001:0004E4DE       loc_44F4DE
 0001:0004E4E8       loc_44F4E8
 0001:0004E50F       loc_44F50F
 0001:0004E539       loc_44F539
 0001:0004E543       loc_44F543
 0001:0004E563       loc_44F563
 0001:0004E599       loc_44F599
 0001:0004E5AD       loc_44F5AD
 0001:0004E5AE       loc_44F5AE
 0001:0004E5B1       loc_44F5B1
 0001:0004E5C5       loc_44F5C5
 0001:0004E5D5       loc_44F5D5
 0001:0004E5E5       loc_44F5E5
 0001:0004E5F2       loc_44F5F2
 0001:0004E606       loc_44F606
 0001:0004E612       loc_44F612
 0001:0004E636       loc_44F636
 0001:0004E64D       loc_44F64D
 0001:0004E650       loc_44F650
 0001:0004E65F       loc_44F65F
 0001:0004E667       loc_44F667
 0001:0004E671       loc_44F671
 0001:0004E679       loc_44F679
 0001:0004E67D       loc_44F67D
 0001:0004E685       loc_44F685
 0001:0004E68F       loc_44F68F
 0001:0004E699       loc_44F699
 0001:0004E6A1       loc_44F6A1
 0001:0004E6A6       loc_44F6A6
 0001:0004E6AE       loc_44F6AE
 0001:0004E6B0       loc_44F6B0
 0001:0004E6B5       loc_44F6B5
 0001:0004E6BC       sub_44F6BC
 0001:0004E6F4       sub_44F6F4
 0001:0004E89D       loc_44F89D
 0001:0004E8A1       loc_44F8A1
 0001:0004E8A7       loc_44F8A7
 0001:0004E8D1       loc_44F8D1
 0001:0004E8DE       loc_44F8DE
 0001:0004E8F7       loc_44F8F7
 0001:0004E901       loc_44F901
 0001:0004E90B       loc_44F90B
 0001:0004E915       loc_44F915
 0001:0004E925       loc_44F925
 0001:0004E933       loc_44F933
 0001:0004E94C       loc_44F94C
 0001:0004E956       loc_44F956
 0001:0004E960       loc_44F960
 0001:0004E96A       loc_44F96A
 0001:0004E977       loc_44F977
 0001:0004E990       loc_44F990
 0001:0004E9A0       loc_44F9A0
 0001:0004E9AC       loc_44F9AC
 0001:0004E9C1       loc_44F9C1
 0001:0004E9C9       loc_44F9C9
 0001:0004E9D6       loc_44F9D6
 0001:0004E9DF       loc_44F9DF
 0001:0004E9F8       loc_44F9F8
 0001:0004EA0F       loc_44FA0F
 0001:0004EA29       loc_44FA29
 0001:0004EA5B       loc_44FA5B
 0001:0004EA6F       sub_44FA6F
 0001:0004EAA8       sub_44FAA8
 0001:0004EABC       loc_44FABC
 0001:0004EACD       loc_44FACD
 0001:0004EAD1       loc_44FAD1
 0001:0004EAD3       loc_44FAD3
 0001:0004EAD8       loc_44FAD8
 0001:0004EADC       sub_44FADC
 0001:0004EB04       loc_44FB04
 0001:0004EB17       loc_44FB17
 0001:0004EB1B       loc_44FB1B
 0001:0004EB36       loc_44FB36
 0001:0004EB38       loc_44FB38
 0001:0004EB46       loc_44FB46
 0001:0004EB4F       loc_44FB4F
 0001:0004EB5F       loc_44FB5F
 0001:0004EB65       loc_44FB65
 0001:0004EB81       loc_44FB81
 0001:0004EB84       loc_44FB84
 0001:0004EB8B       sub_44FB8B
 0001:0004EB9C       loc_44FB9C
 0001:0004EBA2       loc_44FBA2
 0001:0004EBB4       loc_44FBB4
 0001:0004EBD1       loc_44FBD1
 0001:0004EBD5       loc_44FBD5
 0001:0004EBD7       loc_44FBD7
 0001:0004EBD8       loc_44FBD8
 0001:0004EBDD       sub_44FBDD
 0001:0004EC54       loc_44FC54
 0001:0004EC5E       loc_44FC5E
 0001:0004EC66       sub_44FC66
 0001:0004EC8F       loc_44FC8F
 0001:0004ECA7       loc_44FCA7
 0001:0004ECB0       loc_44FCB0
 0001:0004ECC3       loc_44FCC3
 0001:0004ECE3       loc_44FCE3
 0001:0004ECE5       loc_44FCE5
 0001:0004ECF5       loc_44FCF5
 0001:0004ECFF       loc_44FCFF
 0001:0004ED05       loc_44FD05
 0001:0004ED0B       loc_44FD0B
 0001:0004ED0C       loc_44FD0C
 0001:0004ED12       sub_44FD12
 0001:0004ED24       loc_44FD24
 0001:0004ED6F       loc_44FD6F
 0001:0004ED75       loc_44FD75
 0001:0004ED88       loc_44FD88
 0001:0004ED92       loc_44FD92
 0001:0004EDA1       loc_44FDA1
 0001:0004EDB1       loc_44FDB1
 0001:0004EDB5       loc_44FDB5
 0001:0004EDF5       loc_44FDF5
 0001:0004EE18       loc_44FE18
 0001:0004EE43       loc_44FE43
 0001:0004EE51       loc_44FE51
 0001:0004EE56       loc_44FE56
 0001:0004EE58       loc_44FE58
 0001:0004EE5B       loc_44FE5B
 0001:0004EE60       sub_44FE60
 0001:0004EE7A       loc_44FE7A
 0001:0004EE9B       loc_44FE9B
 0001:0004EEC9       loc_44FEC9
 0001:0004EED5       loc_44FED5
 0001:0004EED7       loc_44FED7
 0001:0004EED8       loc_44FED8
 0001:0004EEDD       loc_44FEDD
 0001:0004EEE1       sub_44FEE1
 0001:0004EF0B       sub_44FF0B
 0001:0004EF3A       loc_44FF3A
 0001:0004EF3F       loc_44FF3F
 0001:0004EF84       loc_44FF84
 0001:0004EF8C       loc_44FF8C
 0001:0004EF90       loc_44FF90
 0001:0004EFD7       loc_44FFD7
 0001:0004EFDB       loc_44FFDB
 0001:0004EFFB       loc_44FFFB
 0001:0004EFFD       loc_44FFFD
 0001:0004F017       loc_450017
 0001:0004F022       loc_450022
 0001:0004F028       loc_450028
 0001:0004F034       loc_450034
 0001:0004F037       loc_450037
 0001:0004F03E       sub_45003E
 0001:0004F055       loc_450055
 0001:0004F079       loc_450079
 0001:0004F07D       loc_45007D
 0001:0004F0B3       loc_4500B3
 0001:0004F0BD       loc_4500BD
 0001:0004F0C1       loc_4500C1
 0001:0004F0D1       loc_4500D1
 0001:0004F0DB       loc_4500DB
 0001:0004F0DC       loc_4500DC
 0001:0004F0E2       sub_4500E2
 0001:0004F132       loc_450132
 0001:0004F138       loc_450138
 0001:0004F152       loc_450152
 0001:0004F159       loc_450159
 0001:0004F1B1       loc_4501B1
 0001:0004F1EC       loc_4501EC
 0001:0004F1F8       loc_4501F8
 0001:0004F222       loc_450222
 0001:0004F223       loc_450223
 0001:0004F226       loc_450226
 0001:0004F22C       sub_45022C
 0001:0004F25B       loc_45025B
 0001:0004F26C       loc_45026C
 0001:0004F295       loc_450295
 0001:0004F2A5       loc_4502A5
 0001:0004F2DE       loc_4502DE
 0001:0004F2E2       loc_4502E2
 0001:0004F2E6       loc_4502E6
 0001:0004F2F7       loc_4502F7
 0001:0004F308       loc_450308
 0001:0004F322       loc_450322
 0001:0004F324       loc_450324
 0001:0004F325       loc_450325
 0001:0004F32F       loc_45032F
 0001:0004F330       loc_450330
 0001:0004F338       sub_450338
 0001:0004F34D       loc_45034D
 0001:0004F355       loc_450355
 0001:0004F387       loc_450387
 0001:0004F39A       loc_45039A
 0001:0004F3C3       loc_4503C3
 0001:0004F3E0       loc_4503E0
 0001:0004F3EC       loc_4503EC
 0001:0004F3F9       loc_4503F9
 0001:0004F3FB       loc_4503FB
 0001:0004F400       loc_450400
 0001:0004F405       sub_450405
 0001:0004F41B       loc_45041B
 0001:0004F425       loc_450425
 0001:0004F435       loc_450435
 0001:0004F437       sub_450437
 0001:0004F452       loc_450452
 0001:0004F46F       loc_45046F
 0001:0004F472       locret_450472
 0001:0004F475       sub_450475
 0001:0004F48B       loc_45048B
 0001:0004F48E       loc_45048E
 0001:0004F498       loc_450498
 0001:0004F4A0       loc_4504A0
 0001:0004F4A8       loc_4504A8
 0001:0004F4C0       loc_4504C0
 0001:0004F4C9       loc_4504C9
 0001:0004F4CA       loc_4504CA
 0001:0004F4CD       loc_4504CD
 0001:0004F4E5       loc_4504E5
 0001:0004F4F5       loc_4504F5
 0001:0004F525       loc_450525
 0001:0004F529       sub_450529
 0001:0004F549       loc_450549
 0001:0004F568       loc_450568
 0001:0004F59E       loc_45059E
 0001:0004F5F8       sub_4505F8
 0001:0004F610       sub_450610
 0001:0004F643       loc_450643
 0001:0004F65C       loc_45065C
 0001:0004F66F       loc_45066F
 0001:0004F670       loc_450670
 0001:0004F69A       loc_45069A
 0001:0004F6B3       loc_4506B3
 0001:0004F6CC       loc_4506CC
 0001:0004F6D2       loc_4506D2
 0001:0004F6F1       loc_4506F1
 0001:0004F6F9       loc_4506F9
 0001:0004F706       loc_450706
 0001:0004F73F       loc_45073F
 0001:0004F74B       loc_45074B
 0001:0004F75B       loc_45075B
 0001:0004F762       loc_450762
 0001:0004F773       loc_450773
 0001:0004F778       loc_450778
 0001:0004F77B       loc_45077B
 0001:0004F782       sub_450782
 0001:0004F7D0       loc_4507D0
 0001:0004F7D2       loc_4507D2
 0001:0004F8AD       loc_4508AD
 0001:0004F8B0       loc_4508B0
 0001:0004F8B4       sub_4508B4
 0001:0004F8C3       loc_4508C3
 0001:0004F8C7       sub_4508C7
 0001:0004F915       loc_450915
 0001:0004F917       loc_450917
 0001:0004F94E       loc_45094E
 0001:0004F959       loc_450959
 0001:0004F9A8       loc_4509A8
 0001:0004F9D8       loc_4509D8
 0001:0004FA04       loc_450A04
 0001:0004FA14       loc_450A14
 0001:0004FA19       loc_450A19
 0001:0004FA1D       loc_450A1D
 0001:0004FA35       loc_450A35
 0001:0004FA42       loc_450A42
 0001:0004FA8D       loc_450A8D
 0001:0004FA98       loc_450A98
 0001:0004FAA5       loc_450AA5
 0001:0004FAAC       sub_450AAC
 0001:0004FAB9       locret_450AB9
 0001:0004FABA       sub_450ABA
 0001:0004FACE       loc_450ACE
 0001:0004FAE4       loc_450AE4
 0001:0004FAE8       sub_450AE8
 0001:0004FB2C       loc_450B2C
 0001:0004FBBB       loc_450BBB
 0001:0004FBC1       loc_450BC1
 0001:0004FBD1       loc_450BD1
 0001:0004FBD7       loc_450BD7
 0001:0004FC3B       loc_450C3B
 0001:0004FC47       loc_450C47
 0001:0004FC63       loc_450C63
 0001:0004FC8D       loc_450C8D
 0001:0004FC98       loc_450C98
 0001:0004FC9F       sub_450C9F
 0001:0004FCE2       loc_450CE2
 0001:0004FDAD       loc_450DAD
 0001:0004FDB9       loc_450DB9
 0001:0004FDC5       loc_450DC5
 0001:0004FDCA       sub_450DCA
 0001:0004FDDE       loc_450DDE
 0001:0004FEFB       loc_450EFB
 0001:0004FEFF       loc_450EFF
 0001:0004FF0B       loc_450F0B
 0001:0004FF12       loc_450F12
 0001:0004FF16       sub_450F16
 0001:0004FF52       loc_450F52
 0001:0004FF56       sub_450F56
 0001:0004FF65       loc_450F65
 0001:0004FF6D       loc_450F6D
 0001:0004FF7F       loc_450F7F
 0001:0004FF81       loc_450F81
 0001:0004FF95       sub_450F95
 0001:0004FFBE       sub_450FBE
 0001:0004FFEA       sub_450FEA
 0001:00050014       loc_451014
 0001:00050017       loc_451017
 0001:00050044       loc_451044
 0001:00050048       loc_451048
 0001:0005004B       loc_45104B
 0001:00050092       loc_451092
 0001:000500A0       loc_4510A0
 0001:000500A2       loc_4510A2
 0001:000500A5       loc_4510A5
 0001:000500C0       loc_4510C0
 0001:000500CE       loc_4510CE
 0001:000500D2       loc_4510D2
 0001:000500F5       loc_4510F5
 0001:00050103       loc_451103
 0001:00050105       loc_451105
 0001:00050109       sub_451109
 0001:0005012E       loc_45112E
 0001:00050141       loc_451141
 0001:00050188       sub_451188
 0001:000501DA       loc_4511DA
 0001:000501E6       sub_4511E6
 0001:000501FA       loc_4511FA
 0001:0005020B       loc_45120B
 0001:0005021C       loc_45121C
 0001:0005021E       sub_45121E
 0001:00050236       loc_451236
 0001:0005026A       loc_45126A
 0001:00050273       loc_451273
 0001:000502AC       sub_4512AC
 0001:000502CD       loc_4512CD
 0001:000502FA       loc_4512FA
 0001:0005031D       loc_45131D
 0001:00050347       loc_451347
 0001:0005034A       loc_45134A
 0001:0005036D       loc_45136D
 0001:0005036F       loc_45136F
 0001:00050374       loc_451374
 0001:00050379       sub_451379
 0001:000503BE       loc_4513BE
 0001:000503C4       loc_4513C4
 0001:000503C7       sub_4513C7
 0001:00050439       sub_451439
 0001:00050448       loc_451448
 0001:0005045E       locret_45145E
 0001:00050461       sub_451461
 0001:0005046D       loc_45146D
 0001:00050480       loc_451480
 0001:00050489       loc_451489
 0001:000504A2       loc_4514A2
 0001:000504B8       loc_4514B8
 0001:000504BB       loc_4514BB
 0001:000504D8       loc_4514D8
 0001:000504DD       loc_4514DD
 0001:000504EC       loc_4514EC
 0001:00050536       loc_451536
 0001:00050538       loc_451538
 0001:00050548       loc_451548
 0001:0005055C       loc_45155C
 0001:0005055F       loc_45155F
 0001:0005056C       loc_45156C
 0001:0005057F       loc_45157F
 0001:0005058D       loc_45158D
 0001:0005059A       loc_45159A
 0001:000505A1       sub_4515A1
 0001:000505E7       loc_4515E7
 0001:00050601       loc_451601
 0001:00050609       loc_451609
 0001:00050617       loc_451617
 0001:0005061D       sub_45161D
 0001:00050631       loc_451631
 0001:0005064C       loc_45164C
 0001:0005064F       loc_45164F
 0001:00050654       loc_451654
 0001:0005065A       sub_45165A
 0001:0005066E       loc_45166E
 0001:000506A2       loc_4516A2
 0001:000506C7       loc_4516C7
 0001:000506D1       loc_4516D1
 0001:000506E0       loc_4516E0
 0001:000506EE       sub_4516EE
 0001:00050703       loc_451703
 0001:0005072A       loc_45172A
 0001:0005072E       sub_45172E
 0001:0005075A       loc_45175A
 0001:00050781       loc_451781
 0001:000507A0       loc_4517A0
 0001:000507BA       loc_4517BA
 0001:000507C2       loc_4517C2
 0001:000507D1       loc_4517D1
 0001:000507D7       sub_4517D7
 0001:00050812       locret_451812
 0001:00050813       sub_451813
 0001:0005082C       loc_45182C
 0001:00050843       loc_451843
 0001:00050860       loc_451860
 0001:00050882       loc_451882
 0001:00050891       loc_451891
 0001:00050899       loc_451899
 0001:000508A1       loc_4518A1
 0001:000508B2       loc_4518B2
 0001:000508C2       loc_4518C2
 0001:000508D8       loc_4518D8
 0001:000508E9       loc_4518E9
 0001:000508FC       loc_4518FC
 0001:0005090E       loc_45190E
 0001:00050917       loc_451917
 0001:0005091D       loc_45191D
 0001:0005091F       loc_45191F
 0001:00050946       loc_451946
 0001:0005094D       loc_45194D
 0001:0005094F       loc_45194F
 0001:00050964       loc_451964
 0001:00050966       loc_451966
 0001:0005097D       loc_45197D
 0001:0005097F       loc_45197F
 0001:0005098E       loc_45198E
 0001:00050999       loc_451999
 0001:0005099B       loc_45199B
 0001:000509AA       loc_4519AA
 0001:000509B7       loc_4519B7
 0001:000509B9       loc_4519B9
 0001:000509CB       loc_4519CB
 0001:000509CD       loc_4519CD
 0001:000509DF       loc_4519DF
 0001:000509E3       loc_4519E3
 0001:000509F1       loc_4519F1
 0001:00050A31       loc_451A31
 0001:00050A35       loc_451A35
 0001:00050A44       loc_451A44
 0001:00050A50       loc_451A50
 0001:00050A52       loc_451A52
 0001:00050A6A       loc_451A6A
 0001:00050A6C       loc_451A6C
 0001:00050A80       loc_451A80
 0001:00050A82       loc_451A82
 0001:00050A94       loc_451A94
 0001:00050A96       loc_451A96
 0001:00050AA5       loc_451AA5
 0001:00050AB2       loc_451AB2
 0001:00050AB4       loc_451AB4
 0001:00050AC3       loc_451AC3
 0001:00050ACE       loc_451ACE
 0001:00050AD0       loc_451AD0
 0001:00050AE7       loc_451AE7
 0001:00050AE9       loc_451AE9
 0001:00050AFC       loc_451AFC
 0001:00050B18       loc_451B18
 0001:00050B1D       loc_451B1D
 0001:00050B22       off_451B22
 0001:00050B7E       byte_451B7E
 0001:00050BE0       sub_451BE0
 0001:00050C00       loc_451C00
 0001:00050C2C       loc_451C2C
 0001:00050C63       loc_451C63
 0001:00050C6E       loc_451C6E
 0001:00050C7A       loc_451C7A
 0001:00050C86       loc_451C86
 0001:00050C99       loc_451C99
 0001:00050CA7       loc_451CA7
 0001:00050CBE       loc_451CBE
 0001:00050CCE       loc_451CCE
 0001:00050CD1       loc_451CD1
 0001:00050CEF       loc_451CEF
 0001:00050D05       loc_451D05
 0001:00050D18       loc_451D18
 0001:00050D25       loc_451D25
 0001:00050D2D       loc_451D2D
 0001:00050D4D       loc_451D4D
 0001:00050D62       loc_451D62
 0001:00050D71       loc_451D71
 0001:00050D7D       loc_451D7D
 0001:00050D86       loc_451D86
 0001:00050D9C       loc_451D9C
 0001:00050DB6       loc_451DB6
 0001:00050DBF       loc_451DBF
 0001:00050DC6       loc_451DC6
 0001:00050DC8       loc_451DC8
 0001:00050DEB       loc_451DEB
 0001:00050E0C       loc_451E0C
 0001:00050E1D       loc_451E1D
 0001:00050E33       loc_451E33
 0001:00050E3A       loc_451E3A
 0001:00050E4C       loc_451E4C
 0001:00050E53       loc_451E53
 0001:00050E55       loc_451E55
 0001:00050E62       loc_451E62
 0001:00050E73       loc_451E73
 0001:00050EA2       loc_451EA2
 0001:00050EB8       loc_451EB8
 0001:00050EBD       loc_451EBD
 0001:00050EC6       loc_451EC6
 0001:00050ECF       loc_451ECF
 0001:00050ED0       loc_451ED0
 0001:00050ED1       loc_451ED1
 0001:00050ED9       sub_451ED9
 0001:00050EED       loc_451EED
 0001:00050EEE       loc_451EEE
 0001:00050F0D       loc_451F0D
 0001:00050F11       loc_451F11
 0001:00050F21       loc_451F21
 0001:00050F24       loc_451F24
 0001:00050F25       loc_451F25
 0001:00050F3B       sub_451F3B
 0001:00050F59       loc_451F59
 0001:00050F74       loc_451F74
 0001:00050F7B       loc_451F7B
 0001:00050F87       loc_451F87
 0001:00050F9C       loc_451F9C
 0001:00050FB7       loc_451FB7
 0001:00050FC2       loc_451FC2
 0001:00050FCB       loc_451FCB
 0001:00050FD0       sub_451FD0
 0001:00050FE1       loc_451FE1
 0001:00050FF4       loc_451FF4
 0001:0005100E       loc_45200E
 0001:0005101B       loc_45201B
 0001:0005102E       loc_45202E
 0001:00051031       loc_452031
 0001:00051036       loc_452036
 0001:00051049       loc_452049
 0001:0005105E       loc_45205E
 0001:00051067       loc_452067
 0001:00051081       loc_452081
 0001:00051089       loc_452089
 0001:0005109B       loc_45209B
 0001:000510A0       loc_4520A0
 0001:000510AB       loc_4520AB
 0001:000510B7       loc_4520B7
 0001:000510BB       loc_4520BB
 0001:000510BC       loc_4520BC
 0001:000510E2       loc_4520E2
 0001:000510E4       loc_4520E4
 0001:000510E5       loc_4520E5
 0001:000510F4       loc_4520F4
 0001:000510FB       sub_4520FB
 0001:00051100       loc_452100
 0001:00051133       loc_452133
 0001:00051137       loc_452137
 0001:0005113D       loc_45213D
 0001:00051141       loc_452141
 0001:00051155       loc_452155
 0001:00051160       loc_452160
 0001:00051166       loc_452166
 0001:0005117A       sub_45217A
 0001:00051186       loc_452186
 0001:0005118E       loc_45218E
 0001:0005119C       loc_45219C
 0001:000511A6       loc_4521A6
 0001:000511A8       loc_4521A8
 0001:000511C0       loc_4521C0
 0001:000511D1       loc_4521D1
 0001:000511D9       loc_4521D9
 0001:000511E1       loc_4521E1
 0001:000511F4       loc_4521F4
 0001:00051203       loc_452203
 0001:00051211       loc_452211
 0001:00051216       loc_452216
 0001:00051222       loc_452222
 0001:0005123B       loc_45223B
 0001:0005123D       loc_45223D
 0001:00051242       loc_452242
 0001:00051244       loc_452244
 0001:00051248       loc_452248
 0001:0005127F       loc_45227F
 0001:00051280       loc_452280
 0001:0005128E       loc_45228E
 0001:00051291       loc_452291
 0001:00051295       loc_452295
 0001:00051299       loc_452299
 0001:0005129E       off_45229E
 0001:000512CE       byte_4522CE
 0001:00051334       sub_452334
 0001:00051336       loc_452336
 0001:00051345       loc_452345
 0001:00051361       loc_452361
 0001:0005137A       loc_45237A
 0001:0005137F       loc_45237F
 0001:00051382       loc_452382
 0001:0005138C       loc_45238C
 0001:0005138E       loc_45238E
 0001:00051395       loc_452395
 0001:00051397       loc_452397
 0001:000513A0       locret_4523A0
 0001:000513A1       sub_4523A1
 0001:000513BE       loc_4523BE
 0001:00051401       loc_452401
 0001:00051431       loc_452431
 0001:00051438       loc_452438
 0001:0005143B       loc_45243B
 0001:00051445       loc_452445
 0001:00051449       loc_452449
 0001:0005144E       loc_45244E
 0001:0005145C       loc_45245C
 0001:00051475       loc_452475
 0001:0005148A       loc_45248A
 0001:00051493       loc_452493
 0001:000514A2       loc_4524A2
 0001:000514A5       loc_4524A5
 0001:000514AE       loc_4524AE
 0001:000514C4       loc_4524C4
 0001:000514C6       loc_4524C6
 0001:000514CB       off_4524CB
 0001:000514E3       byte_4524E3
 0001:00051534       sub_452534
 0001:0005153F       loc_45253F
 0001:00051545       loc_452545
 0001:00051546       loc_452546
 0001:00051567       loc_452567
 0001:0005156A       sub_45256A
 0001:00051573       loc_452573
 0001:00051595       loc_452595
 0001:000515AD       loc_4525AD
 0001:000515B0       loc_4525B0
 0001:000515B4       sub_4525B4
 0001:000515C2       loc_4525C2
 0001:000515D6       loc_4525D6
 0001:000515EF       loc_4525EF
 0001:000515F4       loc_4525F4
 0001:000515F7       loc_4525F7
 0001:00051601       loc_452601
 0001:00051603       loc_452603
 0001:0005160A       loc_45260A
 0001:0005160C       loc_45260C
 0001:00051613       loc_452613
 0001:00051618       loc_452618
 0001:0005162A       loc_45262A
 0001:00051644       loc_452644
 0001:00051657       loc_452657
 0001:0005165C       loc_45265C
 0001:00051681       loc_452681
 0001:00051686       sub_452686
 0001:0005169B       loc_45269B
 0001:000516A7       loc_4526A7
 0001:000516B4       loc_4526B4
 0001:000516B9       loc_4526B9
 0001:000516EF       loc_4526EF
 0001:00051712       loc_452712
 0001:0005171A       loc_45271A
 0001:00051738       loc_452738
 0001:00051747       loc_452747
 0001:00051757       loc_452757
 0001:0005175E       loc_45275E
 0001:00051763       loc_452763
 0001:00051764       loc_452764
 0001:00051776       loc_452776
 0001:000517ED       loc_4527ED
 0001:000517F3       loc_4527F3
 0001:000517FB       loc_4527FB
 0001:0005181E       loc_45281E
 0001:00051826       loc_452826
 0001:00051844       loc_452844
 0001:00051850       loc_452850
 0001:00051861       loc_452861
 0001:00051876       loc_452876
 0001:0005188B       loc_45288B
 0001:000518A0       loc_4528A0
 0001:000518B5       loc_4528B5
 0001:00051907       loc_452907
 0001:0005191F       loc_45291F
 0001:00051926       loc_452926
 0001:0005192B       loc_45292B
 0001:00051933       loc_452933
 0001:00051955       loc_452955
 0001:0005195B       loc_45295B
 0001:00051961       loc_452961
 0001:00051986       loc_452986
 0001:0005198A       loc_45298A
 0001:00051992       loc_452992
 0001:000519BA       loc_4529BA
 0001:000519C3       loc_4529C3
 0001:000519F3       loc_4529F3
 0001:000519FB       loc_4529FB
 0001:000519FE       loc_4529FE
 0001:00051A15       loc_452A15
 0001:00051A2C       loc_452A2C
 0001:00051A36       loc_452A36
 0001:00051A41       loc_452A41
 0001:00051AB4       loc_452AB4
 0001:00051ACC       loc_452ACC
 0001:00051AE4       loc_452AE4
 0001:00051AFC       loc_452AFC
 0001:00051B14       loc_452B14
 0001:00051B54       loc_452B54
 0001:00051B5D       loc_452B5D
 0001:00051B66       loc_452B66
 0001:00051B8E       loc_452B8E
 0001:00051B97       loc_452B97
 0001:00051BBF       loc_452BBF
 0001:00051BC8       loc_452BC8
 0001:00051BDD       loc_452BDD
 0001:00051BE2       loc_452BE2
 0001:00051BEC       loc_452BEC
 0001:00051BF8       loc_452BF8
 0001:00051C0A       loc_452C0A
 0001:00051C10       loc_452C10
 0001:00051C12       loc_452C12
 0001:00051C16       loc_452C16
 0001:00051C20       sub_452C20
 0001:00051C8E       loc_452C8E
 0001:00051CB7       loc_452CB7
 0001:00051D06       loc_452D06
 0001:00051D09       loc_452D09
 0001:00051D11       loc_452D11
 0001:00051D22       loc_452D22
 0001:00051D4A       loc_452D4A
 0001:00051D6B       loc_452D6B
 0001:00051D70       loc_452D70
 0001:00051D77       loc_452D77
 0001:00051D9D       loc_452D9D
 0001:00051DC3       loc_452DC3
 0001:00051DD6       loc_452DD6
 0001:00051DDA       loc_452DDA
 0001:00051DF8       loc_452DF8
 0001:00051E04       loc_452E04
 0001:00051E07       loc_452E07
 0001:00051E54       loc_452E54
 0001:00051E5D       loc_452E5D
 0001:00051EAB       loc_452EAB
 0001:00051ED9       loc_452ED9
 0001:00051EF8       loc_452EF8
 0001:00051F1A       loc_452F1A
 0001:00051F32       loc_452F32
 0001:00051F41       loc_452F41
 0001:00051F4F       loc_452F4F
 0001:00051FAD       loc_452FAD
 0001:00051FD5       loc_452FD5
 0001:00052002       loc_453002
 0001:0005200E       loc_45300E
 0001:00052013       loc_453013
 0001:00052021       loc_453021
 0001:0005202F       loc_45302F
 0001:00052038       loc_453038
 0001:00052060       loc_453060
 0001:00052076       loc_453076
 0001:00052079       loc_453079
 0001:00052089       loc_453089
 0001:000520A7       loc_4530A7
 0001:000520DF       loc_4530DF
 0001:000520ED       loc_4530ED
 0001:000520F0       loc_4530F0
 0001:000520FD       loc_4530FD
 0001:0005210A       loc_45310A
 0001:0005212E       loc_45312E
 0001:0005213C       loc_45313C
 0001:0005214C       loc_45314C
 0001:00052188       loc_453188
 0001:000521AA       loc_4531AA
 0001:000521AF       loc_4531AF
 0001:000521B5       loc_4531B5
 0001:000521DD       loc_4531DD
 0001:000521F2       loc_4531F2
 0001:000521FC       loc_4531FC
 0001:0005220B       loc_45320B
 0001:00052215       loc_453215
 0001:00052223       loc_453223
 0001:0005222C       loc_45322C
 0001:0005223A       loc_45323A
 0001:0005224C       loc_45324C
 0001:00052253       loc_453253
 0001:00052257       loc_453257
 0001:00052282       loc_453282
 0001:000522B9       loc_4532B9
 0001:000522C0       loc_4532C0
 0001:000522C9       loc_4532C9
 0001:000522CD       loc_4532CD
 0001:000522E0       loc_4532E0
 0001:000522FC       loc_4532FC
 0001:00052309       loc_453309
 0001:00052339       loc_453339
 0001:0005233F       loc_45333F
 0001:00052349       loc_453349
 0001:0005234E       loc_45334E
 0001:00052353       loc_453353
 0001:0005236B       loc_45336B
 0001:00052370       loc_453370
 0001:00052373       loc_453373
 0001:00052375       loc_453375
 0001:0005237A       loc_45337A
 0001:000523A9       loc_4533A9
 0001:000523B1       loc_4533B1
 0001:000523C7       loc_4533C7
 0001:000523E9       loc_4533E9
 0001:000523F2       loc_4533F2
 0001:000523F7       loc_4533F7
 0001:000523FA       loc_4533FA
 0001:0005240B       loc_45340B
 0001:00052425       loc_453425
 0001:00052451       loc_453451
 0001:0005246D       loc_45346D
 0001:00052490       loc_453490
 0001:000524A2       loc_4534A2
 0001:000524AE       loc_4534AE
 0001:000524BB       loc_4534BB
 0001:000524DE       loc_4534DE
 0001:00052504       loc_453504
 0001:00052511       loc_453511
 0001:0005254F       loc_45354F
 0001:0005255D       loc_45355D
 0001:0005256A       loc_45356A
 0001:0005259E       loc_45359E
 0001:000525A3       loc_4535A3
 0001:000525A5       loc_4535A5
 0001:000525B5       loc_4535B5
 0001:000525CE       loc_4535CE
 0001:000525FC       loc_4535FC
 0001:00052603       loc_453603
 0001:00052619       loc_453619
 0001:0005261C       loc_45361C
 0001:00052624       loc_453624
 0001:0005262D       loc_45362D
 0001:00052634       loc_453634
 0001:00052636       loc_453636
 0001:0005263E       loc_45363E
 0001:0005264D       loc_45364D
 0001:00052650       loc_453650
 0001:000526A6       loc_4536A6
 0001:000526C8       loc_4536C8
 0001:000526CB       loc_4536CB
 0001:0005271D       loc_45371D
 0001:00052736       loc_453736
 0001:0005276D       loc_45376D
 0001:00052771       loc_453771
 0001:00052777       loc_453777
 0001:00052786       loc_453786
 0001:0005278F       loc_45378F
 0001:00052792       loc_453792
 0001:0005279A       loc_45379A
 0001:000527B0       loc_4537B0
 0001:000527BB       loc_4537BB
 0001:000527C5       loc_4537C5
 0001:000527DC       loc_4537DC
 0001:00052807       loc_453807
 0001:00052845       loc_453845
 0001:0005284D       loc_45384D
 0001:00052852       loc_453852
 0001:00052859       loc_453859
 0001:00052882       loc_453882
 0001:00052892       loc_453892
 0001:0005289D       loc_45389D
 0001:000528E6       loc_4538E6
 0001:000528EE       loc_4538EE
 0001:000528FA       loc_4538FA
 0001:00052917       loc_453917
 0001:00052945       loc_453945
 0001:00052956       loc_453956
 0001:00052959       loc_453959
 0001:00052967       loc_453967
 0001:0005297C       loc_45397C
 0001:00052989       loc_453989
 0001:000529B1       loc_4539B1
 0001:000529BE       loc_4539BE
 0001:000529E2       loc_4539E2
 0001:000529F5       loc_4539F5
 0001:00052A1E       loc_453A1E
 0001:00052A28       loc_453A28
 0001:00052A4F       loc_453A4F
 0001:00052AA6       loc_453AA6
 0001:00052AA9       loc_453AA9
 0001:00052AF6       loc_453AF6
 0001:00052B0D       loc_453B0D
 0001:00052B3B       loc_453B3B
 0001:00052B48       loc_453B48
 0001:00052B52       loc_453B52
 0001:00052B72       loc_453B72
 0001:00052B86       loc_453B86
 0001:00052BB0       loc_453BB0
 0001:00052BB4       loc_453BB4
 0001:00052BBB       loc_453BBB
 0001:00052BCD       loc_453BCD
 0001:00052BE4       loc_453BE4
 0001:00052BE8       loc_453BE8
 0001:00052C05       loc_453C05
 0001:00052C1F       loc_453C1F
 0001:00052C33       loc_453C33
 0001:00052C53       loc_453C53
 0001:00052C78       loc_453C78
 0001:00052C97       loc_453C97
 0001:00052CD9       loc_453CD9
 0001:00052CFC       loc_453CFC
 0001:00052D37       loc_453D37
 0001:00052D46       loc_453D46
 0001:00052D55       loc_453D55
 0001:00052D5D       loc_453D5D
 0001:00052D68       loc_453D68
 0001:00052D71       loc_453D71
 0001:00052D76       loc_453D76
 0001:00052D88       loc_453D88
 0001:00052D96       loc_453D96
 0001:00052DA9       loc_453DA9
 0001:00052DE7       loc_453DE7
 0001:00052DF0       loc_453DF0
 0001:00052DF7       loc_453DF7
 0001:00052DFD       loc_453DFD
 0001:00052E13       loc_453E13
 0001:00052E1B       loc_453E1B
 0001:00052E27       loc_453E27
 0001:00052E6F       loc_453E6F
 0001:00052E71       loc_453E71
 0001:00052E87       loc_453E87
 0001:00052E89       loc_453E89
 0001:00052EA1       loc_453EA1
 0001:00052EA8       loc_453EA8
 0001:00052EC0       loc_453EC0
 0001:00052EC7       loc_453EC7
 0001:00052EE1       loc_453EE1
 0001:00052EE3       loc_453EE3
 0001:00052EF6       loc_453EF6
 0001:00052EF8       loc_453EF8
 0001:00052F0D       loc_453F0D
 0001:00052F3D       loc_453F3D
 0001:00052F59       loc_453F59
 0001:00052F65       loc_453F65
 0001:00052F79       loc_453F79
 0001:00052F7D       loc_453F7D
 0001:00052F82       loc_453F82
 0001:00052F91       loc_453F91
 0001:00052FA3       loc_453FA3
 0001:00052FAA       loc_453FAA
 0001:00052FBE       loc_453FBE
 0001:00052FC3       loc_453FC3
 0001:00052FD2       loc_453FD2
 0001:00052FE6       loc_453FE6
 0001:00052FE9       loc_453FE9
 0001:00052FEE       loc_453FEE
 0001:00052FFF       loc_453FFF
 0001:00053005       loc_454005
 0001:00053014       loc_454014
 0001:00053018       loc_454018
 0001:00053039       loc_454039
 0001:0005304B       loc_45404B
 0001:00053066       loc_454066
 0001:0005306D       loc_45406D
 0001:00053074       loc_454074
 0001:0005308C       loc_45408C
 0001:000530D2       loc_4540D2
 0001:000530D6       loc_4540D6
 0001:000530EE       loc_4540EE
 0001:000530F2       loc_4540F2
 0001:0005311E       loc_45411E
 0001:0005315B       loc_45415B
 0001:00053168       loc_454168
 0001:00053174       loc_454174
 0001:00053180       loc_454180
 0001:00053188       loc_454188
 0001:0005318B       loc_45418B
 0001:000531CB       loc_4541CB
 0001:000531D4       loc_4541D4
 0001:0005321B       loc_45421B
 0001:00053228       loc_454228
 0001:0005322A       loc_45422A
 0001:00053230       loc_454230
 0001:00053233       loc_454233
 0001:0005324E       loc_45424E
 0001:00053252       loc_454252
 0001:00053272       loc_454272
 0001:0005328A       loc_45428A
 0001:00053294       loc_454294
 0001:000532B8       loc_4542B8
 0001:000532C5       loc_4542C5
 0001:000532D8       loc_4542D8
 0001:000532E0       loc_4542E0
 0001:000532E7       loc_4542E7
 0001:000532EA       loc_4542EA
 0001:00053307       loc_454307
 0001:0005333E       loc_45433E
 0001:0005334A       loc_45434A
 0001:0005334D       loc_45434D
 0001:0005339D       loc_45439D
 0001:000533D5       loc_4543D5
 0001:00053408       loc_454408
 0001:00053426       loc_454426
 0001:0005342E       loc_45442E
 0001:00053444       loc_454444
 0001:00053454       loc_454454
 0001:0005345B       loc_45445B
 0001:00053490       loc_454490
 0001:000534C3       loc_4544C3
 0001:000534D4       loc_4544D4
 0001:00053525       loc_454525
 0001:00053537       loc_454537
 0001:00053547       loc_454547
 0001:0005355E       loc_45455E
 0001:00053582       loc_454582
 0001:00053598       loc_454598
 0001:000535A5       loc_4545A5
 0001:000535A7       loc_4545A7
 0001:000535FA       loc_4545FA
 0001:00053610       loc_454610
 0001:00053642       loc_454642
 0001:00053674       loc_454674
 0001:000536A5       loc_4546A5
 0001:000536B7       loc_4546B7
 0001:000536C4       loc_4546C4
 0001:000536FF       loc_4546FF
 0001:0005372D       loc_45472D
 0001:00053759       loc_454759
 0001:00053761       loc_454761
 0001:00053777       loc_454777
 0001:00053789       loc_454789
 0001:0005379B       loc_45479B
 0001:000537A7       loc_4547A7
 0001:000537C7       loc_4547C7
 0001:000537D8       loc_4547D8
 0001:000537F0       loc_4547F0
 0001:0005380B       loc_45480B
 0001:00053824       loc_454824
 0001:0005383D       loc_45483D
 0001:0005384B       loc_45484B
 0001:00053865       loc_454865
 0001:0005387F       loc_45487F
 0001:0005389A       loc_45489A
 0001:000538A7       loc_4548A7
 0001:000538AA       loc_4548AA
 0001:000538B2       loc_4548B2
 0001:000538D9       loc_4548D9
 0001:0005390C       loc_45490C
 0001:00053910       loc_454910
 0001:0005392E       loc_45492E
 0001:0005393C       loc_45493C
 0001:00053943       loc_454943
 0001:0005394D       loc_45494D
 0001:00053952       loc_454952
 0001:00053954       loc_454954
 0001:00053957       loc_454957
 0001:0005395A       loc_45495A
 0001:0005395D       loc_45495D
 0001:00053975       loc_454975
 0001:00053984       loc_454984
 0001:000539C2       loc_4549C2
 0001:000539CA       loc_4549CA
 0001:000539CF       loc_4549CF
 0001:000539D4       loc_4549D4
 0001:000539D9       loc_4549D9
 0001:000539DE       loc_4549DE
 0001:000539E3       loc_4549E3
 0001:000539F9       loc_4549F9
 0001:00053A36       loc_454A36
 0001:00053A3B       loc_454A3B
 0001:00053A40       loc_454A40
 0001:00053A45       loc_454A45
 0001:00053A4A       loc_454A4A
 0001:00053A4D       loc_454A4D
 0001:00053A5A       loc_454A5A
 0001:00053A64       loc_454A64
 0001:00053A72       loc_454A72
 0001:00053A80       loc_454A80
 0001:00053A91       loc_454A91
 0001:00053AA3       loc_454AA3
 0001:00053AB5       loc_454AB5
 0001:00053AC3       loc_454AC3
 0001:00053AD1       loc_454AD1
 0001:00053ADF       loc_454ADF
 0001:00053AF1       loc_454AF1
 0001:00053AFF       loc_454AFF
 0001:00053B0D       loc_454B0D
 0001:00053B1B       loc_454B1B
 0001:00053B29       loc_454B29
 0001:00053B37       loc_454B37
 0001:00053B42       loc_454B42
 0001:00053B5A       loc_454B5A
 0001:00053B65       loc_454B65
 0001:00053B70       loc_454B70
 0001:00053B7B       loc_454B7B
 0001:00053B86       loc_454B86
 0001:00053B91       loc_454B91
 0001:00053B9C       loc_454B9C
 0001:00053BA7       loc_454BA7
 0001:00053BB2       loc_454BB2
 0001:00053BBB       loc_454BBB
 0001:00053BC5       loc_454BC5
 0001:00053BCD       sub_454BCD
 0001:00053C2C       loc_454C2C
 0001:00053C3B       loc_454C3B
 0001:00053C58       loc_454C58
 0001:00053C75       loc_454C75
 0001:00053CB0       loc_454CB0
 0001:00053CD0       loc_454CD0
 0001:00053CE7       loc_454CE7
 0001:00053CEB       loc_454CEB
 0001:00053CF1       loc_454CF1
 0001:00053CFE       loc_454CFE
 0001:00053D14       loc_454D14
 0001:00053D17       loc_454D17
 0001:00053D1A       loc_454D1A
 0001:00053D42       loc_454D42
 0001:00053D5F       loc_454D5F
 0001:00053D7C       loc_454D7C
 0001:00053D88       loc_454D88
 0001:00053D90       loc_454D90
 0001:00053D97       loc_454D97
 0001:00053DAD       loc_454DAD
 0001:00053DB7       loc_454DB7
 0001:00053DD7       loc_454DD7
 0001:00053E0D       loc_454E0D
 0001:00053E55       loc_454E55
 0001:00053E59       loc_454E59
 0001:00053E5C       loc_454E5C
 0001:00053E61       sub_454E61
 0001:00053E70       loc_454E70
 0001:00053EA8       loc_454EA8
 0001:00053EAF       loc_454EAF
 0001:00053ECD       loc_454ECD
 0001:00053EDB       loc_454EDB
 0001:00053EDD       loc_454EDD
 0001:00053EE1       loc_454EE1
 0001:00053EF5       loc_454EF5
 0001:00053EF9       loc_454EF9
 0001:00053F07       loc_454F07
 0001:00053F1D       loc_454F1D
 0001:00053F22       sub_454F22
 0001:00053F31       loc_454F31
 0001:00053F67       loc_454F67
 0001:00053F6D       loc_454F6D
 0001:00053F90       loc_454F90
 0001:00053F98       loc_454F98
 0001:00053F9A       loc_454F9A
 0001:00053F9E       loc_454F9E
 0001:00053FA0       loc_454FA0
 0001:00053FAD       loc_454FAD
 0001:00053FC3       loc_454FC3
 0001:00053FC7       sub_454FC7
 0001:00053FD5       loc_454FD5
 0001:0005400A       loc_45500A
 0001:00054026       loc_455026
 0001:0005402A       loc_45502A
 0001:0005402E       loc_45502E
 0001:0005403F       loc_45503F
 0001:00054043       loc_455043
 0001:00054052       loc_455052
 0001:00054071       loc_455071
 0001:00054076       sub_455076
 0001:00054094       loc_455094
 0001:000540A3       loc_4550A3
 0001:000540BA       loc_4550BA
 0001:000540BE       loc_4550BE
 0001:000540C9       loc_4550C9
 0001:000540CD       loc_4550CD
 0001:000540D0       loc_4550D0
 0001:000540D1       loc_4550D1
 0001:000540D4       sub_4550D4
 0001:000540F6       loc_4550F6
 0001:0005411F       loc_45511F
 0001:00054144       loc_455144
 0001:00054147       loc_455147
 0001:0005415E       loc_45515E
 0001:00054186       loc_455186
 0001:000541A3       loc_4551A3
 0001:000541AA       loc_4551AA
 0001:000541BB       loc_4551BB
 0001:000541F0       loc_4551F0
 0001:000541FA       loc_4551FA
 0001:00054204       loc_455204
 0001:0005420D       loc_45520D
 0001:00054215       loc_455215
 0001:00054258       loc_455258
 0001:0005425F       loc_45525F
 0001:00054266       loc_455266
 0001:0005429A       loc_45529A
 0001:000542A9       loc_4552A9
 0001:000542B8       loc_4552B8
 0001:000542D5       loc_4552D5
 0001:00054309       loc_455309
 0001:00054322       loc_455322
 0001:0005432A       loc_45532A
 0001:0005433D       loc_45533D
 0001:00054344       loc_455344
 0001:0005434C       loc_45534C
 0001:00054352       loc_455352
 0001:00054387       loc_455387
 0001:00054396       loc_455396
 0001:000543A0       loc_4553A0
 0001:000543E4       loc_4553E4
 0001:0005441D       loc_45541D
 0001:00054431       loc_455431
 0001:00054458       loc_455458
 0001:0005446C       loc_45546C
 0001:0005446F       loc_45546F
 0001:000544AC       loc_4554AC
 0001:000544D5       loc_4554D5
 0001:000544D9       loc_4554D9
 0001:00054514       loc_455514
 0001:00054533       loc_455533
 0001:00054562       loc_455562
 0001:00054565       loc_455565
 0001:000545A4       loc_4555A4
 0001:0005460A       loc_45560A
 0001:00054619       loc_455619
 0001:0005464C       loc_45564C
 0001:00054656       loc_455656
 0001:0005467A       loc_45567A
 0001:0005467D       loc_45567D
 0001:00054683       loc_455683
 0001:00054689       loc_455689
 0001:0005468E       loc_45568E
 0001:00054694       loc_455694
 0001:00054698       loc_455698
 0001:0005469D       loc_45569D
 0001:000546C1       loc_4556C1
 0001:000546E2       loc_4556E2
 0001:000546E8       loc_4556E8
 0001:000546F8       loc_4556F8
 0001:00054729       loc_455729
 0001:00054737       loc_455737
 0001:00054760       loc_455760
 0001:0005476B       loc_45576B
 0001:00054781       loc_455781
 0001:00054783       loc_455783
 0001:00054799       loc_455799
 0001:0005479B       loc_45579B
 0001:000547AC       loc_4557AC
 0001:000547B3       loc_4557B3
 0001:000547C2       loc_4557C2
 0001:000547F1       loc_4557F1
 0001:00054818       loc_455818
 0001:00054829       loc_455829
 0001:00054842       loc_455842
 0001:0005485B       loc_45585B
 0001:00054874       loc_455874
 0001:0005488D       loc_45588D
 0001:000548A6       loc_4558A6
 0001:000548BF       loc_4558BF
 0001:00054904       loc_455904
 0001:0005490D       loc_45590D
 0001:00054924       loc_455924
 0001:00054964       loc_455964
 0001:00054995       loc_455995
 0001:000549A0       loc_4559A0
 0001:000549E3       loc_4559E3
 0001:00054A19       loc_455A19
 0001:00054A5E       loc_455A5E
 0001:00054AA3       loc_455AA3
 0001:00054ACB       loc_455ACB
 0001:00054AD1       loc_455AD1
 0001:00054B15       loc_455B15
 0001:00054B1A       loc_455B1A
 0001:00054B48       loc_455B48
 0001:00054B5A       loc_455B5A
 0001:00054B86       loc_455B86
 0001:00054BAC       loc_455BAC
 0001:00054BCF       loc_455BCF
 0001:00054C11       loc_455C11
 0001:00054C16       loc_455C16
 0001:00054C45       loc_455C45
 0001:00054C4D       loc_455C4D
 0001:00054C4F       loc_455C4F
 0001:00054C54       loc_455C54
 0001:00054C87       loc_455C87
 0001:00054CAA       loc_455CAA
 0001:00054CBF       loc_455CBF
 0001:00054CDD       loc_455CDD
 0001:00054CE8       loc_455CE8
 0001:00054CF5       loc_455CF5
 0001:00054CF8       loc_455CF8
 0001:00054D10       loc_455D10
 0001:00054D15       loc_455D15
 0001:00054D20       loc_455D20
 0001:00054D26       loc_455D26
 0001:00054D29       loc_455D29
 0001:00054D37       loc_455D37
 0001:00054D5B       loc_455D5B
 0001:00054D62       loc_455D62
 0001:00054D94       loc_455D94
 0001:00054DB0       loc_455DB0
 0001:00054DC8       loc_455DC8
 0001:00054DDE       loc_455DDE
 0001:00054DE3       loc_455DE3
 0001:00054DFD       loc_455DFD
 0001:00054E2C       loc_455E2C
 0001:00054E36       loc_455E36
 0001:00054E4A       loc_455E4A
 0001:00054E67       loc_455E67
 0001:00054E7A       loc_455E7A
 0001:00054E94       loc_455E94
 0001:00054EC3       loc_455EC3
 0001:00054EE6       loc_455EE6
 0001:00054EEC       loc_455EEC
 0001:00054EF7       loc_455EF7
 0001:00054F04       loc_455F04
 0001:00054F1E       loc_455F1E
 0001:00054F29       loc_455F29
 0001:00054F2F       loc_455F2F
 0001:00054F32       loc_455F32
 0001:00054F40       loc_455F40
 0001:00054F54       loc_455F54
 0001:00054F59       loc_455F59
 0001:00054F7D       loc_455F7D
 0001:00054F84       loc_455F84
 0001:00054FB6       loc_455FB6
 0001:00054FD2       loc_455FD2
 0001:00054FEA       loc_455FEA
 0001:00055000       loc_456000
 0001:00055005       loc_456005
 0001:0005501F       loc_45601F
 0001:0005504E       loc_45604E
 0001:00055058       loc_456058
 0001:0005506C       loc_45606C
 0001:00055089       loc_456089
 0001:0005509C       loc_45609C
 0001:000550B6       loc_4560B6
 0001:000550E5       loc_4560E5
 0001:000550F9       loc_4560F9
 0001:00055113       loc_456113
 0001:0005511E       loc_45611E
 0001:00055124       loc_456124
 0001:0005512A       loc_45612A
 0001:0005513B       loc_45613B
 0001:0005514F       loc_45614F
 0001:00055157       loc_456157
 0001:0005517E       loc_45617E
 0001:00055185       loc_456185
 0001:000551B9       loc_4561B9
 0001:000551CD       loc_4561CD
 0001:000551F9       loc_4561F9
 0001:00055221       loc_456221
 0001:0005522F       loc_45622F
 0001:00055236       loc_456236
 0001:00055246       loc_456246
 0001:00055272       loc_456272
 0001:0005527C       loc_45627C
 0001:00055289       loc_456289
 0001:00055295       loc_456295
 0001:000552A0       loc_4562A0
 0001:000552D4       loc_4562D4
 0001:000552DF       loc_4562DF
 0001:00055301       loc_456301
 0001:0005530B       loc_45630B
 0001:00055316       loc_456316
 0001:0005533C       loc_45633C
 0001:00055346       loc_456346
 0001:00055351       loc_456351
 0001:00055377       loc_456377
 0001:00055381       loc_456381
 0001:00055392       loc_456392
 0001:000553B1       loc_4563B1
 0001:000553C2       loc_4563C2
 0001:000553E1       loc_4563E1
 0001:000553F2       loc_4563F2
 0001:0005540E       loc_45640E
 0001:0005541B       loc_45641B
 0001:00055437       loc_456437
 0001:00055444       loc_456444
 0001:00055460       loc_456460
 0001:0005546D       loc_45646D
 0001:00055487       loc_456487
 0001:000554B5       loc_4564B5
 0001:000554C6       loc_4564C6
 0001:000554F3       loc_4564F3
 0001:00055518       loc_456518
 0001:00055529       loc_456529
 0001:00055538       loc_456538
 0001:0005553F       loc_45653F
 0001:0005554A       loc_45654A
 0001:0005556A       loc_45656A
 0001:0005558E       loc_45658E
 0001:0005558F       loc_45658F
 0001:0005559A       loc_45659A
 0001:000555A5       loc_4565A5
 0001:000555D9       loc_4565D9
 0001:000555E4       loc_4565E4
 0001:00055604       loc_456604
 0001:00055610       loc_456610
 0001:0005561B       loc_45661B
 0001:00055661       loc_456661
 0001:0005566C       loc_45666C
 0001:00055696       loc_456696
 0001:000556A2       loc_4566A2
 0001:000556AA       loc_4566AA
 0001:000556CF       loc_4566CF
 0001:000556D7       loc_4566D7
 0001:000556F5       loc_4566F5
 0001:000556F9       loc_4566F9
 0001:00055713       loc_456713
 0001:00055717       loc_456717
 0001:00055731       loc_456731
 0001:00055735       loc_456735
 0001:0005574F       loc_45674F
 0001:00055753       loc_456753
 0001:0005576B       loc_45676B
 0001:00055785       loc_456785
 0001:000557B4       loc_4567B4
 0001:000557C2       loc_4567C2
 0001:000557CC       loc_4567CC
 0001:000557D1       loc_4567D1
 0001:000557F8       loc_4567F8
 0001:0005580E       loc_45680E
 0001:0005581C       loc_45681C
 0001:00055822       loc_456822
 0001:0005585C       loc_45685C
 0001:00055866       loc_456866
 0001:0005588C       loc_45688C
 0001:000558B4       loc_4568B4
 0001:000558DE       loc_4568DE
 0001:000558E2       loc_4568E2
 0001:000558ED       loc_4568ED
 0001:000558F6       loc_4568F6
 0001:000558FD       loc_4568FD
 0001:0005593A       loc_45693A
 0001:00055977       loc_456977
 0001:000559B7       loc_4569B7
 0001:000559F4       loc_4569F4
 0001:00055A36       loc_456A36
 0001:00055A3A       loc_456A3A
 0001:00055A41       loc_456A41
 0001:00055A79       loc_456A79
 0001:00055AB8       loc_456AB8
 0001:00055ADA       loc_456ADA
 0001:00055AE8       loc_456AE8
 0001:00055AF7       loc_456AF7
 0001:00055B0D       loc_456B0D
 0001:00055B27       loc_456B27
 0001:00055B32       loc_456B32
 0001:00055B57       loc_456B57
 0001:00055B70       loc_456B70
 0001:00055B73       loc_456B73
 0001:00055BA0       loc_456BA0
 0001:00055BDA       loc_456BDA
 0001:00055C2C       loc_456C2C
 0001:00055C4D       loc_456C4D
 0001:00055C6A       loc_456C6A
 0001:00055C78       loc_456C78
 0001:00055CA8       loc_456CA8
 0001:00055CCA       loc_456CCA
 0001:00055CD5       loc_456CD5
 0001:00055CFA       loc_456CFA
 0001:00055D03       loc_456D03
 0001:00055D0A       loc_456D0A
 0001:00055D3B       loc_456D3B
 0001:00055D75       loc_456D75
 0001:00055D97       loc_456D97
 0001:00055D9F       loc_456D9F
 0001:00055DCA       loc_456DCA
 0001:00055DD3       loc_456DD3
 0001:00055DDA       loc_456DDA
 0001:00055E09       loc_456E09
 0001:00055E16       loc_456E16
 0001:00055E45       loc_456E45
 0001:00055E67       loc_456E67
 0001:00055E74       loc_456E74
 0001:00055E9C       loc_456E9C
 0001:00055EBE       loc_456EBE
 0001:00055ECB       loc_456ECB
 0001:00055EFA       loc_456EFA
 0001:00055F1C       loc_456F1C
 0001:00055F29       loc_456F29
 0001:00055F51       loc_456F51
 0001:00055F73       loc_456F73
 0001:00055F86       loc_456F86
 0001:00055FC5       loc_456FC5
 0001:00055FEA       loc_456FEA
 0001:00056004       loc_457004
 0001:00056028       loc_457028
 0001:00056031       loc_457031
 0001:00056049       loc_457049
 0001:00056062       loc_457062
 0001:00056073       loc_457073
 0001:00056088       loc_457088
 0001:0005609D       loc_45709D
 0001:000560A6       loc_4570A6
 0001:000560AF       loc_4570AF
 0001:000560B8       loc_4570B8
 0001:000560C1       loc_4570C1
 0001:000560C8       loc_4570C8
 0001:000560D0       loc_4570D0
 0001:000560D7       loc_4570D7
 0001:000560DD       loc_4570DD
 0001:000560E3       loc_4570E3
 0001:00056106       loc_457106
 0001:0005610A       loc_45710A
 0001:0005610C       loc_45710C
 0001:0005610D       loc_45710D
 0001:00056115       off_457115
 0001:00056225       byte_457225
 0001:00056293       off_457293
 0001:000562CF       off_4572CF
 0001:0005630B       off_45730B
 0001:00056347       sub_457347
 0001:00056354       loc_457354
 0001:00056378       _strtoxq
 0001:00056393       loc_457393
 0001:000563AE       loc_4573AE
 0001:000563BB       loc_4573BB
 0001:000563C4       loc_4573C4
 0001:000563D3       loc_4573D3
 0001:000563D9       loc_4573D9
 0001:000563E2       loc_4573E2
 0001:00056415       loc_457415
 0001:00056428       loc_457428
 0001:0005642B       loc_45742B
 0001:00056440       loc_457440
 0001:0005644A       loc_45744A
 0001:00056470       loc_457470
 0001:00056489       loc_457489
 0001:00056495       loc_457495
 0001:000564A2       loc_4574A2
 0001:000564B6       loc_4574B6
 0001:000564C1       loc_4574C1
 0001:000564D5       loc_4574D5
 0001:000564F0       loc_4574F0
 0001:0005650B       loc_45750B
 0001:00056511       loc_457511
 0001:0005652A       loc_45752A
 0001:0005653A       loc_45753A
 0001:00056552       loc_457552
 0001:0005655A       loc_45755A
 0001:00056582       loc_457582
 0001:00056593       loc_457593
 0001:000565AC       loc_4575AC
 0001:000565BA       loc_4575BA
 0001:000565C1       loc_4575C1
 0001:000565CD       loc_4575CD
 0001:000565E6       loc_4575E6
 0001:000565EE       loc_4575EE
 0001:000565F7       loc_4575F7
 0001:000565FB       loc_4575FB
 0001:000565FF       _xtoa
 0001:0005660C       loc_45760C
 0001:0005660F       loc_45760F
 0001:0005661F       loc_45761F
 0001:00056622       loc_457622
 0001:0005662D       loc_45762D
 0001:0005663D       x64toa(x,x,x,x,x)
 0001:0005665E       loc_45765E
 0001:00056663       loc_457663
 0001:00056681       loc_457681
 0001:00056684       loc_457684
 0001:00056691       loc_457691
 0001:00056695       loc_457695
 0001:000566B0       _memcpy
 0001:000566D0       CopyUp
 0001:000566EC       CopyLeadUp
 0001:00056704       ByteCopyUp
 0001:0005670C       CopyUnwindUp
 0001:00056720       LeadUp1
 0001:0005674C       LeadUp2
 0001:00056770       LeadUp3
 0001:00056790       off_457790
 0001:000567B0       UnwindUp7
 0001:000567B8       UnwindUp6
 0001:000567C0       UnwindUp5
 0001:000567C8       UnwindUp4
 0001:000567D0       UnwindUp3
 0001:000567D8       UnwindUp2
 0001:000567E0       UnwindUp1
 0001:000567F3       UnwindUp0
 0001:000567FC       off_4577FC
 0001:0005680C       TrailUp0
 0001:00056814       TrailUp1
 0001:00056820       TrailUp2
 0001:00056834       TrailUp3
 0001:0005684C       CopyDown
 0001:00056874       CopyUnwindDown
 0001:00056880       CopyLeadDown
 0001:00056898       ByteCopyDown
 0001:000568AC       LeadDown1
 0001:000568D0       LeadDown2
 0001:000568F8       LeadDown3
 0001:00056948       off_457948
 0001:0005694C       UnwindDown7
 0001:00056954       UnwindDown6
 0001:0005695C       UnwindDown5
 0001:00056964       UnwindDown4
 0001:0005696C       UnwindDown3
 0001:00056974       UnwindDown2
 0001:0005697C       UnwindDown1
 0001:0005698F       UnwindDown0
 0001:00056998       off_457998
 0001:000569A8       TrailDown0
 0001:000569B0       TrailDown1
 0001:000569C0       TrailDown2
 0001:000569D4       TrailDown3
 0001:000569F0       _strcmp
 0001:00056A00       dodwords
 0001:00056A30       doneeq
 0001:00056A34       donene
 0001:00056A3C       dopartial
 0001:00056A5C       doword
 0001:00056A80       _strcpy
 0001:00056A90       _strcat
 0001:00056A9D       dest_misaligned
 0001:00056AB0       find_end_of_dest_string_loop
 0001:00056AE3       start_byte_3
 0001:00056AE8       start_byte_2
 0001:00056AED       start_byte_1
 0001:00056AF2       start_byte_0
 0001:00056AF5       copy_start
 0001:00056B01       src_misaligned
 0001:00056B19       main_loop
 0001:00056B1E       main_loop_entrance
 0001:00056B52       loc_457B52
 0001:00056B5A       loc_457B5A
 0001:00056B67       loc_457B67
 0001:00056B70       loc_457B70
 0001:00056B80       _memset
 0001:00056BA3       adjust_loop
 0001:00056BAD       dwords
 0001:00056BC7       main_loop_tail
 0001:00056BCB       tail
 0001:00056BD5       finish
 0001:00056BDB       toend
 0001:00056BE0       _doexit
 0001:00056C00       loc_457C00
 0001:00056C2A       loc_457C2A
 0001:00056C32       loc_457C32
 0001:00056C40       loc_457C40
 0001:00056C47       loc_457C47
 0001:00056C57       loc_457C57
 0001:00056C5F       loc_457C5F
 0001:00056C66       loc_457C66
 0001:00056C76       loc_457C76
 0001:00056C7E       loc_457C7E
 0001:00056C85       loc_457C85
 0001:00056C9F       loc_457C9F
 0001:00056CB0       _strlen
 0001:00056CBC       str_misaligned
 0001:00056CE0       main_loop_0
 0001:00056D13       loc_457D13
 0001:00056D1D       loc_457D1D
 0001:00056D27       loc_457D27
 0001:00056D31       loc_457D31
 0001:00056D40       _strstr
 0001:00056D58       findnext
 0001:00056D6B       loop_start
 0001:00056D70       in_loop
 0001:00056D78       not_found
 0001:00056D7E       first_char_found
 0001:00056D87       two_first_chars_equal
 0001:00056D8A       compare_loop
 0001:00056DAD       strchr_call
 0001:00056DB9       match
 0001:00056DC0       empty_str2
 0001:00056DD0       found_bx
 0001:00056DE0       _strchr
 0001:00056DE6       ___from_strstr_to_strchr
 0001:00056DF8       str_misaligned_0
 0001:00056E0D       main_loop_start
 0001:00056E18       main_loop_1
 0001:00056E54       retnull
 0001:00056E56       retnull_bx
 0001:00056E5A       chr_is_found
 0001:00056E82       loc_457E82
 0001:00056E89       loc_457E89
 0001:00056E90       loc_457E90
 0001:00056E97       loc_457E97
 0001:00056EA0       _memcpy_0
 0001:00056EC0       CopyUp_0
 0001:00056EDC       CopyLeadUp_0
 0001:00056EF4       ByteCopyUp_0
 0001:00056EFC       CopyUnwindUp_0
 0001:00056F10       LeadUp1_0
 0001:00056F3C       LeadUp2_0
 0001:00056F60       LeadUp3_0
 0001:00056F80       off_457F80
 0001:00056FA0       UnwindUp7_0
 0001:00056FA8       UnwindUp6_0
 0001:00056FB0       UnwindUp5_0
 0001:00056FB8       UnwindUp4_0
 0001:00056FC0       UnwindUp3_0
 0001:00056FC8       UnwindUp2_0
 0001:00056FD0       UnwindUp1_0
 0001:00056FE3       UnwindUp0_0
 0001:00056FEC       off_457FEC
 0001:00056FFC       TrailUp0_0
 0001:00057004       TrailUp1_0
 0001:00057010       TrailUp2_0
 0001:00057024       TrailUp3_0
 0001:0005703C       CopyDown_0
 0001:00057064       CopyUnwindDown_0
 0001:00057070       CopyLeadDown_0
 0001:00057088       ByteCopyDown_0
 0001:0005709C       LeadDown1_0
 0001:000570C0       LeadDown2_0
 0001:000570E8       LeadDown3_0
 0001:0005713C       UnwindDown7_0
 0001:00057144       UnwindDown6_0
 0001:0005714C       UnwindDown5_0
 0001:00057154       UnwindDown4_0
 0001:0005715C       UnwindDown3_0
 0001:00057164       UnwindDown2_0
 0001:0005716C       UnwindDown1_0
 0001:0005717F       UnwindDown0_0
 0001:00057188       off_458188
 0001:00057198       TrailDown0_0
 0001:000571A0       TrailDown1_0
 0001:000571B0       TrailDown2_0
 0001:000571C4       TrailDown3_0
 0001:000571E0       _shortsort
 0001:000571F2       loc_4581F2
 0001:00057200       loc_458200
 0001:0005720F       loc_45820F
 0001:00057219       loc_458219
 0001:00057230       loc_458230
 0001:00057242       loc_458242
 0001:0005724A       loc_45824A
 0001:00057250       __alloca_probe
 0001:00057265       probesetup
 0001:0005726A       probepages
 0001:0005727E       lastpage
 0001:0005728D       _strtoxl
 0001:000572A0       loc_4582A0
 0001:000572B8       loc_4582B8
 0001:000572C5       loc_4582C5
 0001:000572CE       loc_4582CE
 0001:000572D9       loc_4582D9
 0001:000572DE       loc_4582DE
 0001:000572E1       loc_4582E1
 0001:00057313       loc_458313
 0001:00057326       loc_458326
 0001:00057329       loc_458329
 0001:0005733D       loc_45833D
 0001:00057341       loc_458341
 0001:0005734D       loc_45834D
 0001:00057366       loc_458366
 0001:0005737E       loc_45837E
 0001:00057381       loc_458381
 0001:00057384       loc_458384
 0001:00057398       loc_458398
 0001:0005739E       loc_45839E
 0001:000573AA       loc_4583AA
 0001:000573AF       loc_4583AF
 0001:000573C1       loc_4583C1
 0001:000573C7       loc_4583C7
 0001:000573E6       loc_4583E6
 0001:000573EF       loc_4583EF
 0001:00057404       loc_458404
 0001:00057414       loc_458414
 0001:0005741D       loc_45841D
 0001:00057425       loc_458425
 0001:0005742A       loc_45842A
 0001:00057433       loc_458433
 0001:00057435       loc_458435
 0001:00057440       _strrchr
 0001:00057467       returndi
 0001:00057469       toend_0
 0001:00057470       _strncmp
 0001:0005748A       okay
 0001:0005749D       firstbig
 0001:000574A0       lastbig
 0001:000574A2       toend_1
 0001:000574B0       _memcmp
 0001:000574E3       main_loop_2
 0001:00057500       done
 0001:00057502       retnull_0
 0001:00057503       dwords_0
 0001:0005752B       difference_in_tail
 0001:00057530       not_equal
 0001:00057538       tail_loop_start
 0001:00057565       tail_done
 0001:00057570       __allrem
 0001:00057590       loc_458590
 0001:000575AB       loc_4585AB
 0001:000575CA       loc_4585CA
 0001:000575D8       loc_4585D8
 0001:00057603       loc_458603
 0001:0005760B       loc_45860B
 0001:00057616       loc_458616
 0001:0005761D       loc_45861D
 0001:00057630       __allmul
 0001:00057649       hard
 0001:00057670       __alldiv
 0001:00057691       loc_458691
 0001:000576AD       loc_4586AD
 0001:000576C9       loc_4586C9
 0001:000576D7       loc_4586D7
 0001:00057705       loc_458705
 0001:00057706       loc_458706
 0001:0005770A       loc_45870A
 0001:00057714       loc_458714
 0001:0005771C       __ftol2
 0001:0005773F       arg_is_not_integer_QnaN
 0001:00057763       positive
 0001:0005777B       integer_QnaN_or_zero
 0001:0005778F       localexit
 0001:000577A0       __aulldiv
 0001:000577C2       loc_4587C2
 0001:000577D0       loc_4587D0
 0001:000577FE       loc_4587FE
 0001:000577FF       loc_4587FF
 0001:00057803       loc_458803
 0001:00057808       __SEH_prolog
 0001:00057843       __SEH_epilog
 0001:0005785C       __except_handler3
 0001:0005789C       _lh_top
 0001:00057905       _lh_continue
 0001:00057910       _lh_dismiss
 0001:00057917       _lh_abort
 0001:0005791E       _lh_bagit
 0001:00057925       _lh_unwinding
 0001:0005793A       _lh_return
 0001:00057942       _seh_longjmp_unwind(x)
 0001:00057960       __allshr
 0001:00057970       MORE32
 0001:0005797B       RETSIGN
 0001:00057990       __allshl
 0001:000579A0       MORE32_0
 0001:000579AA       RETZERO
 0001:000579B0       _strncpy
 0001:000579DC       src_misaligned_0
 0001:000579FE       tail_loop_start_0
 0001:00057A03       copy_tail_loop
 0001:00057A16       fill_tail_end1
 0001:00057A1E       align_dest
 0001:00057A26       dest_align_loop
 0001:00057A3C       dest_align_loop_end
 0001:00057A43       finish_loop
 0001:00057A48       fill_tail_zero_bytes
 0001:00057A4F       finish_0
 0001:00057A55       main_loop_3
 0001:00057A5F       main_loop_entrance_0
 0001:00057A95       loc_458A95
 0001:00057A9F       loc_458A9F
 0001:00057AA9       loc_458AA9
 0001:00057AAD       fill_with_EOS_dwords
 0001:00057AB7       fill_dwords_with_EOS
 0001:00057AB9       fill_with_EOS_loop
 0001:00057AC3       fill_tail
 0001:00057ACC       fill_tail_end
 0001:00057AD4       _ftell
 0001:00057AF0       loc_458AF0
 0001:00057B15       loc_458B15
 0001:00057B44       loc_458B44
 0001:00057B4C       loc_458B4C
 0001:00057B51       loc_458B51
 0001:00057B5F       loc_458B5F
 0001:00057B6D       loc_458B6D
 0001:00057B75       loc_458B75
 0001:00057B8E       loc_458B8E
 0001:00057BCE       loc_458BCE
 0001:00057BD6       loc_458BD6
 0001:00057BD7       loc_458BD7
 0001:00057BE1       loc_458BE1
 0001:00057C08       loc_458C08
 0001:00057C0B       loc_458C0B
 0001:00057C15       loc_458C15
 0001:00057C1A       loc_458C1A
 0001:00057C20       loc_458C20
 0001:00057C28       loc_458C28
 0001:00057C2D       _fread
 0001:00057C51       loc_458C51
 0001:00057C65       loc_458C65
 0001:00057C6E       loc_458C6E
 0001:00057C71       loc_458C71
 0001:00057C88       loc_458C88
 0001:00057CA3       loc_458CA3
 0001:00057CB9       loc_458CB9
 0001:00057CD6       loc_458CD6
 0001:00057CEE       loc_458CEE
 0001:00057CFB       loc_458CFB
 0001:00057CFC       loc_458CFC
 0001:00057D00       loc_458D00
 0001:00057D04       loc_458D04
 0001:00057D10       loc_458D10
 0001:00057D16       _fseek
 0001:00057D35       loc_458D35
 0001:00057D4D       loc_458D4D
 0001:00057D63       loc_458D63
 0001:00057D77       loc_458D77
 0001:00057D94       loc_458D94
 0001:00057DA1       loc_458DA1
 0001:00057DA4       _fputc
 0001:00057DBB       loc_458DBB
 0001:00057DC8       _fgetc
 0001:00057DDA       loc_458DDA
 0001:00057DF0       __aulldvrm
 0001:00057E21       loc_458E21
 0001:00057E2F       loc_458E2F
 0001:00057E5D       loc_458E5D
 0001:00057E66       loc_458E66
 0001:00057E68       loc_458E68
 0001:00057E85       __shift
 0001:00057EA0       loc_458EA0
 0001:00057EB0       ___ascii_stricmp
 0001:00057EC0       chk_null
 0001:00057EF6       done_0
 0001:00057EFE       _flsall
 0001:00057F0F       loc_458F0F
 0001:00057F39       loc_458F39
 0001:00057F53       loc_458F53
 0001:00057F5C       loc_458F5C
 0001:00057F67       loc_458F67
 0001:00057F6B       _write_char
 0001:00057F77       loc_458F77
 0001:00057F87       loc_458F87
 0001:00057F93       loc_458F93
 0001:00057F9B       loc_458F9B
 0001:00057F9E       _write_multi_char
 0001:00057FA6       loc_458FA6
 0001:00057FB9       loc_458FB9
 0001:00057FBF       loc_458FBF
 0001:00057FC2       _write_string
 0001:00057FDC       loc_458FDC
 0001:00057FEF       loc_458FEF
 0001:00057FF6       loc_458FF6
 0001:00058000       ___ascii_strnicmp
 0001:0005801C       lupe
 0001:00058038       skip1
 0001:00058042       skip2
 0001:0005804B       eject
 0001:00058051       differ
 0001:0005805A       toend_2
 0001:00058064       __global_unwind2
 0001:0005807C       _gu_return
 0001:00058084       __unwind_handler
 0001:000580A5       _uh_return
 0001:000580A6       __local_unwind2
 0001:000580C3       _lu_top
 0001:000580FE       __NLG_Return2
 0001:00058100       _lu_done
 0001:0005810E       __abnormal_termination
 0001:00058130       _at_done
 0001:00058131       __NLG_Notify1
 0001:0005813A       __NLG_Notify
 0001:00058144       __NLG_Go
 0001:0005814D       __NLG_Dispatch
 0001:00058152       _CPtoLCID
 0001:00058169       loc_459169
 0001:0005816F       loc_45916F
 0001:00058175       loc_459175
 0001:0005817B       loc_45917B
 0001:00058181       _setSBCS
 0001:000581AA       _setSBUpLow
 0001:000581DC       loc_4591DC
 0001:000581FB       loc_4591FB
 0001:00058222       loc_459222
 0001:0005822C       loc_45922C
 0001:000582A1       loc_4592A1
 0001:000582BC       loc_4592BC
 0001:000582C4       loc_4592C4
 0001:000582D9       loc_4592D9
 0001:000582E0       loc_4592E0
 0001:000582E7       loc_4592E7
 0001:000582E9       loc_4592E9
 0001:000582FF       loc_4592FF
 0001:00058307       loc_459307
 0001:0005831F       loc_45931F
 0001:00058326       loc_459326
 0001:0005832B       loc_45932B
 0001:00058336       _parse_cmdline
 0001:00058359       loc_459359
 0001:0005836C       loc_45936C
 0001:00058377       loc_459377
 0001:00058391       loc_459391
 0001:00058392       loc_459392
 0001:00058399       loc_459399
 0001:000583A7       loc_4593A7
 0001:000583AF       loc_4593AF
 0001:000583B3       loc_4593B3
 0001:000583BC       loc_4593BC
 0001:000583C8       loc_4593C8
 0001:000583CB       loc_4593CB
 0001:000583CE       loc_4593CE
 0001:000583E6       loc_4593E6
 0001:000583E8       loc_4593E8
 0001:000583EF       loc_4593EF
 0001:000583F1       loc_4593F1
 0001:00058412       loc_459412
 0001:00058414       loc_459414
 0001:0005841F       loc_45941F
 0001:00058421       loc_459421
 0001:00058425       loc_459425
 0001:0005842D       loc_45942D
 0001:00058432       loc_459432
 0001:00058448       loc_459448
 0001:00058462       loc_459462
 0001:00058469       loc_459469
 0001:00058478       loc_459478
 0001:0005847A       loc_45947A
 0001:00058480       loc_459480
 0001:00058488       loc_459488
 0001:00058492       loc_459492
 0001:0005849C       loc_45949C
 0001:000584A2       __abstract_cw
 0001:000584AC       loc_4594AC
 0001:000584B4       loc_4594B4
 0001:000584BC       loc_4594BC
 0001:000584C4       loc_4594C4
 0001:000584CC       loc_4594CC
 0001:000584D6       loc_4594D6
 0001:00058509       loc_459509
 0001:0005850D       loc_45950D
 0001:00058512       loc_459512
 0001:00058521       loc_459521
 0001:00058526       loc_459526
 0001:00058533       locret_459533
 0001:00058534       __hw_cw
 0001:0005853C       loc_45953C
 0001:00058544       loc_459544
 0001:0005854C       loc_45954C
 0001:00058554       loc_459554
 0001:0005855C       loc_45955C
 0001:00058567       loc_459567
 0001:0005858F       loc_45958F
 0001:00058596       loc_459596
 0001:0005859B       loc_45959B
 0001:000585B1       loc_4595B1
 0001:000585B3       loc_4595B3
 0001:000585C1       locret_4595C1
 0001:000585C2       _report_failure
 0001:000585DF       loc_4595DF
 0001:000585E3       loc_4595E3
 0001:000585E6       loc_4595E6
 0001:000585F3       _x_ismbbtype
 0001:0005861B       loc_45961B
 0001:0005861D       loc_45961D
 0001:00058622       loc_459622
 0001:0005866E       loc_45966E
 0001:00058678       locret_459678
 0001:000586CC       loc_4596CC
 0002:000005D8       h
 0002:000005DC       asc_45A5DC
 0002:000005E4       asc_45A5E4
 0002:000005E8       aSyslistview32
 0002:000005F8       aSystreeview32
 0002:00000608       a32770
 0002:00000610       a06f
 0002:00000618       aClipboard_0
 0002:00000624       aComctl32
 0002:00000630       aInitcommoncont
 0002:00000648       aCouldNotCloseT
 0002:00000690       aAnOlderInstanc
 0002:00000728       aAutohotkey
 0002:00000734       a0
 0002:00000738       aErrorstdout
 0002:00000748       aForce
 0002:00000750       asc_45A750
 0002:00000754       aRestart
 0002:00000760       aR_0
 0002:00000764       aD
 0002:00000768       aGloballock
 0002:00000774       aGlobalalloc
 0002:00000780       aEmbedSource
 0002:00000790       aNative
 0002:00000798       aOwnerlink
 0002:000007A4       aObjectlink
 0002:000007B0       aLinkSource
 0002:000007BC       aCanTOpenClipbo_0
 0002:000007E0       aSetclipboardda
 0002:000007F4       aEmptyclipboard
 0002:00000804       aCanTOpenClipbo
 0002:00000828       aPgdn
 0002:00000830       aPgup
 0002:00000838       aEnd
 0002:0000083C       aHome
 0002:00000844       aRight_0
 0002:0000084C       aLeft_0
 0002:00000854       aDown
 0002:0000085C       aUp_0
 0002:00000860       aIns
 0002:00000864       aInsert
 0002:0000086C       aDel
 0002:00000870       aDelete
 0002:00000878       aNumpadenter
 0002:00000884       aLaunchApp2
 0002:00000890       aLaunchApp1
 0002:0000089C       aLaunchMedia
 0002:000008AC       aLaunchMail
 0002:000008B8       aMediaPlayPause
 0002:000008CC       aMediaStop
 0002:000008D8       aMediaPrev
 0002:000008E4       aMediaNext
 0002:000008F0       aVolumeUp
 0002:000008FC       aVolumeDown
 0002:00000908       aVolumeMute
 0002:00000914       aBrowserHome
 0002:00000924       aBrowserFavorit
 0002:00000938       aBrowserSearch
 0002:00000948       aBrowserStop
 0002:00000958       aBrowserRefresh
 0002:00000968       aBrowserForward
 0002:00000978       aBrowserBack
 0002:00000988       aWheelright
 0002:00000994       aWheelleft
 0002:000009A0       aWheelup
 0002:000009A8       aWheeldown
 0002:000009B4       aXbutton2
 0002:000009C0       aXbutton1
 0002:000009CC       aMbutton
 0002:000009D4       aRbutton
 0002:000009DC       aLbutton
 0002:000009E4       aF24
 0002:000009E8       aF23
 0002:000009EC       aF22
 0002:000009F0       aF21
 0002:000009F4       aF20
 0002:000009F8       aF19
 0002:000009FC       aF18
 0002:00000A00       aF17
 0002:00000A04       aF16
 0002:00000A08       aF15
 0002:00000A0C       aF14
 0002:00000A10       aF13
 0002:00000A14       aF12
 0002:00000A18       aF11
 0002:00000A1C       aF10
 0002:00000A20       aF9
 0002:00000A24       aF8
 0002:00000A28       aF7
 0002:00000A2C       aF6
 0002:00000A30       aF5
 0002:00000A34       aF4
 0002:00000A38       aF3
 0002:00000A3C       aF2
 0002:00000A40       aF1
 0002:00000A44       aShift
 0002:00000A4C       aAlt
 0002:00000A50       aCtrl
 0002:00000A58       aRwin_0
 0002:00000A60       aLwin_0
 0002:00000A68       aRalt_0
 0002:00000A70       aLalt_0
 0002:00000A78       aRshift_0
 0002:00000A80       aLshift_0
 0002:00000A88       aRctrl_0
 0002:00000A90       aLctrl_0
 0002:00000A98       aRcontrol
 0002:00000AA4       aLcontrol
 0002:00000AB0       aAppskey
 0002:00000AB8       aHelp
 0002:00000AC0       aCtrlbreak
 0002:00000ACC       aPrintscreen
 0002:00000AD8       aNumpadpgdn
 0002:00000AE4       aNumpadpgup
 0002:00000AF0       aNumpadend
 0002:00000AFC       aNumpadhome
 0002:00000B08       aNumpadright
 0002:00000B14       aNumpadleft
 0002:00000B20       aNumpaddown
 0002:00000B2C       aNumpadup
 0002:00000B38       aNumpadclear
 0002:00000B44       aNumpadins
 0002:00000B50       aNumpaddel
 0002:00000B5C       aEnter
 0002:00000B64       aBs
 0002:00000B68       aBackspace
 0002:00000B74       aSpace_0
 0002:00000B7C       aTab
 0002:00000B80       aEsc
 0002:00000B84       aEscape
 0002:00000B8C       aCapslock
 0002:00000B98       aScrolllock
 0002:00000BA4       aNumlock
 0002:00000BAC       aNumpaddot
 0002:00000BB8       aNumpadsub
 0002:00000BC4       aNumpadadd
 0002:00000BD0       aNumpaddiv
 0002:00000BDC       aNumpadmult
 0002:00000BE8       aNumpad9
 0002:00000BF0       aNumpad8
 0002:00000BF8       aNumpad7
 0002:00000C00       aNumpad6
 0002:00000C08       aNumpad5
 0002:00000C10       aNumpad4
 0002:00000C18       aNumpad3
 0002:00000C20       aNumpad2
 0002:00000C28       aNumpad1
 0002:00000C30       aNumpad0
 0002:00000C38       aWingetactivest
 0002:00000C4C       aWingetactiveti
 0002:00000C60       aEndrepeat
 0002:00000C6C       aHideautoitwin
 0002:00000C7C       aRightclickdrag
 0002:00000C8C       aLeftclickdrag
 0002:00000C9C       aRightclick
 0002:00000CA8       aLeftclick
 0002:00000CB4       aIflessorequal
 0002:00000CC4       aIfless
 0002:00000CCC       aIfgreaterorequ
 0002:00000CE0       aIfgreater
 0002:00000CEC       aIfnotequal
 0002:00000CF8       aIfequal
 0002:00000D00       aEnvdiv
 0002:00000D08       aEnvmult
 0002:00000D10       aEnvsub
 0002:00000D18       aEnvadd
 0002:00000D20       aSetenv
 0002:00000D28       aShutdown
 0002:00000D34       aExitapp
 0002:00000D3C       aGuicontrolget
 0002:00000D4C       aGuicontrol_0
 0002:00000D58       aGui_0
 0002:00000D5C       aMenu
 0002:00000D64       aReload
 0002:00000D6C       aEdit_0
 0002:00000D74       aListhotkeys
 0002:00000D80       aListvars
 0002:00000D8C       aListlines
 0002:00000D98       aKeyhistory_0
 0002:00000DA4       aSetstorecapslo
 0002:00000DBC       aSetcapslocksta
 0002:00000DD0       aSetscrolllocks
 0002:00000DE4       aSetnumlockstat
 0002:00000DF4       aBlockinput
 0002:00000E00       aDetecthiddente_0
 0002:00000E14       aDetecthiddenwi_0
 0002:00000E28       aStringcasesens_0
 0002:00000E38       aAutotrim_0
 0002:00000E44       aPause
 0002:00000E4C       aSuspend
 0002:00000E54       aFormattime
 0002:00000E60       aSetformat
 0002:00000E6C       aSettitlematchm
 0002:00000E80       aSetbatchlines
 0002:00000E90       aSetcontroldela
 0002:00000EA0       aSetwindelay
 0002:00000EAC       aSetmousedelay
 0002:00000EBC       aSetkeydelay
 0002:00000EC8       aOutputdebug
 0002:00000ED4       aRegdelete
 0002:00000EE0       aRegwrite
 0002:00000EEC       aRegread
 0002:00000EF4       aInidelete
 0002:00000F00       aIniwrite
 0002:00000F0C       aIniread
 0002:00000F14       aFilecreateshor
 0002:00000F28       aFilegetshortcu
 0002:00000F38       aFileselectfold
 0002:00000F4C       aFileselectfile
 0002:00000F5C       aSetworkingdir
 0002:00000F6C       aFilegetversion
 0002:00000F7C       aFilegetsize
 0002:00000F88       aFilesettime
 0002:00000F94       aFilegettime
 0002:00000FA0       aFilesetattrib
 0002:00000FB0       aFilegetattrib
 0002:00000FC0       aFileremovedir
 0002:00000FD0       aFilecreatedir
 0002:00000FE0       aFilemovedir
 0002:00000FEC       aFilecopydir
 0002:00000FF8       aFilemove
 0002:00001004       aFilecopy
 0002:00001010       aFileinstall
 0002:0000101C       aFilerecycleemp
 0002:00001030       aFilerecycle
 0002:0000103C       aFiledelete
 0002:00001048       aFilereadline
 0002:00001058       aFileread
 0002:00001064       aFileappend
 0002:00001070       aSoundplay
 0002:0000107C       aSoundbeep
 0002:00001088       aSoundsetwavevo
 0002:0000109C       aSoundgetwavevo
 0002:000010B0       aSoundset
 0002:000010BC       aSoundget
 0002:000010C8       aDriveget
 0002:000010D4       aDrive
 0002:000010DC       aDrivespacefree
 0002:000010EC       aGroupclose
 0002:000010F8       aGroupdeactivat
 0002:00001108       aGroupactivate
 0002:00001118       aGroupadd
 0002:00001124       aImagesearch
 0002:00001130       aPixelsearch
 0002:0000113C       aPixelgetcolor
 0002:0000114C       aSendmessage
 0002:00001158       aPostmessage
 0002:00001164       aSysget
 0002:0000116C       aWingettext
 0002:00001178       aWingetpos
 0002:00001184       aWinget
 0002:0000118C       aWingetclass
 0002:00001198       aWingettitle
 0002:000011A4       aWinsettitle
 0002:000011B0       aWinset
 0002:000011B8       aProcess
 0002:000011C0       aWinmenuselecti
 0002:000011D4       aWinmove
 0002:000011DC       aWinkill
 0002:000011E4       aWinclose
 0002:000011F0       aWinminimizeall
 0002:00001204       aWinminimizeall_0
 0002:00001214       aWinshow
 0002:0000121C       aWinhide
 0002:00001224       aWinrestore
 0002:00001230       aWinmaximize
 0002:0000123C       aWinminimize
 0002:00001248       aWinwaitnotacti
 0002:0000125C       aWinwaitactive
 0002:0000126C       aWinwaitclose
 0002:0000127C       aWinwait
 0002:00001284       aWinactivatebot
 0002:00001298       aWinactivate
 0002:000012AC       aContinue_0
 0002:000012B8       aBreak
 0002:000012C0       aWhile_0
 0002:000012C8       aLoop_1
 0002:000012D0       aExit
 0002:000012D8       aReturn
 0002:000012E0       aThread
 0002:000012E8       aCritical
 0002:000012F4       aSettimer
 0002:00001300       aHotkey
 0002:00001308       aOnexit
 0002:00001310       aGosub
 0002:00001318       aGoto
 0002:00001320       aRandom
 0002:00001328       aSleep
 0002:00001330       aKeywait
 0002:00001338       aClipwait
 0002:00001344       aStatusbarwait
 0002:00001354       aStatusbargette
 0002:00001368       aMousegetpos
 0002:00001374       aMouseclickdrag
 0002:00001384       aMouseclick
 0002:00001390       aMousemove
 0002:0000139C       aClick_0
 0002:000013A4       aSetdefaultmous
 0002:000013BC       aCoordmode
 0002:000013C8       aSendmode
 0002:000013D4       aControlget
 0002:000013E0       aControl
 0002:000013E8       aControlgettext
 0002:000013F8       aControlsettext
 0002:00001408       aControlgetfocu
 0002:00001418       aControlfocus
 0002:00001428       aControlgetpos
 0002:00001438       aControlmove
 0002:00001444       aControlclick
 0002:00001454       aControlsendraw
 0002:00001464       aControlsend
 0002:00001470       aSendevent
 0002:0000147C       aSendplay
 0002:00001488       aSendinput
 0002:00001494       aSendraw
 0002:0000149C       aSend
 0002:000014A4       aGetkeystate
 0002:000014B0       aUrldownloadtof
 0002:000014C4       aRunwait
 0002:000014CC       aRun
 0002:000014D0       aRunas
 0002:000014D8       aEnvupdate
 0002:000014E4       aEnvset
 0002:000014EC       aEnvget
 0002:000014F4       aSort
 0002:000014FC       aSplitpath
 0002:00001508       aStringsplit
 0002:00001514       aStringreplace
 0002:00001524       aStringgetpos
 0002:00001534       aStringlen
 0002:00001540       aStringupper
 0002:0000154C       aStringlower
 0002:00001558       aStringtrimrigh
 0002:00001568       aStringtrimleft
 0002:00001578       aStringmid
 0002:00001584       aStringright
 0002:00001590       aStringleft
 0002:0000159C       aTransform
 0002:000015A8       aInput
 0002:000015B0       aTraytip
 0002:000015B8       aTooltip
 0002:000015C0       aSplashimage
 0002:000015CC       aProgress
 0002:000015D8       aSplashtextoff
 0002:000015E8       aSplashtexton
 0002:000015F8       aInputbox
 0002:00001604       aMsgbox
 0002:0000160C       aIfmsgbox
 0002:00001618       aIfnotexist
 0002:00001624       aIfexist
 0002:0000162C       aIfnotinstring
 0002:0000163C       aIfinstring
 0002:00001648       aIfwinnotactive
 0002:00001658       aIfwinactive
 0002:00001664       aIfwinnotexist
 0002:00001674       aIfwinexist
 0002:00001684       asc_45B684
 0002:0000168C       asc_45B68C
 0002:00001694       aNotBetween
 0002:000016A0       aBetween
 0002:000016A8       aIsNot
 0002:000016B0       aIs
 0002:000016B4       aNotContains
 0002:000016C4       aContains
 0002:000016D0       aNotIn
 0002:000016D8       aIn
 0002:000016DC       aElse
 0002:000016E4       aRepeat
 0002:000016FC       asc_45B6FC
 0002:00001700       asc_45B700
 0002:00001704       aOn_0
 0002:00001708       aAhkKeybd
 0002:00001714       aAhkMouse
 0002:00001720       a02x03xCC02f15s
 0002:00001748       aNoteToDisableT
 0002:000019C8       aNoteOnlyTheScr
 0002:00001A40       aModifiersHookS
 0002:00001A9C       aNo_0
 0002:00001AA0       aYes
 0002:00001AA4       a32771
 0002:00001AAC       a32768
 0002:00001AB4       off_45BAB4
 0002:00001AB8       flt_45BAB8
 0002:00001ABC       flt_45BABC
 0002:00001AC0       aWarningTheKeyb
 0002:00001B2C       aToggle
 0002:00001B34       aOff
 0002:00001B38       aAlttabmenudism
 0002:00001B4C       aAlttabandmenu
 0002:00001B5C       aAlttabmenu
 0002:00001B68       aShiftalttab
 0002:00001B74       aAlttab
 0002:00001B7C       asc_45BB7C
 0002:00001B80       aUp
 0002:00001B84       aSIsNotAValidKe
 0002:00001BC4       a2
 0002:00001BC8       aVk
 0002:00001BCC       aTheCurrentThre_0
 0002:00001BEC       aSIsNotAllowedA
 0002:00001C14       a3_0
 0002:00001C18       asc_45BC18
 0002:00001C1C       aSSSSS
 0002:00001C2C       aNo
 0002:00001C34       aPart
 0002:00001C3C       off_45BC3C
 0002:00001C40       aReg
 0002:00001C44       aKHook
 0002:00001C4C       aMHook
 0002:00001C54       a2Hooks
 0002:00001C5C       aJoypoll
 0002:00001C64       aSC
 0002:00001C6C       aRaw
 0002:00001C78       aUHotkeysHaveBe
 0002:00001CF0       aTypeOffRunning
 0002:00001D50       aOutOfMemory
 0002:00001D60       aMaxHotkeys
 0002:00001D70       a98
 0002:00001D74       a99
 0002:00001D78       aTheAlttabHotke_0
 0002:00001DB8       aS
 0002:00001DC0       aTheCurrentThre
 0002:00001DE0       aTheAlttabHotke
 0002:00001E18       a4_0
 0002:00001E1C       aHotstringMaxAb
 0002:00001E48       a51
 0002:00001E4C       a50
 0002:00001E50       aNonexistentHot_0
 0002:00001E94       aOutOfMemoryThe
 0002:00001EC4       a6
 0002:00001EC8       aNonexistentHot
 0002:00001EFC       a5
 0002:00001F00       aTargetLabelDoe
 0002:00001F3C       aUseerrorlevel
 0002:00001F4C       a1
 0002:00001F50       aExist
 0002:00001F58       aActive
 0002:00001F60       aNot
 0002:00001F64       aIfwin
 0002:00001F6C       aWr
 0002:00001F70       aWl
 0002:00001F74       aWd
 0002:00001F78       aWu
 0002:00001F7C       aX2
 0002:00001F80       aX1
 0002:00001F84       aM
 0002:00001F88       aMiddle
 0002:00001F90       aR_1
 0002:00001F94       aRight
 0002:00001F9C       asc_45BF9C
 0002:00001FA0       aLeft
 0002:00001FA8       asc_45BFA8
 0002:00001FAC       aRalt
 0002:00001FB4       aLalt
 0002:00001FBC       aRctrl
 0002:00001FC4       aLctrl
 0002:00001FCC       aRshift
 0002:00001FD4       aLshift
 0002:00001FDC       aRwin
 0002:00001FE4       aLwin
 0002:00001FEC       aSc03x
 0002:00001FF4       aRwinup
 0002:00001FFC       aRwindown
 0002:00002008       aLwinup
 0002:00002010       aLwindown
 0002:0000201C       aControlup
 0002:00002028       aCtrlup
 0002:00002030       aControldown
 0002:0000203C       aCtrldown
 0002:00002048       aShiftup
 0002:00002050       aShiftdown
 0002:0000205C       aAltup
 0002:00002064       aAltdown
 0002:0000206C       aNotFound
 0002:00002078       aAsc
 0002:00002080       aSs
 0002:00002084       aTemp_0
 0002:0000208C       aRaw_0
 0002:00002090       asc_45C090
 0002:00002098       asc_45C098
 0002:0000209C       aLl
 0002:000020A0       aClick
 0002:000020A8       aBlind
 0002:000020B0       ModuleName
 0002:000020B8       dbl_45C0B8
 0002:000020C0       dbl_45C0C0
 0002:000020C8       aSUOfU160sS
 0002:000020E0       asc_45C0E0
 0002:000020E4       asc_45C0E4
 0002:000020F0       aHkeyUsers
 0002:000020FC       aHku
 0002:00002100       aHkeyCurrentUse
 0002:00002114       aHkcu
 0002:0000211C       aHkeyCurrentCon
 0002:00002130       aHkcc
 0002:00002138       aHkeyClassesRoo
 0002:0000214C       aHkcr
 0002:00002154       aHkeyLocalMachi
 0002:00002168       aHklm
 0002:00002170       aRegBinary
 0002:0000217C       aRegDword
 0002:00002188       aRegMultiSz
 0002:00002198       aRegExpandSz
 0002:000021A8       aRegSz
 0002:000021B0       aAnalog
 0002:000021B8       aAux
 0002:000021BC       aWave
 0002:000021C4       aPcspeaker
 0002:000021D0       aTelephone
 0002:000021DC       aCd
 0002:000021E0       aSynth
 0002:000021E8       aMicrophone
 0002:000021F4       aLine
 0002:000021FC       aDigital
 0002:00002204       aHeadphones
 0002:00002210       aSpeakers
 0002:0000221C       aMaster
 0002:00002224       aEqualizer
 0002:00002230       aTreble
 0002:00002238       aBass
 0002:00002240       aQsoundpan
 0002:0000224C       aPan
 0002:00002250       aBassboost
 0002:0000225C       aStereoenh
 0002:00002268       aLoudness
 0002:00002274       aMono
 0002:0000227C       aMute
 0002:00002284       aOnoff
 0002:0000228C       aVolume
 0002:00002294       aVol
 0002:00002298       aSlow
 0002:000022A0       aFast
 0002:000022A8       aRegex
 0002:000022B0       aBitshiftright
 0002:000022C0       aBitshiftleft
 0002:000022D0       aBitnot
 0002:000022D8       aBitxor
 0002:000022E0       aBitor
 0002:000022E8       aBitand
 0002:000022F0       aAtan
 0002:000022F8       aAcos
 0002:00002300       aAsin
 0002:00002308       aTan
 0002:0000230C       aCos
 0002:00002310       aSin
 0002:00002314       aAbs
 0002:00002318       aFloor
 0002:00002320       aCeil
 0002:00002328       aRound
 0002:00002330       aLn
 0002:00002334       aLog
 0002:00002338       aSqrt
 0002:00002340       aExp
 0002:00002344       aPow
 0002:00002348       aMod
 0002:0000234C       aHtml
 0002:00002354       aUnicode
 0002:0000235C       aDeref
 0002:00002364       aChr
 0002:00002368       aAsc_0
 0002:0000236C       aNotimers
 0002:00002378       aInterrupt
 0002:00002384       aPriority
 0002:00002390       aOn
 0002:00002394       aLocale
 0002:0000239C       aPermit
 0002:000023A4       aMousemoveoff
 0002:000023B4       aDefault
 0002:000023BC       aSendandmouse
 0002:000023CC       aMouse
 0002:000023D4       aThenplay
 0002:000023E0       aThenevent
 0002:000023EC       aEvent
 0002:000023F4       aPlay
 0002:000023FC       aTimeout
 0002:00002404       aTryagain
 0002:00002410       aContinue
 0002:0000241C       aRetry
 0002:00002424       aIgnore
 0002:0000242C       aAbort
 0002:00002434       aCancel
 0002:0000243C       aOk
 0002:00002440       aNo_1
 0002:00002444       aYes_0
 0002:00002448       aHide
 0002:00002450       aMax
 0002:00002454       aMin_0
 0002:00002458       aCaret
 0002:00002460       aPixel
 0002:00002468       aLower
 0002:00002470       aUpper
 0002:00002478       aAlpha
 0002:00002480       aAlnum
 0002:00002488       aXdigit
 0002:00002490       aDigit
 0002:00002498       aDate
 0002:000024A0       aTime
 0002:000024A8       aNumber
 0002:000024B0       aFloat
 0002:000024B8       aInteger
 0002:000024C0       aCloseAhkPlayme
 0002:000024D4       aStatusAhkPlaym
 0002:000024EC       aSS
 0002:000024F4       aAut
 0002:000024FC       aWhile
 0002:00002504       aIf
 0002:00002508       asc_45C508
 0002:00002524       Name
 0002:0000252C       aClipboardall
 0002:0000253C       aClipboard
 0002:00002548       aFalse
 0002:00002550       aTrue
 0002:00002558       aAhkpath
 0002:00002560       aAhkversion
 0002:0000256C       aTab_0
 0002:00002570       aSpace
 0002:00002578       aTimeidlephysic
 0002:0000258C       aTimeidle
 0002:00002598       aGuiy
 0002:000025A0       aGuix
 0002:000025A8       aGuiheight
 0002:000025B4       aGuiwidth
 0002:000025C0       aGui
 0002:000025C4       aGuievent
 0002:000025D0       aGuicontroleven
 0002:000025E0       aGuicontrol
 0002:000025EC       aEventinfo
 0002:000025F8       aLasterror
 0002:00002604       aEndchar
 0002:0000260C       aTimesinceprior
 0002:00002624       aTimesincethish
 0002:00002638       aPriorhotkey
 0002:00002644       aThishotkey
 0002:00002650       aThismenu
 0002:0000265C       aThismenuitempo
 0002:0000266C       aThismenuitem
 0002:0000267C       aThislabel
 0002:00002688       aThisfunc
 0002:00002694       aSubkey
 0002:0000269C       aKey
 0002:000026A0       aType
 0002:000026A8       aSizemb
 0002:000026B0       aSizekb
 0002:000026B8       aSize
 0002:000026C0       aTimeaccessed
 0002:000026D0       aTimecreated
 0002:000026DC       aTimemodified
 0002:000026EC       aAttrib
 0002:000026F4       aShortpath
 0002:00002700       aLongpath
 0002:0000270C       aFullpath
 0002:00002718       aDir
 0002:0000271C       aExt
 0002:00002720       aShortname
 0002:0000272C       aName
 0002:00002734       aFile
 0002:0000273C       aField
 0002:00002744       aReadline
 0002:00002750       aLoop
 0002:00002758       aIpaddress
 0002:00002764       aScreenheight
 0002:00002774       aScreenwidth
 0002:00002780       aCarety
 0002:00002788       aCaretx
 0002:00002790       aCursor
 0002:00002798       aIsadmin
 0002:000027A0       aStartupcommon
 0002:000027B0       aStartup
 0002:000027B8       aProgramscommon
 0002:000027C8       aPrograms
 0002:000027D4       aStartmenucommo
 0002:000027E4       aStartmenu
 0002:000027F0       aDesktopcommon
 0002:00002800       aDesktop
 0002:00002808       aAppdatacommon
 0002:00002818       aAppdata
 0002:00002820       aMydocuments
 0002:0000282C       aProgramfiles
 0002:0000283C       aTemp
 0002:00002844       aWindir
 0002:0000284C       aUsername
 0002:00002858       aComputername
 0002:00002868       aLanguage
 0002:00002874       aOsversion
 0002:00002880       aOstype
 0002:00002888       aExitreason
 0002:00002894       aIconnumber
 0002:000028A0       aIconfile
 0002:000028AC       aIcontip
 0002:000028B4       aIconhidden
 0002:000028C0       aIssuspended
 0002:000028CC       aIscritical
 0002:000028D8       aIspaused
 0002:000028E4       aDefaultmousesp
 0002:000028F8       aMousedelay
 0002:00002904       aControldelay
 0002:00002914       aWindelay
 0002:00002920       aKeydelay
 0002:0000292C       aFormatfloat
 0002:00002938       aFormatinteger
 0002:00002948       aStringcasesens
 0002:00002958       aAutotrim
 0002:00002964       aDetecthiddente
 0002:00002978       aDetecthiddenwi
 0002:0000298C       aTitlematchmode_0
 0002:000029A0       aTitlematchmode
 0002:000029B0       aNumbatchlines
 0002:000029C0       aBatchlines
 0002:000029CC       aIscompiled
 0002:000029D8       aLinefile
 0002:000029E4       aLinenumber
 0002:000029F0       aScriptfullpath
 0002:00002A00       aScriptdir
 0002:00002A0C       aScriptname
 0002:00002A18       aWorkingdir
 0002:00002A24       aNowutc
 0002:00002A2C       aNow
 0002:00002A30       aTickcount
 0002:00002A3C       aMsec
 0002:00002A44       aSec
 0002:00002A48       aMin
 0002:00002A4C       aHour
 0002:00002A54       aYweek
 0002:00002A5C       aYday
 0002:00002A64       aWday
 0002:00002A6C       aMday
 0002:00002A74       aDd
 0002:00002A78       aMon
 0002:00002A7C       aMm
 0002:00002A80       aYear
 0002:00002A88       aYyyy
 0002:00002A90       aDdd
 0002:00002A94       aDddd
 0002:00002A9C       aMmm
 0002:00002AA0       aMmmm
 0002:00002AA8       aIndex
 0002:00002AB0       aIllegalGroupNa
 0002:00002AC4       aGroupNameTooLo
 0002:00002ADC       asc_45CADC
 0002:00002AE0       aSSS_0
 0002:00002AE8       SubBlock
 0002:00002AEC       a02f
 0002:00002AF8       aIfSSSAndS
 0002:00002B0C       aS_3
 0002:00002B10       aS_5
 0002:00002B14       aSSSS
 0002:00002B20       aIf_0
 0002:00002B24       aStillWaiting02
 0002:00002B40       dbl_45CB40
 0002:00002B48       a03u
 0002:00002B50       aParameter1Inva
 0002:00002B68       aSglobalVariabl
 0002:00002B8C       asc_45CB8C
 0002:00002B94       aLocalVariables
 0002:00002BB0       asc_45CBB0
 0002:00002BE8       aKeyHistoryHasB
 0002:00002C1C       aPressF5ToRefre
 0002:00002C38       aWindowSKeybdHo
 0002:00002CF0       aPreemptedTheyW
 0002:00002D30       aS_4
 0002:00002D34       aCreatewindow
 0002:00002D44       aEdit
 0002:00002D4C       ClassName
 0002:00002D5C       aAutohotkey2
 0002:00002D68       aRegclass
 0002:00002D78       dbl_45CD78
 0002:00002D80       a0x
 0002:00002D84       aSSS
 0002:00002D90       asc_45CD90
 0002:00002D94       asc_45CD94
 0002:00002D98       aRequires123Slo
 0002:00002DD0       aMs
 0002:00002DD4       aRelative
 0002:00002DE0       aScreen
 0002:00002DE8       aPressOkToConti
 0002:00002E00       aWait
 0002:00002E08       dbl_45CE08
 0002:00002E10       aA
 0002:00002E14       aParameter2Inva
 0002:00002E2C       aInvalidMouseBu
 0002:00002E60       aError
 0002:00002E68       aEnvironment
 0002:00002E78       dbl_45CE78
 0002:00002E80       aAhkGroup
 0002:00002E8C       aLr
 0002:00002E90       dbl_45CE90
 0002:00002E98       dbl_45CE98
 0002:00002EA0       dbl_45CEA0
 0002:00002EA8       dbl_45CEA8
 0002:00002EB0       aSmhd
 0002:00002EB8       aScriptLinesMos
 0002:00002FBC       asc_45CFBC
 0002:00002FC4       aLine_0
 0002:00002FD0       aAReturnMustBeE
 0002:00003024       aParameter3Inva
 0002:00003058       aParameter2Inva_0
 0002:0000308C       aR
 0002:00003090       aCsv
 0002:00003094       aRead
 0002:0000309C       aCriticalErrorS
 0002:000030C8       aTheProgramWill
 0002:000030E0       aTheScriptWasNo
 0002:00003128       aSpecifically11
 0002:00003144       aSS1500s
 0002:00003158       aError_0
 0002:00003160       aCriticalError
 0002:00003170       aWarning
 0002:00003178       aInIncludeFileS
 0002:00003190       aSpecificallyS
 0002:000031A8       aSDS
 0002:000031BC       aSS_2
 0002:000031C4       aTheProgramWill_0
 0002:000031E0       aTheScriptWasNo_0
 0002:00003224       aLineText1100sS
 0002:00003244       asc_45D244
 0002:00003248       aErrorAtLineU
 0002:0000325C       aUnk
 0002:00003260       aFailedAttemptT
 0002:000032DC       aVerbS
 0002:000032E8       aHta_0
 0002:000032F0       aHta
 0002:000032F8       aCmd_0
 0002:00003300       aCmd
 0002:00003308       aCom_0
 0002:00003310       aCom
 0002:00003318       aBat_0
 0002:00003320       aBat
 0002:00003328       aExe_0
 0002:00003330       aExe
 0002:00003338       aLaunchErrorPos
 0002:00003384       aSS_0
 0002:00003390       aSystemVerbsUns
 0002:000033D4       aProperties
 0002:000033E0       aPrint
 0002:000033E8       aOpen
 0002:000033F0       aExplore
 0002:000033F8       aFind
 0002:00003400       aStringTooLongT
 0002:00003430       aNoTrayMem
 0002:0000343C       aTray_0
 0002:00003444       aDelimiter_0
 0002:00003450       aDerefchar
 0002:0000345C       aEscapechar
 0002:00003468       aCommentflag
 0002:00003478       aKeyhistory
 0002:00003488       dbl_45D488
 0002:00003490       dbl_45D490
 0002:00003498       dbl_45D498
 0002:000034A0       aMaxmem
 0002:000034A8       aAllowsamelinec
 0002:000034C0       aErrorstdout_0
 0002:000034D0       aWinactivatefor
 0002:000034E4       aLtrim
 0002:000034EC       aClipboardtimeo
 0002:00003500       aMaxthreads
 0002:0000350C       aMaxthreadsbuff
 0002:00003520       aMaxthreadsperh
 0002:00003538       aMaxhotkeysperi
 0002:00003550       aHotkeyinterval
 0002:00003560       aHotkeymodifier
 0002:00003578       aNomouse
 0002:00003580       asc_45D580
 0002:00003584       aEndchars
 0002:00003590       aHotstring
 0002:0000359C       aLiteralCommasA
 0002:000035D8       aIfwin_0
 0002:000035E0       aUsehook
 0002:000035EC       aInstallmouseho
 0002:00003600       aInstallkeybdho
 0002:00003614       aIgnore_0
 0002:0000361C       aForce_0
 0002:00003624       aSingleinstance
 0002:00003634       aPersistent
 0002:00003640       aNotrayicon
 0002:0000364C       aNoenv
 0002:00003654       aIncludeagain
 0002:00003664       aInclude
 0002:00003670       aOnclipboardcha
 0002:00003684       aDuplicateLabel
 0002:00003698       aThisLineDoesNo
 0002:000036C8       aFunctionNameTo
 0002:000036E0       aIllegalParamet
 0002:000036F8       aErrorlevel
 0002:00003704       aVariableNameTo_0
 0002:0000371C       aVariableNameTo
 0002:00003754       aExpressionTooL
 0002:00003768       aMissing
 0002:00003774       aAIsMissingIts
 0002:00003790       aMissing_0
 0002:0000379C       aMissingCloseQu
 0002:000037B0       asc_45D7B0
 0002:000037C4       asc_45D7C4
 0002:000037C8       asc_45D7C8
 0002:000037CC       aRegistercallba
 0002:000037E0       aOnmessage
 0002:000037EC       aWinactive
 0002:000037F8       aWinexist
 0002:00003804       aFileexist
 0002:00003810       aVarsetcapacity
 0002:00003820       aDllcall
 0002:00003828       aIsfunc
 0002:00003830       aIslabel
 0002:00003838       aNumput
 0002:00003840       aNumget
 0002:00003848       aRegexreplace
 0002:00003858       aRegexmatch
 0002:00003864       aInstr
 0002:0000386C       aSubstr
 0002:00003874       aStrlen
 0002:0000387C       aSbSeticon
 0002:00003888       aSbSetparts
 0002:00003894       aSbSettext
 0002:000038A0       aDestroy
 0002:000038A8       aCreate
 0002:000038B0       aIl
 0002:000038B4       aGet
 0002:000038B8       aGetselection
 0002:000038C8       aGetprev
 0002:000038D0       aGetchild
 0002:000038DC       aGetparent
 0002:000038E8       aTv
 0002:000038EC       aSetimagelist
 0002:000038FC       aDeletecol
 0002:00003908       aModifycol
 0002:00003914       aInsertcol
 0002:00003920       aModify
 0002:00003928       aAdd
 0002:0000392C       aGettext
 0002:00003934       aGetcount
 0002:00003940       aGetnext
 0002:00003948       aLv_0
 0002:0000394C       aImproperLineBe
 0002:00003968       aMissing_2
 0002:00003974       aNestingTooDeep
 0002:00003988       aMissing_1
 0002:00003994       aTooManyParamet
 0002:000039BC       aBlankParameter
 0002:000039CC       aTooFewParamete
 0002:000039F4       aCallToNonexist
 0002:00003A14       aCallerMustPass
 0002:00003A4C       asc_45DA4C
 0002:00003A50       asc_45DA50
 0002:00003A60       aInappropriateL_0
 0002:00003A88       aInappropriateL
 0002:00003AAC       aBreakContinueM
 0002:00003AD8       aElseWithNoMatc
 0002:00003AF4       aTargetLabelDoe_0
 0002:00003B14       aQ
 0002:00003B18       aEmptyVariableR
 0002:00003B38       aInvalid_0
 0002:00003B48       aThisParameterC
 0002:00003B94       aTooManyVarFunc
 0002:00003BAC       aParameterDefau
 0002:00003BC8       aUnsupportedPar
 0002:00003BE8       aDuplicateParam
 0002:00003C00       aTooManyParams
 0002:00003C14       aMissingComma
 0002:00003C24       aByref
 0002:00003C2C       asc_45DC2C
 0002:00003C34       aDuplicateFunct
 0002:00003C54       aNotAllowedAsAn
 0002:00003C78       aThisDynamicVar
 0002:00003CE8       aThisDynamicall
 0002:00003D70       aALabelMustNotP_1
 0002:00003DC0       aALabelMustNotP_0
 0002:00003DE4       aALabelMustNotP
 0002:00003E0C       aS0
 0002:00003E10       aParameter4Inva
 0002:00003E28       aParameter3Inva_0
 0002:00003E40       aRa
 0002:00003E44       aFast_0
 0002:00003E4C       aParameter2Requ
 0002:00003E64       aTheLeftmostCha
 0002:00003EA0       asc_45DEA0
 0002:00003EA8       asc_45DEA8
 0002:00003EAC       asc_45DEAC
 0002:00003EC0       aDefault_0
 0002:00003EC8       aParse
 0002:00003ED0       aParameter1Requ
 0002:00003EE8       aNoicon
 0002:00003EF0       aIcon
 0002:00003EF8       aSRequiresThatP
 0002:00003F28       aSRequiresAtLea
 0002:00003F50       aS_2
 0002:00003F54       aInvalidHotkey
 0002:00003F64       asc_45DF64
 0002:00003F68       aLoop_0
 0002:00003F70       asc_45DF70
 0002:00003F88       aBetweenRequire
 0002:00003FA8       aNot_0
 0002:00003FAC       aAnd
 0002:00003FB0       aBuiltInVariabl
 0002:00003FDC       aUnsupportedSta
 0002:00003FFC       aTooManyDeclara
 0002:00004014       aParametersMust
 0002:00004038       aDuplicateDecla
 0002:00004050       aLocalVariables_0
 0002:00004088       aGlobalVariable
 0002:000040C0       asc_45E0C0
 0002:000040C8       aStatic_0
 0002:000040D0       aLocal
 0002:000040D8       aGlobal
 0002:000040E0       aCouldNotExtrac
 0002:00004104       aDuplicateHotke
 0002:00004118       aThisHotstringI
 0002:00004144       aIfwinShouldBeI
 0002:0000415C       aHotkeysHotstri
 0002:00004194       aFunctionsCanno
 0002:000041B8       aContinuationSe
 0002:000041D8       aBlindSUp
 0002:000041E8       aS_1
 0002:000041F0       aSUp
 0002:000041FC       aBlindSSSDownte
 0002:00004218       aLctrlUp
 0002:00004224       aIfNotGetkeysta
 0002:00004240       a1_0
 0002:00004244       aRctrlUp
 0002:00004250       asc_45E250
 0002:00004258       aNoteTheHotkeyS
 0002:000042BC       aSS_1
 0002:000042C4       asc_45E2C4
 0002:000042C8       aRtrim
 0002:000042D0       aLtrim_0
 0002:000042D8       asc_45E2D8
 0002:000042E4       asc_45E2E4
 0002:000042EC       asc_45E2EC
 0002:00004300       aJoin
 0002:00004308       asc_45E308
 0002:0000430C       asc_45E30C
 0002:00004310       aAhkWithIcon
 0002:00004320       aAutohotkeyScri
 0002:00004334       aExeCorrupted
 0002:00004344       aRegResourceLis
 0002:00004358       aRegFullResourc
 0002:00004378       aRegResourceReq
 0002:00004398       aRegQword
 0002:000043A4       aKey_0
 0002:000043A8       aRegDwordBigEnd
 0002:000043C0       aRegLink
 0002:000043CC       aMonitorname
 0002:000043D8       aMonitorworkare
 0002:000043E8       aMonitor
 0002:000043F0       aMonitorprimary
 0002:00004400       aMonitorcount
 0002:00004410       aWaitclose
 0002:0000441C       aWait_0
 0002:00004424       aClose
 0002:0000442C       aLabel
 0002:00004434       aUnlock
 0002:0000443C       aLock
 0002:00004444       aEject
 0002:0000444C       aCap
 0002:00004450       aCapacity
 0002:0000445C       aStatuscd
 0002:00004468       aStatus
 0002:00004470       aType_0
 0002:00004478       aSerial
 0002:00004480       aSetlabel
 0002:0000448C       aFs
 0002:00004490       aFilesystem
 0002:0000449C       aList
 0002:000044A4       aRegion
 0002:000044AC       aDisable
 0002:000044B4       aEnable
 0002:000044BC       aRedraw
 0002:000044C4       aExstyle
 0002:000044CC       aStyle
 0002:000044D4       aTop
 0002:000044D8       aBottom
 0002:000044E0       aTopmost
 0002:000044E8       aAlwaysontop
 0002:000044F4       aTranscolor
 0002:00004500       aTransparent
 0002:0000450C       aTrans
 0002:00004514       aHwnd
 0002:0000451C       aControllist
 0002:00004528       aMinmax
 0002:00004530       aCount
 0002:00004538       aProcessname
 0002:00004544       off_45E544
 0002:00004548       aIdlast
 0002:00004550       aId
 0002:00004554       aAlwaysoff
 0002:00004560       aAlwayson
 0002:0000456C       aMaxWindowNumbe
 0002:000045A4       unk_45E5A4
 0002:000045A8       aMsctlsProgress
 0002:000045BC       aStatic
 0002:000045C8       dbl_45E5C8
 0002:000045D0       dbl_45E5D0
 0002:000045D8       pwszDriver
 0002:000045E0       aHide_0
 0002:000045E8       aShow
 0002:000045F0       aMaxWindowNumbe_0
 0002:00004628       aTooltipsClass3
 0002:0000463C       aMatch
 0002:00004644       dword_45E644
 0002:00004648       dword_45E648
 0002:0000464C       unk_45E64C
 0002:00004650       aNewinput
 0002:0000465C       aInd
 0002:00004660       asc_45E660
 0002:00004664       aGetmonitorinfo
 0002:00004678       aScriptInfoWill
 0002:000046F4       aSoftwareAutoho
 0002:00004708       aInstalldir
 0002:00004714       asc_45E714
 0002:00004718       aC
 0002:00004720       FileName
 0002:00004730       dbl_45E730
 0002:00004738       dbl_45E738
 0002:00004740       dbl_45E740
 0002:00004748       dbl_45E748
 0002:00004750       aStopped
 0002:00004758       aPlayAhkPlayme
 0002:00004768       aOpenSAliasAhkP
 0002:00004784       aS_0
 0002:00004788       aAllFiles
 0002:0000479C       aTextDocumentsT
 0002:000047B3       aTxt
 0002:000047BC       aSCSCallFilesCC
 0002:000047DC       asc_45E7DC
 0002:000047E0       aSelectFileS
 0002:000047F4       asc_45E7F4
 0002:000047F8       aTheMaximumNumb
 0002:00004850       aAGotoGosubMust
 0002:00004894       aMmm_0
 0002:00004898       Format
 0002:000048A0       a02d
 0002:000048A8       a03d
 0002:000048B0       aMsec_0
 0002:000048B8       aDms
 0002:000048C0       aSlow_0
 0002:000048C8       aSingle
 0002:000048D0       aLogoff
 0002:000048D8       a104805
 0002:000048E4       aAutohotkeyExe
 0002:000048F4       aWin32Windows
 0002:00004904       aWin32Nt
 0002:00004910       aWinMe
 0002:00004918       aWin98
 0002:00004920       aWin95
 0002:00004928       aWinNt4
 0002:00004930       aWin2000
 0002:0000493C       aWin2003
 0002:00004948       aWinVista
 0002:00004954       aWinXp
 0002:0000495C       aDefaultControl
 0002:0000498C       aSystemCurrentc
 0002:000049BC       aInstalllanguag
 0002:000049CC       aSoftwareMicros_0
 0002:000049F8       aProgramfilesdi
 0002:00004A08       aAppdata_0
 0002:00004A10       ValueName
 0002:00004A20       SubKey
 0002:00004A64       aDesktop_0
 0002:00004A6C       aCommonDesktop
 0002:00004A7C       aStartMenu
 0002:00004A88       aCommonStartMen
 0002:00004A9C       aPrograms_0
 0002:00004AA8       aCommonPrograms
 0002:00004AB8       aStartup_0
 0002:00004AC0       aCommonStartup
 0002:00004AD0       aPersonal
 0002:00004ADC       aUparrow
 0002:00004AE4       aSizewe
 0002:00004AEC       aSizenwse
 0002:00004AF8       aSizens
 0002:00004B00       aSizenesw
 0002:00004B0C       aSizeall
 0002:00004B14       aSize_0
 0002:00004B1C       aNo_2
 0002:00004B20       aIbeam
 0002:00004B28       aCross
 0002:00004B30       aArrow
 0002:00004B38       aAppstarting
 0002:00004B44       aUnknown
 0002:00004B4C       aGetcursorinfo
 0002:00004B5C       aColclick
 0002:00004B68       aDoubleclick
 0002:00004B74       aNormal
 0002:00004B7C       aGetlastinputin
 0002:00004B90       stru_45EB90
 0002:00004B9C       aDouble
 0002:00004BA4       aInt64
 0002:00004BAC       aChar
 0002:00004BB4       aShort
 0002:00004BBC       aStr
 0002:00004BC0       aInt
 0002:00004BC4       aPp
 0002:00004BC8       aCompileErrorDA
 0002:00004BEC       aJoyinfo
 0002:00004BF4       aJoyaxes
 0002:00004BFC       aJoybuttons
 0002:00004C08       aJoyname
 0002:00004C10       aJoypov
 0002:00004C18       aJoyv
 0002:00004C20       aJoyu
 0002:00004C28       aJoyr
 0002:00004C30       aJoyz
 0002:00004C38       aJoyy
 0002:00004C40       aJoyx
 0002:00004C48       aJoy
 0002:00004C50       dbl_45EC50
 0002:00004C58       aYuml
 0002:00004C60       aThorn
 0002:00004C68       aYacute
 0002:00004C70       aUuml
 0002:00004C78       aUcirc
 0002:00004C80       aUacute
 0002:00004C88       aUgrave
 0002:00004C90       aOslash
 0002:00004C98       aDivide
 0002:00004CA0       aOuml
 0002:00004CA8       aOtilde
 0002:00004CB0       aOcirc
 0002:00004CB8       aOacute
 0002:00004CC0       aOgrave
 0002:00004CC8       aNtilde
 0002:00004CD0       aEth
 0002:00004CD4       aIuml
 0002:00004CDC       aIcirc
 0002:00004CE4       aIacute
 0002:00004CEC       aIgrave
 0002:00004CF4       aEuml
 0002:00004CFC       aEcirc
 0002:00004D04       aEacute
 0002:00004D0C       aEgrave
 0002:00004D14       aCcedil
 0002:00004D1C       aAelig
 0002:00004D24       aAring
 0002:00004D2C       aAuml
 0002:00004D34       aAtilde
 0002:00004D3C       aAcirc
 0002:00004D44       aAacute
 0002:00004D4C       aAgrave
 0002:00004D54       aSzlig
 0002:00004D5C       aThorn_0
 0002:00004D64       aYacute_0
 0002:00004D6C       aUuml_0
 0002:00004D74       aUcirc_0
 0002:00004D7C       aUacute_0
 0002:00004D84       aUgrave_0
 0002:00004D8C       aOslash_0
 0002:00004D94       aTimes
 0002:00004D9C       aOuml_0
 0002:00004DA4       aOtilde_0
 0002:00004DAC       aOcirc_0
 0002:00004DB4       aOacute_0
 0002:00004DBC       aOgrave_0
 0002:00004DC4       aNtilde_0
 0002:00004DCC       aEth_0
 0002:00004DD0       aIuml_0
 0002:00004DD8       aIcirc_0
 0002:00004DE0       aIacute_0
 0002:00004DE8       aIgrave_0
 0002:00004DF0       aEuml_0
 0002:00004DF8       aEcirc_0
 0002:00004E00       aEacute_0
 0002:00004E08       aEgrave_0
 0002:00004E10       aCcedil_0
 0002:00004E18       aAelig_0
 0002:00004E20       aAring_0
 0002:00004E28       aAuml_0
 0002:00004E30       aAtilde_0
 0002:00004E38       aAcirc_0
 0002:00004E40       aAacute_0
 0002:00004E48       aAgrave_0
 0002:00004E50       aIquest
 0002:00004E58       aFrac34
 0002:00004E60       aFrac12
 0002:00004E68       aFrac14
 0002:00004E70       aRaquo
 0002:00004E78       aOrdm
 0002:00004E80       aSup1
 0002:00004E88       aCedil
 0002:00004E90       aMiddot
 0002:00004E98       aPara
 0002:00004EA0       aMicro
 0002:00004EA8       aAcute
 0002:00004EB0       aSup3
 0002:00004EB8       aSup2
 0002:00004EC0       aPlusmn
 0002:00004EC8       aDeg
 0002:00004ECC       aMacr
 0002:00004ED4       aShy
 0002:00004ED8       aLaquo
 0002:00004EE0       aOrdf
 0002:00004EE8       aCopy
 0002:00004EF0       aUml
 0002:00004EF4       aSect
 0002:00004EFC       aBrvbar
 0002:00004F04       aYen
 0002:00004F08       aCurren
 0002:00004F10       aPound
 0002:00004F18       aCent
 0002:00004F20       aIexcl
 0002:00004F28       aNbsp
 0002:00004F30       aYuml_0
 0002:00004F38       a382
 0002:00004F40       a157
 0002:00004F48       aOelig
 0002:00004F50       aRsaquo
 0002:00004F58       aScaron
 0002:00004F60       aTrade
 0002:00004F68       aTilde
 0002:00004F70       aMdash
 0002:00004F78       aNdash
 0002:00004F80       aBull
 0002:00004F88       aRdquo
 0002:00004F90       aLdquo
 0002:00004F98       aRsquo
 0002:00004FA0       aLsquo
 0002:00004FA8       a144
 0002:00004FB0       a143
 0002:00004FB8       a381
 0002:00004FC0       a141
 0002:00004FC8       aOelig_0
 0002:00004FD0       aLsaquo
 0002:00004FD8       aScaron_0
 0002:00004FE0       aPermil
 0002:00004FE8       aCirc
 0002:00004FF0       aDagger
 0002:00004FF8       aDagger_0
 0002:00005000       aHellip
 0002:00005008       aBdquo
 0002:00005010       aFnof
 0002:00005018       aSbquo
 0002:00005020       a129
 0002:00005028       aEuro
 0002:00005030       dbl_45F030
 0002:00005038       dbl_45F038
 0002:00005040       dbl_45F040
 0002:00005048       dbl_45F048
 0002:00005050       aBr
 0002:00005058       aQuot
 0002:00005060       aAmp
 0002:00005068       aLt
 0002:00005070       aGt
 0002:00005078       aAhkParent
 0002:00005084       aPos
 0002:00005088       aCol
 0002:0000508C       aFocused
 0002:00005094       aSelected
 0002:000050A0       aMsctlsStatusba
 0002:000050B4       aFail
 0002:000050BC       aParameter1Inva_0
 0002:000050F0       asc_45F0F0
 0002:000050F4       aSetlayeredwind
 0002:00005110       aSbottom
 0002:0000511C       aSright
 0002:00005124       aStop
 0002:0000512C       aSleft
 0002:00005134       aEnumdisplaymon
 0002:00005148       a0x06x
 0002:00005150       off_45F150
 0002:00005154       aDll
 0002:00005158       aExe_1
 0002:0000515C       aIco
 0002:00005160       aCouldNotOpenUr
 0002:000051A4       aHttpWwwAutohot
 0002:000051C0       aCouldNotLaunch_0
 0002:000051DC       aHhExe
 0002:000051E4       aSautohotkeyChm
 0002:000051F8       aAutohotkeyChm
 0002:0000520C       aCouldNotLaunch
 0002:0000522C       aSau3SpyExe
 0002:0000523C       aAu3SpyExe
 0002:0000524C       aTheScriptCould
 0002:00005270       aHhmst
 0002:00005278       aDmyg
 0002:00005280       aYearmonth
 0002:0000528C       aLongdate
 0002:00005298       aShortdate
 0002:000052A4       aWday_0
 0002:000052AC       aYday0
 0002:000052B4       aYday_0
 0002:000052BC       aYweek_0
 0002:000052C4       aSys
 0002:000052C8       off_45F2C8
 0002:000052CC       unk_45F2CC
 0002:000052D0       aD_0
 0002:000052D4       aKernel32
 0002:000052E0       aGetdiskfreespa
 0002:000052F4       strCommand
 0002:00005304       aSetCdDoorSWait
 0002:00005318       aOpenSTypeCdaud
 0002:00005348       aSetCdaudioDoor
 0002:00005364       aClosed
 0002:0000536C       aStatusCdMode
 0002:0000537C       aStatusCdaudioM
 0002:00005390       aReady
 0002:00005398       aInvalid
 0002:000053A0       aReadonly
 0002:000053AC       aNotready
 0002:000053B8       aCdrom_0
 0002:000053C0       aRamdisk_0
 0002:000053C8       aRamdisk
 0002:000053D0       aNetwork
 0002:000053D8       aFixed
 0002:000053E0       aRemovable
 0002:000053EC       aCdrom
 0002:000053F4       aInvalidControl
 0002:0000541C       aCanTChangeSett
 0002:00005434       aCanTGetCurrent
 0002:00005450       aComponentDoesn
 0002:0000547C       aMixerDoesnTHav
 0002:000054B0       aMixerDoesnTSup
 0002:000054DC       aCanTOpenSpecif
 0002:000054F8       dbl_45F4F8
 0002:00005500       asc_45F500
 0002:00005504       unk_45F504
 0002:00005508       aAb
 0002:0000550C       aWb
 0002:00005510       asc_45F510
 0002:00005514       aGetlayeredwind
 0002:00005530       a0x08x
 0002:00005538       aS1
 0002:0000553C       String
 0002:0000554C       aTheInputboxWin
 0002:00005578       dbl_45F578
 0002:00005580       dbl_45F580
 0002:00005588       aAutohotkeyV104
 0002:000055A0       aTheMaximumNumb_0
 0002:000055F4       a2_0
 0002:000055F8       aThisDllcallReq
 0002:00005654       a4
 0002:00005658       a3
 0002:0000565C       aGdi32
 0002:00005664       aCdecl
 0002:0000566C       aLenD
 0002:00005674       aPosD
 0002:0000567C       aLenS
 0002:00005684       aPosS
 0002:0000568C       a0F
 0002:00005694       aFf
 0002:00005698       aCc
 0002:0000569C       aVis
 0002:000056A0       aCheck
 0002:000056A8       aFocus
 0002:000056B0       aSelect
 0002:000056B8       aHdr
 0002:000056BC       aAuto
 0002:000056C4       aNosort
 0002:000056CC       aLogical
 0002:000056D4       aCase
 0002:000056DC       aDesc
 0002:000056E4       aUni
 0002:000056E8       aCenter
 0002:000056F0       aText
 0002:000056F8       aExpand
 0002:00005700       aBold
 0002:00005708       aFirst
 0002:00005710       aEditpaste
 0002:0000571C       aChoosestring
 0002:0000572C       aChoose
 0002:00005734       aTabright
 0002:00005740       aTableft
 0002:00005748       aHidedropdown
 0002:00005758       aShowdropdown
 0002:00005768       aUncheck
 0002:00005770       aCurrentcol
 0002:0000577C       aCurrentline
 0002:00005788       aLinecount
 0002:00005794       aChoice
 0002:0000579C       aFindstring
 0002:000057A8       aVisible
 0002:000057B0       aEnabled
 0002:000057B8       aChecked
 0002:000057C0       a0000
 0002:000057C8       asc_45F7C8
 0002:000057CC       aCombo
 0002:000057D4       aInternetreadfi_0
 0002:000057E8       aInternetreadfi
 0002:000057FC       aInternetcloseh
 0002:00005810       aInternetopenur
 0002:00005824       aInternetopena
 0002:00005834       aWininet
 0002:0000583C       aSelectFolderS
 0002:00005850       aTheMaximumNumb_1
 0002:000058A8       aShemptyrecycle
 0002:000058BC       aShell32
 0002:000058C4       aUUUU
 0002:000058D0       aProcess32next
 0002:000058E0       aProcess32first
 0002:000058F0       aCreatetoolhelp
 0002:0000590C       aGetmodulebasen
 0002:00005920       aEnumprocessmod
 0002:00005934       aEnumprocesses
 0002:00005944       aPsapi
 0002:0000594C       aCreateprocessw_0
 0002:00005984       ProcName
 0002:0000599C       aRunasMissingAd
 0002:000059D8       LibFileName
 0002:000059E4       asc_45F9E4
 0002:000059EC       aSeshutdownpriv
 0002:00005A00       aMemoryLimitRea
 0002:00005A54       aFlash
 0002:00005A5C       aColor
 0002:00005A64       aTreeview
 0002:00005A70       aListview
 0002:00005A7C       aFont
 0002:00005A84       aMargin
 0002:00005A8C       aRestore
 0002:00005A94       aMaximize
 0002:00005AA0       aMinimize
 0002:00005AAC       aCancel_0
 0002:00005AB4       aSubmit
 0002:00005ABC       aMovedraw
 0002:00005AC8       aMove
 0002:00005AD0       aFocusv
 0002:00005AD8       aStatusbar
 0002:00005AE4       aMonthcal
 0002:00005AF0       aDatetime
 0002:00005AFC       aPicture
 0002:00005B04       aPic
 0002:00005B08       aGroupbox
 0002:00005B14       aTab2
 0002:00005B1C       aSlider
 0002:00005B24       aUpdown
 0002:00005B2C       aListbox
 0002:00005B34       aCombobox
 0002:00005B40       aDropdownlist
 0002:00005B50       aDdl
 0002:00005B54       aRadio
 0002:00005B5C       aCheckbox
 0002:00005B68       aButton
 0002:00005B70       aDropfiles
 0002:00005B7C       aContextmenu
 0002:00005B88       aDgui
 0002:00005B90       aVk02x
 0002:00005B98       aStrcmplogicalw
 0002:00005BA8       aShlwapi
 0002:00005BB0       aToolwindow
 0002:00005BBC       aTheme
 0002:00005BC4       aSysmenu
 0002:00005BCC       aResize
 0002:00005BD4       aOwndialogs
 0002:00005BE0       aMaxsize
 0002:00005BE8       aXx
 0002:00005BEC       aMinsize
 0002:00005BF4       aMinimizebox
 0002:00005C00       aMaximizebox
 0002:00005C0C       aLastfound
 0002:00005C18       aDisabled
 0002:00005C24       aDelimiter
 0002:00005C30       aCaption
 0002:00005C38       aBorder
 0002:00005C40       aInvalidOrNonex
 0002:00005C84       aOwner
 0002:00005C8C       aNoactivate
 0002:00005C98       aNa
 0002:00005C9C       aAutosize
 0002:00005CA8       aCanTCreateFont
 0002:00005CDC       aTooManyFontsTh
 0002:00005D0C       aBold_0
 0002:00005D14       aItalic
 0002:00005D1C       aNorm
 0002:00005D24       aStrike
 0002:00005D2C       aUnderline
 0002:00005D38       aSh
 0002:00005D3C       aSw
 0002:00005D40       aSy
 0002:00005D44       aSx
 0002:00005D48       aAutohotkeygui
 0002:00005D58       aTheSameVariabl
 0002:00005DB8       aAControlSVaria
 0002:00005E08       aThisControlTyp
 0002:00005E64       aButtons
 0002:00005E6C       aSmooth
 0002:00005E74       aRange
 0002:00005E7C       aVertical
 0002:00005E88       aBuddy
 0002:00005E90       aThick
 0002:00005E98       aPage
 0002:00005EA0       aTickinterval
 0002:00005EB0       aNoticks
 0002:00005EB8       aInvert
 0002:00005EC0       aHorz
 0002:00005EC8       aSimple
 0002:00005ED0       aLimit
 0002:00005ED8       aPassword
 0002:00005EE4       aUppercase
 0002:00005EF0       aLowercase
 0002:00005EFC       aWantf2
 0002:00005F04       aWantctrla
 0002:00005F10       aWanttab
 0002:00005F18       aWantreturn
 0002:00005F24       aMulti
 0002:00005F2C       aCheck3
 0002:00005F34       aImagelist
 0002:00005F40       aLv
 0002:00005F44       aGrid
 0002:00005F4C       aTile
 0002:00005F54       aReport
 0002:00005F5C       aSmall
 0002:00005F64       aBackground
 0002:00005F70       aWrap
 0002:00005F78       aHidden
 0002:00005F80       aGroup
 0002:00005F88       aNotab
 0002:00005F90       aTabstop
 0002:00005F98       aHscroll
 0002:00005FA0       aVscroll
 0002:00005FA8       aNone
 0002:00005FB0       aGray
 0002:00005FB8       aAltsubmit
 0002:00005FC4       aSection
 0002:00005FCC       aCanTCreateCont
 0002:00006004       aSystabcontrol3
 0002:00006014       aMsctlsTrackbar
 0002:00006028       aMsctlsUpdown32
 0002:00006038       aMsctlsHotkey32
 0002:00006048       aSysmonthcal32
 0002:00006058       aSysdatetimepic
 0002:0000606C       aListbox_0
 0002:00006074       aCombobox_0
 0002:00006080       aButton_0
 0002:00006088       asc_460088
 0002:0000608C       SrcStr
 0002:00006090       flt_460090
 0002:00006094       asc_460094
 0002:00006098       asc_460098
 0002:0000609C       aButtonS
 0002:000060A8       asc_4600A8
 0002:000060B0       dbl_4600B0
 0002:000060B8       dbl_4600B8
 0002:000060C0       aTooManyStatusB
 0002:000060F8       aTooManyTabCont
 0002:00006130       aTooManyControl
 0002:00006164       aMaxWindowNumbe_1
 0002:0000619C       aTabNameDoesnTE
 0002:000061D8       aExact
 0002:000061E0       aNohide
 0002:000061E8       aMenuDoesNotExi
 0002:0000621C       aCouldNotCreate
 0002:00006254       aLastfoundexist
 0002:00006264       aNomainwindow
 0002:00006274       aMainwindow
 0002:00006280       aTip
 0002:00006284       aDeleteall
 0002:00006290       aNodefault
 0002:0000629C       aNostandard
 0002:000062A8       aStandard
 0002:000062B4       aToggleenable
 0002:000062C4       aTogglecheck
 0002:000062D0       aRename
 0002:000062D8       aSetmenuinfo
 0002:000062E4       aEXit
 0002:000062EC       aPauseScript
 0002:000062FC       aSuspendHotkeys
 0002:00006310       NewItem
 0002:00006318       aTray
 0002:00006320       aSupportedOnlyF
 0002:00006360       aCanTLoadIconTh
 0002:00006390       aMenuItemNameAl
 0002:000063DC       aTooManyMenuIte
 0002:00006410       aMenuItemNameTo
 0002:00006448       aNonexistentMen
 0002:00006480       aSubmenuMustNot
 0002:000064CC       aSubmenuDoesNot
 0002:00006508       aParameter3Must
 0002:00006554       aCanTDeleteMenu
 0002:00006590       aTrayMenuMustNo
 0002:000065D0       aCanTDeleteItem
 0002:00006610       aMenuNameTooLon
 0002:00006644       aAhkDefault
 0002:00006650       a0123456789abcd
 0002:00006664       a04d02d02d02d02
 0002:00006680       dbl_460680
 0002:00006688       asc_460688
 0002:00006690       asc_460690
 0002:00006694       aAqua
 0002:0000669C       aTeal
 0002:000066A4       aBlue
 0002:000066AC       aNavy
 0002:000066B4       aYellow
 0002:000066BC       aOlive
 0002:000066C4       aLime
 0002:000066CC       aGreen
 0002:000066D4       aFuchsia
 0002:000066DC       aPurple
 0002:000066E4       aRed
 0002:000066E8       aMaroon
 0002:000066F0       aWhite
 0002:000066F8       aSilver
 0002:00006700       aBlack
 0002:00006708       aVirtualallocex
 0002:00006718       aVirtualfreeex
 0002:00006728       aGdipdisposeima
 0002:0000673C       aGdipcreatehbit
 0002:00006758       aGdipcreatebitm
 0002:00006774       aGdiplusshutdow
 0002:00006784       aGdiplusstartup
 0002:00006794       aGif
 0002:00006798       aJpeg
 0002:000067A0       aJpg
 0002:000067A4       aGdiplus
 0002:000067AC       aBmp
 0002:000067B0       aAni
 0002:000067B4       aCur
 0002:000067B8       aScr
 0002:000067BC       aCpl
 0002:000067C0       aIcl
 0002:000067C4       aSetwindowtheme
 0002:000067D4       aUxtheme
 0002:000067DC       a04d02d
 0002:000067E8       aTheFollowingSN
 0002:0000682C       aFunction
 0002:00006838       aVariable
 0002:00006844       aTheCurrentThre_1
 0002:00006864       asc_460864
 0002:00006870       dbl_460870
 0002:00006878       dbl_460878
 0002:00006880       aIshungappwindo
 0002:00006890       aIshungthread
 0002:000068A0       aTheMaximumNumb_2
 0002:000068D4       aGroup_0
 0002:000068DC       aClass
 0002:000068E4       aPid
 0002:000068E8       aId_0
 0002:000068EC       aAhk
 0002:000068F4       aSU
 0002:000068FC       aProgramManager
 0002:0000690C       stru_46090C
 0002:0000691C       rclsid
 0002:0000692C       riid
 0002:0000693C       unk_46093C
 0002:0000694C       aArgumentIsNotA
 0002:0000697C       aFailedToGetMem
 0002:00006994       aUnknownOrIncor
 0002:000069C0       word_4609C0
 0002:00006A58       aAccept
 0002:00006A5F       aCommit
 0002:00006A68       aFail_0
 0002:00006A6D       aPrune
 0002:00006A73       aSkip
 0002:00006A78       aThen
 0002:00006A80       aAlpha_0
 0002:00006A86       aLower_0
 0002:00006A8C       aUpper_0
 0002:00006A92       aAlnum_0
 0002:00006A98       aAscii
 0002:00006A9E       aBlank
 0002:00006AA4       aCntrl
 0002:00006AAA       aDigit_0
 0002:00006AB0       aGraph
 0002:00006AB6       aPrint_0
 0002:00006ABC       aPunct
 0002:00006AC2       aSpace_1
 0002:00006AC8       aWord
 0002:00006ACD       aXdigit_0
 0002:00006AD4       byte_460AD4
 0002:00006AE8       dword_460AE8
 0002:00006AEC       dword_460AEC
 0002:00006AF0       dword_460AF0
 0002:00006B90       aNoError
 0002:00006B99       aAtEndOfPattern
 0002:00006BAD       aCAtEndOfPatter
 0002:00006BC2       aUnrecognizedCh
 0002:00006BE3       aNumbersOutOfOr
 0002:00006C09       aNumberTooBigIn
 0002:00006C29       aMissingTermina
 0002:00006C53       aInvalidEscapeS
 0002:00006C7E       aRangeOutOfOrde
 0002:00006CA4       aNothingToRepea
 0002:00006CB6       aOperandOfUnlim
 0002:00006CEF       aInternalErrorU
 0002:00006D11       aUnrecognizedCh_0
 0002:00006D31       aPosixNamedClas
 0002:00006D67       aMissing_3
 0002:00006D71       aReferenceToNon
 0002:00006D96       aErroffsetPasse
 0002:00006DAF       aUnknownOptionB
 0002:00006DC9       aMissingAfterCo
 0002:00006DE1       aParenthesesNes
 0002:00006DFF       aRegularExpress
 0002:00006E1F       aFailedToGetMem_0
 0002:00006E34       aUnmatchedParen
 0002:00006E4A       aInternalErrorC
 0002:00006E68       aUnrecognizedCh_1
 0002:00006E89       aLookbehindAsse
 0002:00006EB2       aMalformedNumbe
 0002:00006ED5       aConditionalGro
 0002:00006F07       aAssertionExpec
 0002:00006F24       aROrDigitsMustB
 0002:00006F4E       aUnknownPosixCl
 0002:00006F67       aPosixCollating
 0002:00006F92       aThisVersionOfP
 0002:00006FCE       aSpareError
 0002:00006FDA       aCharacterValue
 0002:0000700B       aInvalidConditi
 0002:00007023       aCNotAllowedInL
 0002:0000704A       aPcreDoesNotSup
 0002:00007076       aNumberAfterCIs
 0002:00007090       aClosingForCExp
 0002:000070AB       aRecursiveCallC
 0002:000070D2       aUnrecognizedCh_2
 0002:000070F3       aSyntaxErrorInS
 0002:00007128       aTwoNamedSubpat
 0002:00007151       aInvalidUtf8Str
 0002:00007166       aSupportForPPAn
 0002:00007197       aMalformedPOrPS
 0002:000071B3       aUnknownPropert
 0002:000071D8       aSubpatternName
 0002:0000720C       aTooManyNamedSu
 0002:00007237       aRepeatedSubpat
 0002:00007257       aOctalValueIsGr
 0002:0000728C       aInternalErrorO
 0002:000072B8       aInternalErrorP
 0002:000072FB       aDefineGroupCon
 0002:00007326       aRepeatingADefi
 0002:0000734E       aInconsistentNe
 0002:0000736B       aGIsNotFollowed
 0002:000073B7       aOrOrOrMustBeFo
 0002:000073F8       aVerbWithAnArgu
 0002:00007422       aVerbNotRecogni
 0002:00007439       aNumberIsTooBig
 0002:00007450       byte_461450
 0002:00007550       a0_0
 0002:00007554       off_461554
 0002:00007558       aDefine
 0002:00007560       aBsrUnicode
 0002:00007570       aBsrAnycrlf
 0002:00007580       aAnycrlf
 0002:0000758C       aAny
 0002:00007594       aCrlf
 0002:0000759C       aLf
 0002:000075A0       aCr
 0002:000075A4       byte_4615A4
 0002:000075AC       byte_4615AC
 0002:000075B8       byte_4615B8
 0002:00007616       byte_461616
 0002:00007628       unk_461628
 0002:00007A68       aCorexitprocess
 0002:00007A78       aMscoreeDll
 0002:00007A88       stru_461A88
 0002:00007B98       asc_461B98
 0002:00007D9A       unk_461D9A
 0002:00007F9C       aE000
 0002:00007FA8       dbl_461FA8
 0002:00007FB0       dbl_461FB0
 0002:00007FB8       aIsproces
 0002:00007FC0       byte_461FC0
 0002:00007FC1       aOrfeatureprese
 0002:00007FD4       aKernel32_0
 0002:00007FE0       byte_461FE0
 0002:0000803C       aNull_0
 0002:0000804C       aNull
 0002:00008058       stru_462058
 0002:00008068       stru_462068
 0002:00008078       stru_462078
 0002:0000809C       aRuntimeError
 0002:000080AC       aTlossError
 0002:000080BC       aSingError
 0002:000080CC       aDomainError
 0002:000080E0       aR6029ThisAppli
 0002:00008184       aR6028UnableToI
 0002:000081AC       aR6027NotEnough
 0002:000081E4       aR6026NotEnough
 0002:0000821C       aR6025PureVirtu
 0002:00008244       aR6024NotEnough
 0002:0000827C       aR6019UnableToO
 0002:000082A8       aR6018Unexpecte
 0002:000082CC       aR6017Unexpecte
 0002:000082FC       aR6016NotEnough
 0002:00008328       aThisApplicatio
 0002:000083C0       aR6009NotEnough
 0002:000083EC       aR6008NotEnough
 0002:00008418       aR6002FloatingP
 0002:00008440       aMicrosoftVisua
 0002:00008468       asc_462468
 0002:0000846C       aRuntimeErrorPr
 0002:00008488       aProgramNameUnk
 0002:000084A0       stru_4624A0
 0002:000084B0       stru_4624B0
 0002:000084C0       stru_4624C0
 0002:000084CC       aGetprocesswind
 0002:000084E4       aGetuserobjecti
 0002:00008500       aGetlastactivep
 0002:00008514       aGetactivewindo
 0002:00008524       aMessageboxa
 0002:00008530       aUser32Dll_0
 0002:0000853C       a1Qnan
 0002:00008544       a1Inf
 0002:0000854C       a1Ind
 0002:00008554       a1Snan
 0002:0000855C       aProgram
 0002:00008568       aABufferOverrun
 0002:00008608       aBufferOverrunD
 0002:00008628       aASecurityError
 0002:000086DC       aUnknownSecurit
 0002:00008700       stru_462700
 0002:00008710       unk_462710
 0002:00008718       unk_462718
 0002:0000871C       __IMPORT_DESCRIPTOR_KERNEL32
 0002:00008730       __IMPORT_DESCRIPTOR_ADVAPI32
 0002:00008744       __IMPORT_DESCRIPTOR_COMCTL32
 0002:00008758       __IMPORT_DESCRIPTOR_comdlg32
 0002:0000876C       __IMPORT_DESCRIPTOR_GDI32
 0002:00008780       __IMPORT_DESCRIPTOR_ole32
 0002:00008794       __IMPORT_DESCRIPTOR_OLEAUT32
 0002:000087A8       __IMPORT_DESCRIPTOR_SHELL32
 0002:000087BC       __IMPORT_DESCRIPTOR_USER32
 0002:000087D0       __IMPORT_DESCRIPTOR_VERSION
 0002:000087E4       __IMPORT_DESCRIPTOR_WINMM
 0002:000087F8       __IMPORT_DESCRIPTOR_WSOCK32
 0002:00008DF8       aKernel32Dll
 0002:00008E05       aAdvapi32Dll
 0002:00008E12       aComctl32Dll
 0002:00008E1F       aComdlg32Dll
 0002:00008E2C       aGdi32Dll
 0002:00008E36       aOle32Dll
 0002:00008E40       aOleaut32Dll
 0002:00008E4D       aShell32Dll
 0002:00008E59       aUser32Dll
 0002:00008E64       aVersionDll
 0002:00008E70       aWinmmDll
 0002:00008E7A       aWsock32Dll
 0002:0000A64F       unk_46464F
 0003:00000000       unk_465000
 0003:00000028       unk_465028
 0003:0000002C       unk_46502C
 0003:0000003C       unk_46503C
 0003:00000040       unk_465040
 0003:00000048       unk_465048
 0003:0000004C       unk_46504C
 0003:00000050       unk_465050
 0003:00000060       dword_465060
 0003:00000064       dword_465064
 0003:00000068       byte_465068
 0003:0000006C       dword_46506C
 0003:00000070       dword_465070
 0003:00000074       dword_465074
 0003:00000078       byte_465078
 0003:0000007C       dword_46507C
 0003:00000080       dword_465080
 0003:00000084       dword_465084
 0003:00000088       off_465088
 0003:0000008C       off_46508C
 0003:00000090       byte_465090
 0003:00000091       byte_465091
 0003:00000092       byte_465092
 0003:00000094       dword_465094
 0003:00000098       byte_465098
 0003:00000099       byte_465099
 0003:0000009A       byte_46509A
 0003:0000009B       byte_46509B
 0003:000000A0       asc_4650A0
 0003:00000108       off_465108
 0003:0000010C       dword_46510C
 0003:00000110       dword_465110
 0003:00000114       dword_465114
 0003:00000118       dword_465118
 0003:00000120       off_465120
 0003:00000125       byte_465125
 0003:00000126       byte_465126
 0003:00000127       unk_465127
 0003:0000027E       off_46527E
 0003:00000CF0       dword_465CF0
 0003:00000CF8       off_465CF8
 0003:00000D06       off_465D06
 0003:00000E20       dword_465E20
 0003:00000E28       off_465E28
 0003:00000E2C       byte_465E2C
 0003:000010C0       off_4660C0
 0003:00001190       off_466190
 0003:00001194       word_466194
 0003:000011F8       dword_4661F8
 0003:000011FC       dword_4661FC
 0003:00001200       off_466200
 0003:00001204       off_466204
 0003:00001208       dword_466208
 0003:0000120C       byte_46620C
 0003:0000121C       dword_46621C
 0003:00001220       byte_466220
 0003:00001258       flt_466258
 0003:00001260       off_466260
 0003:000012A0       dword_4662A0
 0003:000012A4       off_4662A4
 0003:000012B8       dword_4662B8
 0003:000014C0       dword_4664C0
 0003:000014C4       off_4664C4
 0003:000014D8       dword_4664D8
 0003:0000150C       byte_46650C
 0003:00001514       byte_466514
 0003:0000151C       aRb
 0003:00001520       aWB
 0003:00001524       aFile_0
 0003:0000152C       aJb01
 0003:00001534       off_466534
 0003:00001538       off_466538
 0003:00001544       dword_466544
 0003:00001548       byte_466548
 0003:0000157C       dword_46657C
 0003:00001588       off_466588
 0003:000015A0       off_4665A0
 0003:000015B0       unk_4665B0
 0003:000015C0       stru_4665C0
 0003:000015E0       unk_4665E0
 0003:00001610       unk_466610
 0003:00001820       off_466820
 0003:00001824       dword_466824
 0003:00001828       off_466828
 0003:00001830       cbMultiByte
 0003:00001834       byte_466834
 0003:00001840       off_466840
 0003:00001844       off_466844
 0003:00001848       off_466848
 0003:0000184C       off_46684C
 0003:00001850       off_466850
 0003:00001854       off_466854
 0003:00001860       dword_466860
 0003:00001868       unk_466868
 0003:00001870       off_466870
 0003:00001874       off_466874
 0003:00001880       off_466880
 0003:00001884       unk_466884
 0003:00001898       byte_466898
 0003:000018A0       dword_4668A0
 0003:000018A4       unk_4668A4
 0003:000018B0       unk_4668B0
 0003:00001990       dword_466990
 0003:00001994       off_466994
 0003:00001A28       unk_466A28
 0003:00001AA0       dword_466AA0
 0003:00001AA4       dword_466AA4
 0003:00001AA8       dword_466AA8
 0003:00001AAC       dword_466AAC
 0003:00001AB0       unk_466AB0
 0003:00001AC8       unk_466AC8
 0003:00001AE0       dword_466AE0
 0003:00001AE8       dword_466AE8
 0003:00001AEC       dword_466AEC
 0003:00001C50       unk_466C50
 0003:00001DB0       unk_466DB0
 0003:00001F60       dword_466F60
 0003:00001F68       unk_466F68
 0003:00002038       unk_467038
 0003:000020FC       byte_4670FC
 0003:00002108       dword_467108
 0003:0000210C       dword_46710C
 0003:00002110       dword_467110
 0003:00002116       unk_467116
 0003:00002117       byte_467117
 0003:00002118       byte_467118
 0003:00002145       byte_467145
 0003:00002174       dword_467174
 0003:00002178       dword_467178
 0003:0000217C       byte_46717C
 0003:0000217D       byte_46717D
 0003:0000217E       byte_46717E
 0003:00002180       dword_467180
 0003:00002184       dword_467184
 0003:00002188       dword_467188
 0003:0000218C       dword_46718C
 0003:00002190       dword_467190
 0003:00002194       dword_467194
 0003:00002198       dword_467198
 0003:0000219C       byte_46719C
 0003:000021A0       dword_4671A0
 0003:000021A4       dword_4671A4
 0003:000021A8       dword_4671A8
 0003:00002230       CriticalSection
 0003:00002248       idThread
 0003:0000224C       hInstance
 0003:00002250       byte_467250
 0003:00002254       hWndNewViewer
 0003:00002258       dword_467258
 0003:0000225C       hWnd
 0003:00002260       wParam
 0003:00002264       hAccTable
 0003:00002268       dword_467268
 0003:0000226C       lpPrevWndFunc
 0003:00002270       byte_467270
 0003:00002271       byte_467271
 0003:00002272       byte_467272
 0003:00002278       byte_467278
 0003:00002279       byte_467279
 0003:0000227A       byte_46727A
 0003:0000227C       byte_46727C
 0003:0000227D       byte_46727D
 0003:0000227E       byte_46727E
 0003:00002288       byte_467288
 0003:00002289       byte_467289
 0003:0000228A       byte_46728A
 0003:00002314       byte_467314
 0003:00002315       byte_467315
 0003:00002316       byte_467316
 0003:00002317       byte_467317
 0003:00002318       byte_467318
 0003:00002319       byte_467319
 0003:0000231A       byte_46731A
 0003:0000231B       byte_46731B
 0003:0000231C       byte_46731C
 0003:0000231D       byte_46731D
 0003:00002378       byte_467378
 0003:0000237C       dword_46737C
 0003:00002380       dword_467380
 0003:00002384       dword_467384
 0003:00002388       dword_467388
 0003:0000238C       dword_46738C
 0003:00002390       hhk
 0003:00002394       byte_467394
 0003:00002395       byte_467395
 0003:00002398       dword_467398
 0003:0000239C       byte_46739C
 0003:0000239D       byte_46739D
 0003:0000239E       byte_46739E
 0003:0000239F       byte_46739F
 0003:000023A0       byte_4673A0
 0003:000023A1       byte_4673A1
 0003:000023A2       byte_4673A2
 0003:000023A3       byte_4673A3
 0003:000023A4       byte_4673A4
 0003:000023A5       byte_4673A5
 0003:000023A8       dword_4673A8
 0003:000023AC       dword_4673AC
 0003:000023B0       dword_4673B0
 0003:000023B4       dword_4673B4
 0003:000023B8       dword_4673B8
 0003:000023BC       dword_4673BC
 0003:000023C0       byte_4673C0
 0003:000023C1       byte_4673C1
 0003:000023C4       dword_4673C4
 0003:000023C8       dword_4673C8
 0003:000023CC       dword_4673CC
 0003:000023D0       nIDEvent
 0003:000023D4       dword_4673D4
 0003:000023D8       dword_4673D8
 0003:000023DC       dword_4673DC
 0003:00002400       unk_467400
 0003:000026D0       unk_4676D0
 0003:00002980       dword_467980
 0003:000029A0       unk_4679A0
 0003:00002B0C       unk_467B0C
 0003:00002B10       unk_467B10
 0003:00002B60       dword_467B60
 0003:00002B64       dword_467B64
 0003:00002B68       dword_467B68
 0003:00002B6C       dword_467B6C
 0003:00002B70       byte_467B70
 0003:00002B71       byte_467B71
 0003:00002B72       byte_467B72
 0003:00002B73       byte_467B73
 0003:00002B74       byte_467B74
 0003:00002B78       dword_467B78
 0003:00002B80       PathName
 0003:00002C84       lpCurrentDirectory
 0003:00002C88       byte_467C88
 0003:00002C89       byte_467C89
 0003:00002C8A       byte_467C8A
 0003:00002C8B       byte_467C8B
 0003:00002C8C       dword_467C8C
 0003:00002C90       dword_467C90
 0003:00002C94       dword_467C94
 0003:00002C98       dword_467C98
 0003:00002C9C       idAttach
 0003:00002CA0       dword_467CA0
 0003:00002CA4       dword_467CA4
 0003:00002CA8       dword_467CA8
 0003:00002CAC       byte_467CAC
 0003:00002CAE       word_467CAE
 0003:00002CB0       byte_467CB0
 0003:00002CB1       byte_467CB1
 0003:00002CB4       dword_467CB4
 0003:00002CB8       dword_467CB8
 0003:00002CBC       dword_467CBC
 0003:00002CC0       dword_467CC0
 0003:00002CC4       dword_467CC4
 0003:00002CC8       byte_467CC8
 0003:00002CC9       byte_467CC9
 0003:00002CCA       byte_467CCA
 0003:00002CCB       byte_467CCB
 0003:00002CCC       byte_467CCC
 0003:00002CCD       byte_467CCD
 0003:00002CD0       lpString1
 0003:00002CD4       dword_467CD4
 0003:00002CD8       dword_467CD8
 0003:00002CE0       unk_467CE0
 0003:00002F1C       dword_467F1C
 0003:00002F20       dword_467F20
 0003:00002F24       byte_467F24
 0003:00003029       String2
 0003:00003130       dword_468130
 0003:00003134       dword_468134
 0003:00003138       dword_468138
 0003:0000313C       byte_46813C
 0003:00003140       dword_468140
 0003:00003144       dword_468144
 0003:00003148       dword_468148
 0003:0000314C       dword_46814C
 0003:00003158       dword_468158
 0003:0000315C       dword_46815C
 0003:00003168       dword_468168
 0003:0000316C       dword_46816C
 0003:00003170       byte_468170
 0003:00003171       byte_468171
 0003:00003174       lpCaption
 0003:00003178       dword_468178
 0003:0000317C       lpWindowName
 0003:00003184       dword_468184
 0003:00003188       dword_468188
 0003:0000318C       byte_46818C
 0003:0000318D       byte_46818D
 0003:0000318E       byte_46818E
 0003:0000318F       byte_46818F
 0003:00003190       byte_468190
 0003:00003198       dword_468198
 0003:0000319C       dword_46819C
 0003:000031A0       dword_4681A0
 0003:000031A4       dword_4681A4
 0003:000031A8       dword_4681A8
 0003:000031AC       dword_4681AC
 0003:000031B0       dword_4681B0
 0003:000031B4       lpWideCharStr
 0003:000031B8       dword_4681B8
 0003:000031BC       lParam
 0003:000031C0       dword_4681C0
 0003:000031C8       dword_4681C8
 0003:000031CC       dword_4681CC
 0003:000031D0       dword_4681D0
 0003:000031D8       dword_4681D8
 0003:000031E0       dword_4681E0
 0003:000031E4       dword_4681E4
 0003:000031EC       dword_4681EC
 0003:000031F0       dword_4681F0
 0003:000031F8       unk_4681F8
 0003:00003398       byte_468398
 0003:00003399       byte_468399
 0003:0000339A       byte_46839A
 0003:0000339B       byte_46839B
 0003:0000339C       byte_46839C
 0003:0000339D       byte_46839D
 0003:0000339E       byte_46839E
 0003:0000339F       byte_46839F
 0003:000033A0       byte_4683A0
 0003:000033A1       byte_4683A1
 0003:000033A2       byte_4683A2
 0003:000033A3       byte_4683A3
 0003:000033A4       byte_4683A4
 0003:000033A5       byte_4683A5
 0003:000033A8       byte_4683A8
 0003:000033AC       dword_4683AC
 0003:000033B0       dword_4683B0
 0003:000033B4       dword_4683B4
 0003:000033B8       dword_4683B8
 0003:000033BC       byte_4683BC
 0003:000033BD       byte_4683BD
 0003:000033BE       byte_4683BE
 0003:000033BF       byte_4683BF
 0003:000033C0       byte_4683C0
 0003:000033C1       byte_4683C1
 0003:000033C2       byte_4683C2
 0003:000033C3       byte_4683C3
 0003:000033C4       byte_4683C4
 0003:000033C5       byte_4683C5
 0003:000033C6       byte_4683C6
 0003:000033D2       byte_4683D2
 0003:000033D3       byte_4683D3
 0003:000033D4       byte_4683D4
 0003:000033D8       dword_4683D8
 0003:000033DC       byte_4683DC
 0003:000033DD       byte_4683DD
 0003:000033E0       word_4683E0
 0003:000033E2       byte_4683E2
 0003:000033E3       byte_4683E3
 0003:000033E4       dword_4683E4
 0003:000033E8       byte_4683E8
 0003:000033E9       byte_4683E9
 0003:000033EA       byte_4683EA
 0003:000033EB       byte_4683EB
 0003:000033EC       byte_4683EC
 0003:000033ED       byte_4683ED
 0003:000033F0       dword_4683F0
 0003:000033F4       dword_4683F4
 0003:000033F8       dword_4683F8
 0003:000033FC       dword_4683FC
 0003:00003400       dword_468400
 0003:00003404       dword_468404
 0003:00003408       dword_468408
 0003:0000340C       byte_46840C
 0003:0000340D       byte_46840D
 0003:00003410       bScan
 0003:00003412       byte_468412
 0003:00003414       hObject
 0003:00003418       byte_468418
 0003:00003419       byte_468419
 0003:0000341C       dword_46841C
 0003:00003420       dword_468420
 0003:00003424       dword_468424
 0003:00003428       dword_468428
 0003:000043C8       word_4693C8
 0003:000043CC       byte_4693CC
 0003:000043DC       dword_4693DC
 0003:000043E0       dword_4693E0
 0003:000043E4       dword_4693E4
 0003:000043E8       dword_4693E8
 0003:000043EC       byte_4693EC
 0003:000043F0       dword_4693F0
 0003:000043F4       byte_4693F4
 0003:000043F8       dword_4693F8
 0003:000043FC       byte_4693FC
 0003:000043FD       byte_4693FD
 0003:000043FE       byte_4693FE
 0003:000043FF       byte_4693FF
 0003:00004400       Point
 0003:00004408       byte_469408
 0003:0000440C       dword_46940C
 0003:00004410       dword_469410
 0003:00004414       dword_469414
 0003:00004418       dword_469418
 0003:0000441C       dword_46941C
 0003:00004420       dwhkl
 0003:00004424       dword_469424
 0003:00004428       byte_469428
 0003:00004429       byte_469429
 0003:0000442A       byte_46942A
 0003:00004430       dword_469430
 0003:00004434       dword_469434
 0003:00004480       dword_469480
 0003:00004484       dword_469484
 0003:00004488       byte_469488
 0003:00004489       byte_469489
 0003:0000448C       dword_46948C
 0003:00004490       byte_469490
 0003:00004498       dword_469498
 0003:000044A0       dword_4694A0
 0003:00004E5C       unk_469E5C
 0003:00004E60       dword_469E60
 0003:00004E68       dword_469E68
 0003:000054A8       lpString
 0003:000054AC       lpFileName
 0003:000054B0       lpAppName
 0003:000054B4       lpSubKey
 0003:000054B8       lpValueName
 0003:000054BC       nIndex
 0003:000054C0       idAttachTo
 0003:000054C4       dword_46A4C4
 0003:000054C8       dword_46A4C8
 0003:000054CC       dword_46A4CC
 0003:000054D0       dword_46A4D0
 0003:000054F8       dword_46A4F8
 0003:000054FC       dword_46A4FC
 0003:00005500       dword_46A500
 0003:00005504       dword_46A504
 0003:00005508       dword_46A508
 0003:0000550C       dword_46A50C
 0003:00005510       dword_46A510
 0003:00005514       dword_46A514
 0003:00005548       dword_46A548
 0003:00005550       dword_46A550
 0003:00005B90       dword_46AB90
 0003:00005B94       dword_46AB94
 0003:00005B98       dword_46AB98
 0003:00005B9C       dword_46AB9C
 0003:00005BA0       dword_46ABA0
 0003:00005BA4       unk_46ABA4
 0003:00005BA8       byte_46ABA8
 0003:00005BA9       byte_46ABA9
 0003:00005BAC       dword_46ABAC
 0003:00005BB0       dword_46ABB0
 0003:00005BB4       byte_46ABB4
 0003:00005BB5       byte_46ABB5
 0003:00005BB8       dword_46ABB8
 0003:00005BBC       dword_46ABBC
 0003:00005BC0       unk_46ABC0
 0003:00005BDC       dword_46ABDC
 0003:00005BE0       byte_46ABE0
 0003:00005CE0       dword_46ACE0
 0003:00005CE4       dword_46ACE4
 0003:00005CE8       dword_46ACE8
 0003:00005CEC       SystemTime
 0003:00005CFC       dword_46ACFC
 0003:00005D00       stru_46AD00
 0003:00005D08       dword_46AD08
 0003:00005D0C       dword_46AD0C
 0003:00005D10       dword_46AD10
 0003:00005D14       dword_46AD14
 0003:00005D18       dword_46AD18
 0003:00005D1C       dword_46AD1C
 0003:00005D20       dword_46AD20
 0003:00005D24       dword_46AD24
 0003:00005D28       dword_46AD28
 0003:00005D2C       dword_46AD2C
 0003:00005D30       dword_46AD30
 0003:00005D34       dword_46AD34
 0003:00005D38       dword_46AD38
 0003:00005D3C       dword_46AD3C
 0003:00005D40       dword_46AD40
 0003:00005D44       dword_46AD44
 0003:00005D48       dword_46AD48
 0003:00005D4C       dword_46AD4C
 0003:00005D50       dword_46AD50
 0003:00005D54       dword_46AD54
 0003:00005D58       dword_46AD58
 0003:00005D5C       dword_46AD5C
 0003:00005D60       dword_46AD60
 0003:00005D64       dword_46AD64
 0003:00005D68       dword_46AD68
 0003:00005D6C       dword_46AD6C
 0003:00005D70       dword_46AD70
 0003:00005D74       byte_46AD74
 0003:0000639C       dword_46B39C
 0003:000063A8       dword_46B3A8
 0003:000063AC       dword_46B3AC
 0003:000063B0       dword_46B3B0
 0003:000063B4       dword_46B3B4
 0003:000063B8       dword_46B3B8
 0003:000063BC       dword_46B3BC
 0003:000063C0       dword_46B3C0
 0003:000063C4       dword_46B3C4
 0003:000063C8       dword_46B3C8
 0003:000063CC       dword_46B3CC
 0003:000063D0       hModule
 0003:000063D4       dword_46B3D4
 0003:000063D8       dword_46B3D8
 0003:000063DC       dword_46B3DC
 0003:000063E0       dword_46B3E0
 0003:000063E4       dword_46B3E4
 0003:000063E8       dword_46B3E8
 0003:000063EC       dword_46B3EC
 0003:000063F0       dword_46B3F0
 0003:000063F4       dword_46B3F4
 0003:000063F8       dword_46B3F8
 0003:000063FC       dword_46B3FC
 0003:00006400       dword_46B400
 0003:00006404       byte_46B404
 0003:00006408       dword_46B408
 0003:0000640C       dword_46B40C
 0003:00006410       dword_46B410
 0003:00006414       dword_46B414
 0003:00006418       dword_46B418
 0003:0000641C       dword_46B41C
 0003:00006454       dword_46B454
 0003:00006458       dword_46B458
 0003:0000645C       dword_46B45C
 0003:00006460       dword_46B460
 0003:00006464       byte_46B464
 0003:00006468       dword_46B468
 0003:0000646C       dword_46B46C
 0003:00006470       dword_46B470
 0003:00006474       dword_46B474
 0003:00006478       dword_46B478
 0003:0000647C       dword_46B47C
 0003:00006480       dword_46B480
 0003:00006484       dword_46B484
 0003:00006490       dword_46B490
 0003:00006494       dword_46B494
 0003:00006498       dword_46B498
 0003:0000649C       dword_46B49C
 0003:000064A0       dword_46B4A0
 0003:000064A4       dword_46B4A4
 0003:000064A8       dword_46B4A8
 0003:000064AC       dword_46B4AC
 0003:000064B0       dword_46B4B0
 0003:000064B4       dword_46B4B4
 0003:000064B8       dword_46B4B8
 0003:000064BC       dword_46B4BC
 0003:000064C4       dword_46B4C4
 0003:000064D4       dword_46B4D4
 0003:000064DC       byte_46B4DC
 0003:000064E0       dword_46B4E0
 0003:000064E4       dword_46B4E4
 0003:000064E8       dword_46B4E8
 0003:000064F0       dword_46B4F0
 0003:000064F4       dword_46B4F4
 0003:000064F8       byte_46B4F8
 0003:000064FC       dword_46B4FC
 0003:00006500       byte_46B500
 0003:0000650C       Locale
 0003:0000651C       CodePage
 0003:00006524       dword_46B524
 0003:00006528       dword_46B528
 0003:0000652C       dword_46B52C
 0003:00006530       unk_46B530
 0003:00006550       dword_46B550
 0003:00006558       dword_46B558
 0003:00006598       Target
 0003:0000659C       dword_46B59C
 0003:000065A0       dword_46B5A0
 0003:000065A4       dword_46B5A4
 0003:000065A8       Filename
 0003:000066AC       byte_46B6AC
 0003:000066B0       dword_46B6B0
 0003:000066B4       dword_46B6B4
 0003:000066B8       word_46B6B8
 0003:000066BA       byte_46B6BA
 0003:000066BC       unk_46B6BC
 0003:000066D4       dword_46B6D4
 0003:000066D8       dword_46B6D8
 0003:000066DC       dword_46B6DC
 0003:000066E0       dword_46B6E0
 0003:000066E4       dword_46B6E4
 0003:000066E8       dword_46B6E8
 0003:000066EC       dword_46B6EC
 0003:000066F0       dword_46B6F0
 0003:000066F4       dword_46B6F4
 0003:000066F8       dword_46B6F8
 0003:000066FC       dword_46B6FC
 0003:00006700       dword_46B700
 0003:00006704       dword_46B704
 0003:00006708       dword_46B708
 0003:00006720       unk_46B720
 0003:00006721       byte_46B721
 0003:00006824       dword_46B824
 0003:00006830       unk_46B830
 0003:00006840       byte_46B840
 0003:00006940       uNumber
 0003:00006960       dword_46B960
 0003:00006964       unk_46B964
 0003:00006A60       dword_46BA60
 0003:00006A64       dword_46BA64
 0003:00006A68       lpMem
 0003:00006A6C       dword_46BA6C
 0003:00006A70       dword_46BA70
 0003:00006A74       dword_46BA74
 0003:00006A78       dword_46BA78
 0003:00006A7C       hHeap
 0003:00006A80       dword_46BA80
 0003:00006A84       dword_46BA84
 0003:00006A88       dword_46BA88
 0003:00006A8C       dword_46BA8C
 0003:00006A90       dword_46BA90
 0003:00006A94       dword_46BA94
 0003:00006A98       dword_46BA98
 0003:00006AA0       unk_46BAA0
 0003:00007AA0       dword_46CAA0

Program entry point at 0001:00041B4F
